---
triple:          'arm64-apple-darwin'
binary-path:     '/Users/runner/work/1/b/onnxruntime-osx-arm64-1.22.0/lib/libonnxruntime.1.22.0.dylib'
relocations:
  - { offsetInCU: 0x5D, offset: 0x5D, size: 0x8, addend: 0x0, symName: __ZN4onnx7checker16experimental_opsE, symObjAddr: 0x3487B0, symBinAddr: 0x1501158, symSize: 0x0 }
  - { offsetInCU: 0x2BA, offset: 0x2BA, size: 0x8, addend: 0x0, symName: __ZN4onnx7checker16check_value_infoERKNS_14ValueInfoProtoERKNS0_14CheckerContextE, symObjAddr: 0x0, symBinAddr: 0xB8BE78, symSize: 0x77C }
  - { offsetInCU: 0x1415, offset: 0x1415, size: 0x8, addend: 0x0, symName: __ZN4onnx7checker12check_tensorERKNS_11TensorProtoERKNS0_14CheckerContextE, symObjAddr: 0x1708, symBinAddr: 0xB8D580, symSize: 0xC68 }
  - { offsetInCU: 0x37B7, offset: 0x37B7, size: 0x8, addend: 0x0, symName: __ZN4onnx7checker30resolve_external_data_locationERKNSt3__112basic_stringIcNS1_11char_traitsIcEENS1_9allocatorIcEEEES9_S9_, symObjAddr: 0x29C4, symBinAddr: 0xB8E83C, symSize: 0x518 }
  - { offsetInCU: 0x462F, offset: 0x462F, size: 0x8, addend: 0x0, symName: __ZN4onnx7checker19check_sparse_tensorERKNS_17SparseTensorProtoERKNS0_14CheckerContextE, symObjAddr: 0x428C, symBinAddr: 0xB8FC30, symSize: 0x524 }
  - { offsetInCU: 0x53E7, offset: 0x53E7, size: 0x8, addend: 0x0, symName: __ZN4onnx7checker29check_sparse_tensor_indices_1ERKNS_11TensorProtoERKNS_17SparseTensorProtoEm, symObjAddr: 0x5DAC, symBinAddr: 0xB90154, symSize: 0x384 }
  - { offsetInCU: 0x5F50, offset: 0x5F50, size: 0x8, addend: 0x0, symName: __ZN4onnx7checker29check_sparse_tensor_indices_2ERKNS_11TensorProtoERKNS_17SparseTensorProtoEm, symObjAddr: 0x680C, symBinAddr: 0xB90BB4, symSize: 0x3B8 }
  - { offsetInCU: 0x6A80, offset: 0x6A80, size: 0x8, addend: 0x0, symName: __ZN4onnx7checker15check_attributeERKNS_14AttributeProtoERKNS0_14CheckerContextERKNS0_19LexicalScopeContextE, symObjAddr: 0x826C, symBinAddr: 0xB92614, symSize: 0xDA0 }
  - { offsetInCU: 0x9D2C, offset: 0x9D2C, size: 0x8, addend: 0x0, symName: __ZN4onnx7checker11check_graphERKNS_10GraphProtoERKNS0_14CheckerContextERKNS0_19LexicalScopeContextE, symObjAddr: 0x9B54, symBinAddr: 0xB93EFC, symSize: 0xCA0 }
  - { offsetInCU: 0xD70A, offset: 0xD70A, size: 0x8, addend: 0x0, symName: __ZN4onnx7checker24check_is_experimental_opERKNS_9NodeProtoE, symObjAddr: 0xBBE4, symBinAddr: 0xB95E0C, symSize: 0x134 }
  - { offsetInCU: 0xDBE0, offset: 0xDBE0, size: 0x8, addend: 0x0, symName: __ZN4onnx7checker10check_nodeERKNS_9NodeProtoERKNS0_14CheckerContextERKNS0_19LexicalScopeContextE, symObjAddr: 0xACC8, symBinAddr: 0xB94F90, symSize: 0x808 }
  - { offsetInCU: 0xFD38, offset: 0xFD38, size: 0x8, addend: 0x0, symName: __ZN4onnx7checker33print_warning_if_has_experimentalERKNSt3__113unordered_setINS1_12basic_stringIcNS1_11char_traitsIcEENS1_9allocatorIcEEEENS1_4hashIS8_EENS1_8equal_toIS8_EENS6_IS8_EEEE, symObjAddr: 0xA878, symBinAddr: 0xB94B9C, symSize: 0x3F4 }
  - { offsetInCU: 0x1E186, offset: 0x1E186, size: 0x8, addend: 0x0, symName: __ZN4onnx10MakeStringIJA8_cA6_cA7_cA5_cA27_cEEENSt3__112basic_stringIcNS6_11char_traitsIcEENS6_9allocatorIcEEEEDpRKT_, symObjAddr: 0xE58, symBinAddr: 0xB8CCD0, symSize: 0x234 }
  - { offsetInCU: 0x1EB5E, offset: 0x1EB5E, size: 0x8, addend: 0x0, symName: __ZN4onnx10MakeStringIJA8_cA5_cA7_cA11_cA31_cEEENSt3__112basic_stringIcNS6_11char_traitsIcEENS6_9allocatorIcEEEEDpRKT_, symObjAddr: 0x77C, symBinAddr: 0xB8C5F4, symSize: 0x234 }
  - { offsetInCU: 0x1F536, offset: 0x1F536, size: 0x8, addend: 0x0, symName: __ZN4onnx10MakeStringIJA8_cA10_cA7_cA5_cA27_cEEENSt3__112basic_stringIcNS6_11char_traitsIcEENS6_9allocatorIcEEEEDpRKT_, symObjAddr: 0xC24, symBinAddr: 0xB8CA9C, symSize: 0x234 }
  - { offsetInCU: 0x1FF0E, offset: 0x1FF0E, size: 0x8, addend: 0x0, symName: __ZN4onnx10MakeStringIJA8_cA5_cA7_cA11_cA27_cEEENSt3__112basic_stringIcNS6_11char_traitsIcEENS6_9allocatorIcEEEEDpRKT_, symObjAddr: 0x9F0, symBinAddr: 0xB8C868, symSize: 0x234 }
  - { offsetInCU: 0x208E6, offset: 0x208E6, size: 0x8, addend: 0x0, symName: __ZN4onnx10MakeStringIJA8_cA9_cA7_cA5_cA27_cEEENSt3__112basic_stringIcNS6_11char_traitsIcEENS6_9allocatorIcEEEEDpRKT_, symObjAddr: 0x108C, symBinAddr: 0xB8CF04, symSize: 0x234 }
  - { offsetInCU: 0x212BE, offset: 0x212BE, size: 0x8, addend: 0x0, symName: __ZN4onnx10MakeStringIJA8_cA11_cA7_cA5_cA27_cEEENSt3__112basic_stringIcNS6_11char_traitsIcEENS6_9allocatorIcEEEEDpRKT_, symObjAddr: 0x12C0, symBinAddr: 0xB8D138, symSize: 0x234 }
  - { offsetInCU: 0x21C96, offset: 0x21C96, size: 0x8, addend: 0x0, symName: __ZN4onnx10MakeStringIJA48_cNSt3__112basic_stringIcNS2_11char_traitsIcEENS2_9allocatorIcEEEEA4_cNS_9TypeProto9ValueCaseEEEES8_DpRKT_, symObjAddr: 0x14F4, symBinAddr: 0xB8D36C, symSize: 0x214 }
  - { offsetInCU: 0x22F11, offset: 0x22F11, size: 0x8, addend: 0x0, symName: __ZN4onnx10MakeStringIJA28_cNSt3__112basic_stringIcNS2_11char_traitsIcEENS2_9allocatorIcEEEEA52_cEEES8_DpRKT_, symObjAddr: 0x2EDC, symBinAddr: 0xB8ED54, symSize: 0x1FC }
  - { offsetInCU: 0x2373E, offset: 0x2373E, size: 0x8, addend: 0x0, symName: __ZN4onnx10MakeStringIJA27_cNSt3__112basic_stringIcNS2_11char_traitsIcEENS2_9allocatorIcEEEEA41_cEEES8_DpRKT_, symObjAddr: 0x34D0, symBinAddr: 0xB8F348, symSize: 0x1FC }
  - { offsetInCU: 0x23F6B, offset: 0x23F6B, size: 0x8, addend: 0x0, symName: __ZN4onnx10MakeStringIJA22_ciA30_cA12_cA15_cPKcA2_cEEENSt3__112basic_stringIcNS8_11char_traitsIcEENS8_9allocatorIcEEEEDpRKT_, symObjAddr: 0x3938, symBinAddr: 0xB8F7B0, symSize: 0x26C }
  - { offsetInCU: 0x24AB8, offset: 0x24AB8, size: 0x8, addend: 0x0, symName: __ZN4onnx10MakeStringIJA22_ciA30_cA11_cA15_cPKcA2_cEEENSt3__112basic_stringIcNS8_11char_traitsIcEENS8_9allocatorIcEEEEDpRKT_, symObjAddr: 0x36CC, symBinAddr: 0xB8F544, symSize: 0x26C }
  - { offsetInCU: 0x25605, offset: 0x25605, size: 0x8, addend: 0x0, symName: __ZN4onnx10MakeStringIJA8_cA10_cA7_cS3_A27_cEEENSt3__112basic_stringIcNS5_11char_traitsIcEENS5_9allocatorIcEEEEDpRKT_, symObjAddr: 0x2370, symBinAddr: 0xB8E1E8, symSize: 0x234 }
  - { offsetInCU: 0x25FDD, offset: 0x25FDD, size: 0x8, addend: 0x0, symName: __ZN4onnx10MakeStringIJA39_cNSt3__112basic_stringIcNS2_11char_traitsIcEENS2_9allocatorIcEEEEA30_cEEES8_DpRKT_, symObjAddr: 0x25A4, symBinAddr: 0xB8E41C, symSize: 0x1FC }
  - { offsetInCU: 0x2680A, offset: 0x2680A, size: 0x8, addend: 0x0, symName: __ZN4onnx10MakeStringIJA36_cNSt3__112basic_stringIcNS2_11char_traitsIcEENS2_9allocatorIcEEEEA55_cPKcEEES8_DpRKT_, symObjAddr: 0x27A0, symBinAddr: 0xB8E618, symSize: 0x224 }
  - { offsetInCU: 0x2711B, offset: 0x2711B, size: 0x8, addend: 0x0, symName: __ZN4onnx10MakeStringIJA27_cNSt3__112basic_stringIcNS2_11char_traitsIcEENS2_9allocatorIcEEEEA47_cEEES8_DpRKT_, symObjAddr: 0x32D4, symBinAddr: 0xB8F14C, symSize: 0x1FC }
  - { offsetInCU: 0x27948, offset: 0x27948, size: 0x8, addend: 0x0, symName: __ZN4onnx10MakeStringIJA27_cNSt3__112basic_stringIcNS2_11char_traitsIcEENS2_9allocatorIcEEEEA34_cEEES8_DpRKT_, symObjAddr: 0x30D8, symBinAddr: 0xB8EF50, symSize: 0x1FC }
  - { offsetInCU: 0x28175, offset: 0x28175, size: 0x8, addend: 0x0, symName: __ZN4onnx10MakeStringIJA38_cNSt3__112basic_stringIcNS2_11char_traitsIcEENS2_9allocatorIcEEEEA4_ciEEES8_DpRKT_, symObjAddr: 0x3BA4, symBinAddr: 0xB8FA1C, symSize: 0x214 }
  - { offsetInCU: 0x28DED, offset: 0x28DED, size: 0x8, addend: 0x0, symName: __ZN4onnx10MakeStringIJA49_cNSt3__112basic_stringIcNS2_11char_traitsIcEENS2_9allocatorIcEEEEA58_cS8_EEES8_DpRKT_, symObjAddr: 0x10378, symBinAddr: 0xB973A4, symSize: 0x228 }
  - { offsetInCU: 0x2972A, offset: 0x2972A, size: 0x8, addend: 0x0, symName: __ZN4onnx10MakeStringIJA36_cNSt3__112basic_stringIcNS2_11char_traitsIcEENS2_9allocatorIcEEEEA23_cS8_A45_cEEES8_DpRKT_, symObjAddr: 0x1082C, symBinAddr: 0xB97858, symSize: 0x244 }
  - { offsetInCU: 0x2A132, offset: 0x2A132, size: 0x8, addend: 0x0, symName: __ZN4onnx10MakeStringIJA36_cNSt3__112basic_stringIcNS2_11char_traitsIcEENS2_9allocatorIcEEEEA23_cS8_A30_cEEES8_DpRKT_, symObjAddr: 0x10A70, symBinAddr: 0xB97A9C, symSize: 0x244 }
  - { offsetInCU: 0x2AB3A, offset: 0x2AB3A, size: 0x8, addend: 0x0, symName: __ZN4onnx10MakeStringIJA49_cNSt3__112basic_stringIcNS2_11char_traitsIcEENS2_9allocatorIcEEEEA23_cEEES8_DpRKT_, symObjAddr: 0x1017C, symBinAddr: 0xB971A8, symSize: 0x1FC }
  - { offsetInCU: 0x2B367, offset: 0x2B367, size: 0x8, addend: 0x0, symName: __ZN4onnx10MakeStringIJA36_cNSt3__112basic_stringIcNS2_11char_traitsIcEENS2_9allocatorIcEEEEA29_cS8_A12_cS8_A31_cEEES8_DpRKT_, symObjAddr: 0x105A0, symBinAddr: 0xB975CC, symSize: 0x28C }
  - { offsetInCU: 0x2C8F4, offset: 0x2C8F4, size: 0x8, addend: 0x0, symName: __ZN4onnx10MakeStringIJA16_cNSt3__112basic_stringIcNS2_11char_traitsIcEENS2_9allocatorIcEEEEA31_cEEES8_DpRKT_, symObjAddr: 0x7A7C, symBinAddr: 0xB91E24, symSize: 0x1FC }
  - { offsetInCU: 0x2D121, offset: 0x2D121, size: 0x8, addend: 0x0, symName: __ZN4onnx10MakeStringIJA8_cA7_cS2_A20_cA27_cEEENSt3__112basic_stringIcNS5_11char_traitsIcEENS5_9allocatorIcEEEEDpRKT_, symObjAddr: 0x7450, symBinAddr: 0xB917F8, symSize: 0x234 }
  - { offsetInCU: 0x2DAF9, offset: 0x2DAF9, size: 0x8, addend: 0x0, symName: __ZN4onnx10MakeStringIJA23_cNSt3__112basic_stringIcNS2_11char_traitsIcEENS2_9allocatorIcEEEEA20_cEEES8_DpRKT_, symObjAddr: 0x7684, symBinAddr: 0xB91A2C, symSize: 0x1FC }
  - { offsetInCU: 0x2E326, offset: 0x2E326, size: 0x8, addend: 0x0, symName: __ZN4onnx10MakeStringIJA16_cNSt3__112basic_stringIcNS2_11char_traitsIcEENS2_9allocatorIcEEEEA29_cEEES8_DpRKT_, symObjAddr: 0x7880, symBinAddr: 0xB91C28, symSize: 0x1FC }
  - { offsetInCU: 0x2EB53, offset: 0x2EB53, size: 0x8, addend: 0x0, symName: __ZN4onnx10MakeStringIJA16_cNSt3__112basic_stringIcNS2_11char_traitsIcEENS2_9allocatorIcEEEEA23_cEEES8_DpRKT_, symObjAddr: 0x8070, symBinAddr: 0xB92418, symSize: 0x1FC }
  - { offsetInCU: 0x2F380, offset: 0x2F380, size: 0x8, addend: 0x0, symName: __ZN4onnx10MakeStringIJA24_cNSt3__112basic_stringIcNS2_11char_traitsIcEENS2_9allocatorIcEEEES1_EEES8_DpRKT_, symObjAddr: 0x7C78, symBinAddr: 0xB92020, symSize: 0x1FC }
  - { offsetInCU: 0x2FBAD, offset: 0x2FBAD, size: 0x8, addend: 0x0, symName: __ZN4onnx10MakeStringIJA24_cNSt3__112basic_stringIcNS2_11char_traitsIcEENS2_9allocatorIcEEEEA25_cEEES8_DpRKT_, symObjAddr: 0x7E74, symBinAddr: 0xB9221C, symSize: 0x1FC }
  - { offsetInCU: 0x304D4, offset: 0x304D4, size: 0x8, addend: 0x0, symName: __ZN4onnx10MakeStringIJA16_cNSt3__112basic_stringIcNS2_11char_traitsIcEENS2_9allocatorIcEEEEA28_cmA23_cEEES8_DpRKT_, symObjAddr: 0x65DC, symBinAddr: 0xB90984, symSize: 0x230 }
  - { offsetInCU: 0x30E4E, offset: 0x30E4E, size: 0x8, addend: 0x0, symName: __ZN4onnx10MakeStringIJA16_cNSt3__112basic_stringIcNS2_11char_traitsIcEENS2_9allocatorIcEEEEA28_cmA20_cxA2_cEEES8_DpRKT_, symObjAddr: 0x6378, symBinAddr: 0xB90720, symSize: 0x264 }
  - { offsetInCU: 0x31931, offset: 0x31931, size: 0x8, addend: 0x0, symName: __ZN4onnx10MakeStringIJA24_cNSt3__112basic_stringIcNS2_11char_traitsIcEENS2_9allocatorIcEEEEA7_cxA21_cmEEES8_DpRKT_, symObjAddr: 0x6130, symBinAddr: 0xB904D8, symSize: 0x248 }
  - { offsetInCU: 0x329F7, offset: 0x329F7, size: 0x8, addend: 0x0, symName: __ZN4onnx10MakeStringIJA16_cNSt3__112basic_stringIcNS2_11char_traitsIcEENS2_9allocatorIcEEEEA28_cmA2_ciS1_EEES8_DpRKT_, symObjAddr: 0x6FBC, symBinAddr: 0xB91364, symSize: 0x264 }
  - { offsetInCU: 0x334DA, offset: 0x334DA, size: 0x8, addend: 0x0, symName: __ZN4onnx10MakeStringIJA24_cNSt3__112basic_stringIcNS2_11char_traitsIcEENS2_9allocatorIcEEEEA43_cEEES8_DpRKT_, symObjAddr: 0x6BC4, symBinAddr: 0xB90F6C, symSize: 0x1FC }
  - { offsetInCU: 0x33D07, offset: 0x33D07, size: 0x8, addend: 0x0, symName: __ZN4onnx10MakeStringIJA24_cNSt3__112basic_stringIcNS2_11char_traitsIcEENS2_9allocatorIcEEEEA55_cEEES8_DpRKT_, symObjAddr: 0x6DC0, symBinAddr: 0xB91168, symSize: 0x1FC }
  - { offsetInCU: 0x34534, offset: 0x34534, size: 0x8, addend: 0x0, symName: __ZN4onnx10MakeStringIJA16_cNSt3__112basic_stringIcNS2_11char_traitsIcEENS2_9allocatorIcEEEEA28_cmA37_cEEES8_DpRKT_, symObjAddr: 0x7220, symBinAddr: 0xB915C8, symSize: 0x230 }
  - { offsetInCU: 0x35908, offset: 0x35908, size: 0x8, addend: 0x0, symName: __ZN4onnx10MakeStringIJA8_cA5_cA7_cS2_A31_cEEENSt3__112basic_stringIcNS5_11char_traitsIcEENS5_9allocatorIcEEEEDpRKT_, symObjAddr: 0x900C, symBinAddr: 0xB933B4, symSize: 0x234 }
  - { offsetInCU: 0x362E0, offset: 0x362E0, size: 0x8, addend: 0x0, symName: __ZN4onnx10MakeStringIJA8_cA5_cA7_cS2_A27_cEEENSt3__112basic_stringIcNS5_11char_traitsIcEENS5_9allocatorIcEEEEDpRKT_, symObjAddr: 0x9240, symBinAddr: 0xB935E8, symSize: 0x234 }
  - { offsetInCU: 0x36CB8, offset: 0x36CB8, size: 0x8, addend: 0x0, symName: __ZN4onnx10MakeStringIJA18_cNSt3__112basic_stringIcNS2_11char_traitsIcEENS2_9allocatorIcEEEEA48_cEEES8_DpRKT_, symObjAddr: 0x9670, symBinAddr: 0xB93A18, symSize: 0x1FC }
  - { offsetInCU: 0x374E5, offset: 0x374E5, size: 0x8, addend: 0x0, symName: __ZN4onnx10MakeStringIJA49_cNSt3__112basic_stringIcNS2_11char_traitsIcEENS2_9allocatorIcEEEEA2_cEEES8_DpRKT_, symObjAddr: 0x9474, symBinAddr: 0xB9381C, symSize: 0x1FC }
  - { offsetInCU: 0x37D12, offset: 0x37D12, size: 0x8, addend: 0x0, symName: __ZN4onnx10MakeStringIJA18_cNSt3__112basic_stringIcNS2_11char_traitsIcEENS2_9allocatorIcEEEEA44_cEEES8_DpRKT_, symObjAddr: 0x986C, symBinAddr: 0xB93C14, symSize: 0x1FC }
  - { offsetInCU: 0x38B78, offset: 0x38B78, size: 0x8, addend: 0x0, symName: __ZN4onnx10MakeStringIJA12_cNSt3__112basic_stringIcNS2_11char_traitsIcEENS2_9allocatorIcEEEEA27_cEEES8_DpRKT_, symObjAddr: 0xB9E8, symBinAddr: 0xB95C10, symSize: 0x1FC }
  - { offsetInCU: 0x38B92, offset: 0x38B92, size: 0x8, addend: 0x0, symName: __ZN4onnx10MakeStringIJA8_cA5_cA7_cA6_cA31_cEEENSt3__112basic_stringIcNS6_11char_traitsIcEENS6_9allocatorIcEEEEDpRKT_, symObjAddr: 0xBD80, symBinAddr: 0xB95F40, symSize: 0x234 }
  - { offsetInCU: 0x3956A, offset: 0x3956A, size: 0x8, addend: 0x0, symName: __ZN4onnx10MakeStringIJA64_cNSt3__112basic_stringIcNS2_11char_traitsIcEENS2_9allocatorIcEEEEA48_cEEES8_DpRKT_, symObjAddr: 0xCA08, symBinAddr: 0xB96AD4, symSize: 0x1FC }
  - { offsetInCU: 0x39D97, offset: 0x39D97, size: 0x8, addend: 0x0, symName: __ZN4onnx10MakeStringIJA63_cNSt3__112basic_stringIcNS2_11char_traitsIcEENS2_9allocatorIcEEEEA13_cA7_cS8_A10_cS8_A39_cEEES8_DpRKT_, symObjAddr: 0xC568, symBinAddr: 0xB96640, symSize: 0x1F0 }
  - { offsetInCU: 0x3A440, offset: 0x3A440, size: 0x8, addend: 0x0, symName: __ZN4onnx10MakeStringIJA64_cNSt3__112basic_stringIcNS2_11char_traitsIcEENS2_9allocatorIcEEEEA53_cEEES8_DpRKT_, symObjAddr: 0xBFB4, symBinAddr: 0xB96174, symSize: 0x1FC }
  - { offsetInCU: 0x3AC6D, offset: 0x3AC6D, size: 0x8, addend: 0x0, symName: __ZN4onnx10MakeStringEPKc, symObjAddr: 0xC1B0, symBinAddr: 0xB96370, symSize: 0x9C }
  - { offsetInCU: 0x3B000, offset: 0x3B000, size: 0x8, addend: 0x0, symName: __ZN4onnx10MakeStringIJA8_cA5_cA7_cS3_A27_cEEENSt3__112basic_stringIcNS5_11char_traitsIcEENS5_9allocatorIcEEEEDpRKT_, symObjAddr: 0xC334, symBinAddr: 0xB9640C, symSize: 0x234 }
  - { offsetInCU: 0x3B9D8, offset: 0x3B9D8, size: 0x8, addend: 0x0, symName: __ZN4onnx10MakeStringIJA15_cNSt3__112basic_stringIcNS2_11char_traitsIcEENS2_9allocatorIcEEEEA41_cEEES8_DpRKT_, symObjAddr: 0xCC04, symBinAddr: 0xB96CD0, symSize: 0x1FC }
  - { offsetInCU: 0x3C205, offset: 0x3C205, size: 0x8, addend: 0x0, symName: __ZN4onnx10MakeStringIJA8_cS1_A7_cA5_cA31_cEEENSt3__112basic_stringIcNS5_11char_traitsIcEENS5_9allocatorIcEEEEDpRKT_, symObjAddr: 0xB4D0, symBinAddr: 0xB95798, symSize: 0x234 }
  - { offsetInCU: 0x3CBDD, offset: 0x3CBDD, size: 0x8, addend: 0x0, symName: __ZN4onnx10MakeStringIJA12_cNSt3__112basic_stringIcNS2_11char_traitsIcEENS2_9allocatorIcEEEEA27_cEEES8_DpRKT_, symObjAddr: 0xB9E8, symBinAddr: 0xB95C10, symSize: 0x1FC }
  - { offsetInCU: 0x3D40A, offset: 0x3D40A, size: 0x8, addend: 0x0, symName: __ZN4onnx10MakeStringIJA18_cNSt3__112basic_stringIcNS2_11char_traitsIcEENS2_9allocatorIcEEEEA9_cS8_A34_cEEES8_DpRKT_, symObjAddr: 0xB704, symBinAddr: 0xB959CC, symSize: 0x244 }
  - { offsetInCU: 0x3E3C8, offset: 0x3E3C8, size: 0x8, addend: 0x0, symName: __ZN4onnx18MakeStringInternalIA63_cJNSt3__112basic_stringIcNS2_11char_traitsIcEENS2_9allocatorIcEEEEA13_cA7_cS8_A10_cS8_A39_cEEEvRNS2_18basic_stringstreamIcS5_S7_EERKT_DpRKT0_, symObjAddr: 0x13E3C, symBinAddr: 0xB98490, symSize: 0x130 }
  - { offsetInCU: 0x3EAF2, offset: 0x3EAF2, size: 0x8, addend: 0x0, symName: __ZN4onnx10MakeStringIJPKcA16_cNSt3__112basic_stringIcNS4_11char_traitsIcEENS4_9allocatorIcEEEEEEESA_DpRKT_, symObjAddr: 0x115A8, symBinAddr: 0xB97E50, symSize: 0x200 }
  - { offsetInCU: 0x4093E, offset: 0x4093E, size: 0x8, addend: 0x0, symName: __ZN4onnx17LoadProtoFromPathINS_10ModelProtoEEEvNSt3__112basic_stringIcNS2_11char_traitsIcEENS2_9allocatorIcEEEERT_, symObjAddr: 0xFD38, symBinAddr: 0xB96ECC, symSize: 0x2DC }
  - { offsetInCU: 0x41578, offset: 0x41578, size: 0x8, addend: 0x0, symName: __ZN4onnx19ParseProtoFromBytesINS_10ModelProtoEEEbPT_PKcm, symObjAddr: 0x143B4, symBinAddr: 0xB988D8, symSize: 0xD8 }
  - { offsetInCU: 0x41646, offset: 0x41646, size: 0x8, addend: 0x0, symName: __ZN4onnx10MakeStringIJA28_cNSt3__112basic_stringIcNS2_11char_traitsIcEENS2_9allocatorIcEEEEA40_cEEES8_DpRKT_, symObjAddr: 0x141B8, symBinAddr: 0xB986DC, symSize: 0x1FC }
  - { offsetInCU: 0x41E73, offset: 0x41E73, size: 0x8, addend: 0x0, symName: __ZN4onnx10MakeStringIJA34_cNSt3__112basic_stringIcNS2_11char_traitsIcEENS2_9allocatorIcEEEEA57_cEEES8_DpRKT_, symObjAddr: 0x1448C, symBinAddr: 0xB989B0, symSize: 0x1FC }
  - { offsetInCU: 0x7FBDE, offset: 0x7FBDE, size: 0x8, addend: 0x0, symName: __ZN4onnx10MakeStringIJA8_cA5_cA7_cS3_A27_cEEENSt3__112basic_stringIcNS5_11char_traitsIcEENS5_9allocatorIcEEEEDpRKT_, symObjAddr: 0xC334, symBinAddr: 0xB9640C, symSize: 0x234 }
  - { offsetInCU: 0xA25E8, offset: 0xA25E8, size: 0x8, addend: 0x0, symName: __ZN4onnx7checker15ValidationErrorD1Ev, symObjAddr: 0x9B0, symBinAddr: 0xB8C828, symSize: 0x40 }
  - { offsetInCU: 0xA3AED, offset: 0xA3AED, size: 0x8, addend: 0x0, symName: __ZN4onnx7checker14CheckerContextC1ERKS1_, symObjAddr: 0x9A68, symBinAddr: 0xB93E10, symSize: 0xEC }
  - { offsetInCU: 0xA4562, offset: 0xA4562, size: 0x8, addend: 0x0, symName: __ZN4onnx7checker14CheckerContextC1ERKS1_.cold.2, symObjAddr: 0x1549C, symBinAddr: 0x11654E4, symSize: 0x40 }
  - { offsetInCU: 0xA4899, offset: 0xA4899, size: 0x8, addend: 0x0, symName: __ZN4onnx7checker14CheckerContextC1ERKS1_.cold.1, symObjAddr: 0x15484, symBinAddr: 0x11654CC, symSize: 0x18 }
  - { offsetInCU: 0xA5F3E, offset: 0xA5F3E, size: 0x8, addend: 0x0, symName: __ZNSt3__112__hash_tableINS_17reference_wrapperIKNS_12basic_stringIcNS_11char_traitsIcEENS_9allocatorIcEEEEEENS_4hashIS7_EENS_8equal_toIS7_EENS5_IS9_EEE25__emplace_unique_key_argsIS9_JS9_EEENS_4pairINS_15__hash_iteratorIPNS_11__hash_nodeIS9_PvEEEEbEERKT_DpOT0_, symObjAddr: 0x13850, symBinAddr: 0xB98050, symSize: 0x440 }
  - { offsetInCU: 0xA66D9, offset: 0xA66D9, size: 0x8, addend: 0x0, symName: '__ZZN4onnx7checker11check_graphERKNS_10GraphProtoERKNS0_14CheckerContextERKNS0_19LexicalScopeContextEENK3$_0clEv', symObjAddr: 0xC758, symBinAddr: 0xB96830, symSize: 0x2A4 }
  - { offsetInCU: 0xA84C8, offset: 0xA84C8, size: 0x8, addend: 0x0, symName: __ZN4onnx7checker15ValidationErrorC1ERKS1_, symObjAddr: 0x114D8, symBinAddr: 0xB97D80, symSize: 0xD0 }
  - { offsetInCU: 0xA948C, offset: 0xA948C, size: 0x8, addend: 0x0, symName: __ZNSt3__113basic_fstreamIcNS_11char_traitsIcEEEC1B8ue170006ERKNS_4__fs10filesystem4pathEj, symObjAddr: 0x1409C, symBinAddr: 0xB985C0, symSize: 0x11C }
  - { offsetInCU: 0xA9631, offset: 0xA9631, size: 0x8, addend: 0x0, symName: __ZNSt3__112basic_stringIcNS_11char_traitsIcEENS_9allocatorIcEEE20__init_with_sentinelB8ue170006INS_19istreambuf_iteratorIcS2_EES8_EEvT_T0_, symObjAddr: 0x14C0C, symBinAddr: 0xB98BAC, symSize: 0x14C }
  - { offsetInCU: 0xA9970, offset: 0xA9970, size: 0x8, addend: 0x0, symName: __ZNSt3__13setINS_12basic_stringIcNS_11char_traitsIcEENS_9allocatorIcEEEENS_4lessIS6_EENS4_IS6_EEED1B8ue170006Ev, symObjAddr: 0x10CB4, symBinAddr: 0xB97CE0, symSize: 0x28 }
  - { offsetInCU: 0xA9BB5, offset: 0xA9BB5, size: 0x8, addend: 0x0, symName: __ZN4onnx7checker15ValidationErrorD0Ev, symObjAddr: 0x10CDC, symBinAddr: 0xB97D08, symSize: 0x48 }
  - { offsetInCU: 0xA9D21, offset: 0xA9D21, size: 0x8, addend: 0x0, symName: __ZNK4onnx7checker15ValidationError4whatEv, symObjAddr: 0x10D24, symBinAddr: 0xB97D50, symSize: 0x30 }
  - { offsetInCU: 0xACAEB, offset: 0xACAEB, size: 0x8, addend: 0x0, symName: __ZN4onnx18MakeStringInternalIA63_cJNSt3__112basic_stringIcNS2_11char_traitsIcEENS2_9allocatorIcEEEEA13_cA7_cS8_A10_cS8_A39_cEEEvRNS2_18basic_stringstreamIcS5_S7_EERKT_DpRKT0_, symObjAddr: 0x13E3C, symBinAddr: 0xB98490, symSize: 0x130 }
  - { offsetInCU: 0x26, offset: 0xAD0CD, size: 0x8, addend: 0x0, symName: __ZN4onnx4barfEPKcz, symObjAddr: 0x0, symBinAddr: 0xB99204, symSize: 0xF0 }
  - { offsetInCU: 0x2BE4, offset: 0xAFC8B, size: 0x8, addend: 0x0, symName: __ZN4onnx4barfEPKcz, symObjAddr: 0x0, symBinAddr: 0xB99204, symSize: 0xF0 }
  - { offsetInCU: 0x2F9E, offset: 0xB0045, size: 0x8, addend: 0x0, symName: __ZN4onnx18throw_assert_errorERNSt3__112basic_stringIcNS0_11char_traitsIcEENS0_9allocatorIcEEEE, symObjAddr: 0xF0, symBinAddr: 0xB992F4, symSize: 0x50 }
  - { offsetInCU: 0x50DE, offset: 0xB2185, size: 0x8, addend: 0x0, symName: __ZN4onnx12assert_errorC1ERKNSt3__112basic_stringIcNS1_11char_traitsIcEENS1_9allocatorIcEEEE, symObjAddr: 0x140, symBinAddr: 0xB99344, symSize: 0x20 }
  - { offsetInCU: 0x5181, offset: 0xB2228, size: 0x8, addend: 0x0, symName: __ZN4onnx12assert_errorD1Ev, symObjAddr: 0x160, symBinAddr: 0xB99364, symSize: 0x4 }
  - { offsetInCU: 0x51A3, offset: 0xB224A, size: 0x8, addend: 0x0, symName: __ZN4onnx12assert_errorD1Ev, symObjAddr: 0x160, symBinAddr: 0xB99364, symSize: 0x4 }
  - { offsetInCU: 0x523A, offset: 0xB22E1, size: 0x8, addend: 0x0, symName: __ZN4onnx12assert_errorD0Ev, symObjAddr: 0x260, symBinAddr: 0xB99368, symSize: 0x14 }
  - { offsetInCU: 0x26, offset: 0xB23BE, size: 0x8, addend: 0x0, symName: __ZN4onnx9path_joinERKNSt3__112basic_stringIcNS0_11char_traitsIcEENS0_9allocatorIcEEEES8_, symObjAddr: 0x0, symBinAddr: 0xB9937C, symSize: 0x248 }
  - { offsetInCU: 0x46, offset: 0xB23DE, size: 0x8, addend: 0x0, symName: __ZN4onnx9path_joinERKNSt3__112basic_stringIcNS0_11char_traitsIcEENS0_9allocatorIcEEEES8_, symObjAddr: 0x0, symBinAddr: 0xB9937C, symSize: 0x248 }
  - { offsetInCU: 0xD88, offset: 0xB3120, size: 0x8, addend: 0x0, symName: __ZN4onnx19clean_relative_pathERKNSt3__112basic_stringIcNS0_11char_traitsIcEENS0_9allocatorIcEEEE, symObjAddr: 0x248, symBinAddr: 0xB995C4, symSize: 0x46C }
  - { offsetInCU: 0x26, offset: 0xB9171, size: 0x8, addend: 0x0, symName: __ZN4onnx6Common6StatusC2ENS0_14StatusCategoryEiRKNSt3__112basic_stringIcNS3_11char_traitsIcEENS3_9allocatorIcEEEE, symObjAddr: 0x0, symBinAddr: 0xB99A30, symSize: 0x138 }
  - { offsetInCU: 0x4DD5, offset: 0xBDF20, size: 0x8, addend: 0x0, symName: __ZN4onnx6Common6Status2OKEv, symObjAddr: 0x6B0, symBinAddr: 0xB99C54, symSize: 0x80 }
  - { offsetInCU: 0x4DF7, offset: 0xBDF42, size: 0x8, addend: 0x0, symName: __MergedGlobals, symObjAddr: 0x21510, symBinAddr: 0x14FE0D0, symSize: 0x0 }
  - { offsetInCU: 0x7250, offset: 0xC039B, size: 0x8, addend: 0x0, symName: __ZN4onnx6Common6StatusC2ENS0_14StatusCategoryEiRKNSt3__112basic_stringIcNS3_11char_traitsIcEENS3_9allocatorIcEEEE, symObjAddr: 0x0, symBinAddr: 0xB99A30, symSize: 0x138 }
  - { offsetInCU: 0x77DA, offset: 0xC0925, size: 0x8, addend: 0x0, symName: __ZNSt3__110unique_ptrIN4onnx6Common6Status5StateENS_14default_deleteIS4_EEED1B8ue170006Ev, symObjAddr: 0x138, symBinAddr: 0xB99B68, symSize: 0x44 }
  - { offsetInCU: 0x7AE1, offset: 0xC0C2C, size: 0x8, addend: 0x0, symName: __ZN4onnx6Common6StatusC1ENS0_14StatusCategoryEiRKNSt3__112basic_stringIcNS3_11char_traitsIcEENS3_9allocatorIcEEEE, symObjAddr: 0x17C, symBinAddr: 0xB99BAC, symSize: 0x4 }
  - { offsetInCU: 0x7B19, offset: 0xC0C64, size: 0x8, addend: 0x0, symName: __ZN4onnx6Common6StatusC1ENS0_14StatusCategoryEiRKNSt3__112basic_stringIcNS3_11char_traitsIcEENS3_9allocatorIcEEEE, symObjAddr: 0x17C, symBinAddr: 0xB99BAC, symSize: 0x4 }
  - { offsetInCU: 0x7BAC, offset: 0xC0CF7, size: 0x8, addend: 0x0, symName: __ZNK4onnx6Common6Status4IsOKEv, symObjAddr: 0x350, symBinAddr: 0xB99BB0, symSize: 0x10 }
  - { offsetInCU: 0x7BD0, offset: 0xC0D1B, size: 0x8, addend: 0x0, symName: __ZNK4onnx6Common6Status4IsOKEv, symObjAddr: 0x350, symBinAddr: 0xB99BB0, symSize: 0x10 }
  - { offsetInCU: 0x7BF2, offset: 0xC0D3D, size: 0x8, addend: 0x0, symName: __ZNK4onnx6Common6Status4IsOKEv, symObjAddr: 0x350, symBinAddr: 0xB99BB0, symSize: 0x10 }
  - { offsetInCU: 0x7C2A, offset: 0xC0D75, size: 0x8, addend: 0x0, symName: __ZNK4onnx6Common6Status12ErrorMessageEv, symObjAddr: 0x390, symBinAddr: 0xB99BC0, symSize: 0x94 }
  - { offsetInCU: 0x26, offset: 0xC0EE6, size: 0x8, addend: 0x0, symName: __ZN4onnx13MakeAttributeERKNSt3__112basic_stringIcNS0_11char_traitsIcEENS0_9allocatorIcEEEERKf, symObjAddr: 0x0, symBinAddr: 0xB99CD4, symSize: 0x98 }
  - { offsetInCU: 0x14A3A, offset: 0xD58FA, size: 0x8, addend: 0x0, symName: __ZN4onnx13MakeAttributeERKNSt3__112basic_stringIcNS0_11char_traitsIcEENS0_9allocatorIcEEEERKf, symObjAddr: 0x0, symBinAddr: 0xB99CD4, symSize: 0x98 }
  - { offsetInCU: 0x14BAF, offset: 0xD5A6F, size: 0x8, addend: 0x0, symName: __ZN4onnx13MakeAttributeERKNSt3__112basic_stringIcNS0_11char_traitsIcEENS0_9allocatorIcEEEERKx, symObjAddr: 0x98, symBinAddr: 0xB99D6C, symSize: 0x9C }
  - { offsetInCU: 0x14D22, offset: 0xD5BE2, size: 0x8, addend: 0x0, symName: __ZN4onnx13MakeAttributeERKNSt3__112basic_stringIcNS0_11char_traitsIcEENS0_9allocatorIcEEEERKNS_11TensorProtoE, symObjAddr: 0x1E8, symBinAddr: 0xB99E08, symSize: 0xC0 }
  - { offsetInCU: 0x14F2E, offset: 0xD5DEE, size: 0x8, addend: 0x0, symName: __ZN4onnx13MakeAttributeERKNSt3__112basic_stringIcNS0_11char_traitsIcEENS0_9allocatorIcEEEERKNS_10GraphProtoE, symObjAddr: 0x2A8, symBinAddr: 0xB99EC8, symSize: 0xC0 }
  - { offsetInCU: 0x1513A, offset: 0xD5FFA, size: 0x8, addend: 0x0, symName: __ZN4onnx13MakeAttributeERKNSt3__112basic_stringIcNS0_11char_traitsIcEENS0_9allocatorIcEEEERKNS0_6vectorIxNS4_IxEEEE, symObjAddr: 0x524, symBinAddr: 0xB99F88, symSize: 0xFC }
  - { offsetInCU: 0x15377, offset: 0xD6237, size: 0x8, addend: 0x0, symName: __ZN4onnx16MakeRefAttributeERKNSt3__112basic_stringIcNS0_11char_traitsIcEENS0_9allocatorIcEEEENS_28AttributeProto_AttributeTypeE, symObjAddr: 0xA44, symBinAddr: 0xB9A084, symSize: 0xB8 }
  - { offsetInCU: 0x9CCB, offset: 0xE27F9, size: 0x8, addend: 0x0, symName: __ZN4onnx11GetOpSchemaINS_13If_Onnx_ver21EEENS_8OpSchemaEv, symObjAddr: 0x0, symBinAddr: 0xB9A13C, symSize: 0x414 }
  - { offsetInCU: 0xB377, offset: 0xE3EA5, size: 0x8, addend: 0x0, symName: __ZN4onnxL23control_flow_types_ir10Ev, symObjAddr: 0x5C0, symBinAddr: 0xB9A550, symSize: 0x190 }
  - { offsetInCU: 0xBBFF, offset: 0xE472D, size: 0x8, addend: 0x0, symName: __ZN4onnx11GetOpSchemaINS_15Loop_Onnx_ver21EEENS_8OpSchemaEv, symObjAddr: 0x7C4, symBinAddr: 0xB9A6E0, symSize: 0x468 }
  - { offsetInCU: 0xD304, offset: 0xE5E32, size: 0x8, addend: 0x0, symName: __ZN4onnx11GetOpSchemaINS_15Scan_Onnx_ver21EEENS_8OpSchemaEv, symObjAddr: 0xC2C, symBinAddr: 0xB9AB48, symSize: 0x430 }
  - { offsetInCU: 0x3251A, offset: 0x10B048, size: 0x8, addend: 0x0, symName: __ZN4onnx8OpSchema30all_tensor_sequence_types_ir10Ev, symObjAddr: 0x1DD0, symBinAddr: 0xB9B684, symSize: 0x70C }
  - { offsetInCU: 0x3253B, offset: 0x10B069, size: 0x8, addend: 0x0, symName: __ZZN4onnx8OpSchema30all_tensor_sequence_types_ir10EvE30all_tensor_sequence_types_ir10, symObjAddr: 0xC020, symBinAddr: 0x14F8CD8, symSize: 0x0 }
  - { offsetInCU: 0x32A1B, offset: 0x10B549, size: 0x8, addend: 0x0, symName: __ZN4onnx8OpSchema23all_optional_types_ir10Ev, symObjAddr: 0x24DC, symBinAddr: 0xB9BD90, symSize: 0xB6C }
  - { offsetInCU: 0x32A3C, offset: 0x10B56A, size: 0x8, addend: 0x0, symName: __ZZN4onnx8OpSchema23all_optional_types_ir10EvE18all_optional_types, symObjAddr: 0xC040, symBinAddr: 0x14F8CF8, symSize: 0x0 }
  - { offsetInCU: 0x3305D, offset: 0x10BB8B, size: 0x8, addend: 0x0, symName: __ZN4onnx8OpSchema21all_tensor_types_ir10Ev, symObjAddr: 0x105C, symBinAddr: 0xB9AF78, symSize: 0x70C }
  - { offsetInCU: 0x3307E, offset: 0x10BBAC, size: 0x8, addend: 0x0, symName: __ZZN4onnx8OpSchema21all_tensor_types_ir10EvE21all_tensor_types_ir10, symObjAddr: 0xC060, symBinAddr: 0x14F8D18, symSize: 0x0 }
  - { offsetInCU: 0x38C30, offset: 0x11175E, size: 0x8, addend: 0x0, symName: __ZN4onnxL23control_flow_types_ir10Ev, symObjAddr: 0x5C0, symBinAddr: 0xB9A550, symSize: 0x190 }
  - { offsetInCU: 0xA488, offset: 0x128294, size: 0x8, addend: 0x0, symName: __ZN4onnx11GetOpSchemaINS_13If_Onnx_ver19EEENS_8OpSchemaEv, symObjAddr: 0x0, symBinAddr: 0xB9C8FC, symSize: 0x410 }
  - { offsetInCU: 0xBB54, offset: 0x129960, size: 0x8, addend: 0x0, symName: __ZN4onnxL22control_flow_types_ir9Ev, symObjAddr: 0x5BC, symBinAddr: 0xB9CD0C, symSize: 0x190 }
  - { offsetInCU: 0xC3DC, offset: 0x12A1E8, size: 0x8, addend: 0x0, symName: __ZN4onnx11GetOpSchemaINS_13If_Onnx_ver16EEENS_8OpSchemaEv, symObjAddr: 0x7C0, symBinAddr: 0xB9CE9C, symSize: 0x410 }
  - { offsetInCU: 0xDAA8, offset: 0x12B8B4, size: 0x8, addend: 0x0, symName: __ZN4onnxL22control_flow_types_ir4Ev, symObjAddr: 0xBD0, symBinAddr: 0xB9D2AC, symSize: 0x190 }
  - { offsetInCU: 0xE330, offset: 0x12C13C, size: 0x8, addend: 0x0, symName: __ZN4onnx11GetOpSchemaINS_15Loop_Onnx_ver19EEENS_8OpSchemaEv, symObjAddr: 0xD60, symBinAddr: 0xB9D43C, symSize: 0x464 }
  - { offsetInCU: 0xFA64, offset: 0x12D870, size: 0x8, addend: 0x0, symName: __ZN4onnx11GetOpSchemaINS_15Loop_Onnx_ver16EEENS_8OpSchemaEv, symObjAddr: 0x11C4, symBinAddr: 0xB9D8A0, symSize: 0x464 }
  - { offsetInCU: 0x11198, offset: 0x12EFA4, size: 0x8, addend: 0x0, symName: __ZN4onnx11GetOpSchemaINS_15Scan_Onnx_ver19EEENS_8OpSchemaEv, symObjAddr: 0x1628, symBinAddr: 0xB9DD04, symSize: 0x430 }
  - { offsetInCU: 0x128B8, offset: 0x1306C4, size: 0x8, addend: 0x0, symName: __ZN4onnx11GetOpSchemaINS_15Scan_Onnx_ver16EEENS_8OpSchemaEv, symObjAddr: 0x20D8, symBinAddr: 0xB9E134, symSize: 0x430 }
  - { offsetInCU: 0x1407C, offset: 0x131E88, size: 0x8, addend: 0x0, symName: __ZN4onnx27ScanInferenceFunctionOpset8ERNS_16InferenceContextE, symObjAddr: 0x2A70, symBinAddr: 0xB9E564, symSize: 0xF88 }
  - { offsetInCU: 0x17FBD, offset: 0x135DC9, size: 0x8, addend: 0x0, symName: __ZN4onnx25RemoveDimensionsFromShapeERKNS_9TypeProtoEi, symObjAddr: 0x3D44, symBinAddr: 0xB9F7F8, symSize: 0x1C8 }
  - { offsetInCU: 0x18813, offset: 0x13661F, size: 0x8, addend: 0x0, symName: __ZN4onnx10MakeStringIJA22_cA12_cmA19_cEEENSt3__112basic_stringIcNS4_11char_traitsIcEENS4_9allocatorIcEEEEDpRKT_, symObjAddr: 0x3AF8, symBinAddr: 0xB9F5EC, symSize: 0x20C }
  - { offsetInCU: 0x19090, offset: 0x136E9C, size: 0x8, addend: 0x0, symName: __ZN4onnx10MakeStringIJA22_cA63_cmA9_cEEENSt3__112basic_stringIcNS4_11char_traitsIcEENS4_9allocatorIcEEEEDpRKT_, symObjAddr: 0x4314, symBinAddr: 0xB9FBDC, symSize: 0x20C }
  - { offsetInCU: 0x1990D, offset: 0x137719, size: 0x8, addend: 0x0, symName: __ZN4onnx10MakeStringIJA22_cA59_cmA20_cmEEENSt3__112basic_stringIcNS4_11char_traitsIcEENS4_9allocatorIcEEEEDpRKT_, symObjAddr: 0x40F8, symBinAddr: 0xB9F9C0, symSize: 0x21C }
  - { offsetInCU: 0x1ACC6, offset: 0x138AD2, size: 0x8, addend: 0x0, symName: __ZN4onnx36handle_negative_axis_validate_opset9ERKNSt3__112basic_stringIcNS0_11char_traitsIcEENS0_9allocatorIcEEEEii, symObjAddr: 0x4578, symBinAddr: 0xB9FDE8, symSize: 0x12C }
  - { offsetInCU: 0x1AF06, offset: 0x138D12, size: 0x8, addend: 0x0, symName: __ZN4onnx10MakeStringIJA23_cNSt3__112basic_stringIcNS2_11char_traitsIcEENS2_9allocatorIcEEEEA13_ciA34_ciEEES8_DpRKT_, symObjAddr: 0x46A4, symBinAddr: 0xB9FF14, symSize: 0x248 }
  - { offsetInCU: 0x1BC29, offset: 0x139A35, size: 0x8, addend: 0x0, symName: __ZN4onnx27ScanInferenceFunctionOpset9ERNS_16InferenceContextE, symObjAddr: 0x48EC, symBinAddr: 0xBA015C, symSize: 0x1240 }
  - { offsetInCU: 0x2108A, offset: 0x13EE96, size: 0x8, addend: 0x0, symName: __ZN4onnx10MakeStringIJA23_cA38_cmA42_cmA3_cEEENSt3__112basic_stringIcNS5_11char_traitsIcEENS5_9allocatorIcEEEEDpRKT_, symObjAddr: 0x5B2C, symBinAddr: 0xBA139C, symSize: 0x240 }
  - { offsetInCU: 0x21A62, offset: 0x13F86E, size: 0x8, addend: 0x0, symName: __ZN4onnx10MakeStringIJA23_cA39_cmA43_cmA3_cEEENSt3__112basic_stringIcNS5_11char_traitsIcEENS5_9allocatorIcEEEEDpRKT_, symObjAddr: 0x61CC, symBinAddr: 0xBA15DC, symSize: 0x240 }
  - { offsetInCU: 0x2243A, offset: 0x140246, size: 0x8, addend: 0x0, symName: __ZN4onnx27RemoveIthDimensionFromShapeERKNS_9TypeProtoEi, symObjAddr: 0x640C, symBinAddr: 0xBA181C, symSize: 0x1DC }
  - { offsetInCU: 0x22DFA, offset: 0x140C06, size: 0x8, addend: 0x0, symName: __ZN4onnx11GetOpSchemaINS_14Scan_Onnx_ver8EEENS_8OpSchemaEv, symObjAddr: 0x65E8, symBinAddr: 0xBA19F8, symSize: 0x418 }
  - { offsetInCU: 0x244AE, offset: 0x1422BA, size: 0x8, addend: 0x0, symName: __ZN4onnx27LoopInferenceFunctionOpset8ERNS_16InferenceContextE, symObjAddr: 0x6F24, symBinAddr: 0xBA1E10, symSize: 0xBB8 }
  - { offsetInCU: 0x27419, offset: 0x145225, size: 0x8, addend: 0x0, symName: __ZN4onnx10MakeStringIJA22_cA63_cmA6_cNS_9TypeProto9ValueCaseEEEENSt3__112basic_stringIcNS6_11char_traitsIcEENS6_9allocatorIcEEEEDpRKT_, symObjAddr: 0x7ADC, symBinAddr: 0xBA29C8, symSize: 0x21C }
  - { offsetInCU: 0x27EC5, offset: 0x145CD1, size: 0x8, addend: 0x0, symName: __ZN4onnx11GetOpSchemaINS_14Loop_Onnx_ver1EEENS_8OpSchemaEv, symObjAddr: 0x7CF8, symBinAddr: 0xBA2BE4, symSize: 0x444 }
  - { offsetInCU: 0x29579, offset: 0x147385, size: 0x8, addend: 0x0, symName: __ZN4onnx28LoopInferenceFunctionOpset11ERNS_16InferenceContextE, symObjAddr: 0x813C, symBinAddr: 0xBA3028, symSize: 0xBB8 }
  - { offsetInCU: 0x2C4CD, offset: 0x14A2D9, size: 0x8, addend: 0x0, symName: __ZN4onnx11GetOpSchemaINS_15Loop_Onnx_ver11EEENS_8OpSchemaEv, symObjAddr: 0x8CF4, symBinAddr: 0xBA3BE0, symSize: 0x444 }
  - { offsetInCU: 0x2DB81, offset: 0x14B98D, size: 0x8, addend: 0x0, symName: __ZN4onnx11GetOpSchemaINS_14Scan_Onnx_ver9EEENS_8OpSchemaEv, symObjAddr: 0x9138, symBinAddr: 0xBA4024, symSize: 0x410 }
  - { offsetInCU: 0x2F235, offset: 0x14D041, size: 0x8, addend: 0x0, symName: __ZN4onnx20IfInferenceFunction1ERNS_16InferenceContextE, symObjAddr: 0x9548, symBinAddr: 0xBA4434, symSize: 0x5F0 }
  - { offsetInCU: 0x30D71, offset: 0x14EB7D, size: 0x8, addend: 0x0, symName: __ZN4onnx10MakeStringIJA22_cA28_cmA7_cNS_9TypeProto9ValueCaseES3_S5_EEENSt3__112basic_stringIcNS6_11char_traitsIcEENS6_9allocatorIcEEEEDpRKT_, symObjAddr: 0x9F70, symBinAddr: 0xBA4E5C, symSize: 0x250 }
  - { offsetInCU: 0x317C6, offset: 0x14F5D2, size: 0x8, addend: 0x0, symName: __ZN4onnx10MakeStringIJA22_cA43_cmA7_ciS3_iEEENSt3__112basic_stringIcNS4_11char_traitsIcEENS4_9allocatorIcEEEEDpRKT_, symObjAddr: 0xA1C0, symBinAddr: 0xBA50AC, symSize: 0x250 }
  - { offsetInCU: 0x3221B, offset: 0x150027, size: 0x8, addend: 0x0, symName: __ZN4onnx10MakeStringIJA22_cA66_cmA5_cmEEENSt3__112basic_stringIcNS4_11char_traitsIcEENS4_9allocatorIcEEEEDpRKT_, symObjAddr: 0x9B38, symBinAddr: 0xBA4A24, symSize: 0x21C }
  - { offsetInCU: 0x32B07, offset: 0x150913, size: 0x8, addend: 0x0, symName: __ZN4onnx10MakeStringIJA22_cA13_cmA24_cmEEENSt3__112basic_stringIcNS4_11char_traitsIcEENS4_9allocatorIcEEEEDpRKT_, symObjAddr: 0x9D54, symBinAddr: 0xBA4C40, symSize: 0x21C }
  - { offsetInCU: 0x33C97, offset: 0x151AA3, size: 0x8, addend: 0x0, symName: __ZN4onnx11GetOpSchemaINS_12If_Onnx_ver1EEENS_8OpSchemaEv, symObjAddr: 0xA410, symBinAddr: 0xBA52FC, symSize: 0x3D0 }
  - { offsetInCU: 0x35341, offset: 0x15314D, size: 0x8, addend: 0x0, symName: __ZN4onnx22IfInferenceFunction_11ERNS_16InferenceContextE, symObjAddr: 0xA7E0, symBinAddr: 0xBA56CC, symSize: 0x604 }
  - { offsetInCU: 0x36ED7, offset: 0x154CE3, size: 0x8, addend: 0x0, symName: __ZN4onnx11GetOpSchemaINS_13If_Onnx_ver11EEENS_8OpSchemaEv, symObjAddr: 0xADE4, symBinAddr: 0xBA5CD0, symSize: 0x3D0 }
  - { offsetInCU: 0x38581, offset: 0x15638D, size: 0x8, addend: 0x0, symName: __ZN4onnx22IfInferenceFunction_13ERNS_16InferenceContextE, symObjAddr: 0xB1B4, symBinAddr: 0xBA60A0, symSize: 0x404 }
  - { offsetInCU: 0x39B65, offset: 0x157971, size: 0x8, addend: 0x0, symName: __ZN4onnx11GetOpSchemaINS_13If_Onnx_ver13EEENS_8OpSchemaEv, symObjAddr: 0xB5B8, symBinAddr: 0xBA64A4, symSize: 0x48C }
  - { offsetInCU: 0x3B6A0, offset: 0x1594AC, size: 0x8, addend: 0x0, symName: __ZN4onnx24LoopInferenceFunction_13ERNS_16InferenceContextE, symObjAddr: 0xBA44, symBinAddr: 0xBA6930, symSize: 0xCD8 }
  - { offsetInCU: 0x3EA10, offset: 0x15C81C, size: 0x8, addend: 0x0, symName: __ZN4onnx10MakeStringIJA22_cA68_cmA6_cNS_9TypeProto9ValueCaseEEEENSt3__112basic_stringIcNS6_11char_traitsIcEENS6_9allocatorIcEEEEDpRKT_, symObjAddr: 0xC938, symBinAddr: 0xBA7824, symSize: 0x21C }
  - { offsetInCU: 0x3F2FC, offset: 0x15D108, size: 0x8, addend: 0x0, symName: __ZN4onnx10MakeStringIJA22_cA76_cmA6_cNS_9TypeProto9ValueCaseEEEENSt3__112basic_stringIcNS6_11char_traitsIcEENS6_9allocatorIcEEEEDpRKT_, symObjAddr: 0xC71C, symBinAddr: 0xBA7608, symSize: 0x21C }
  - { offsetInCU: 0x3FDE8, offset: 0x15DBF4, size: 0x8, addend: 0x0, symName: __ZN4onnx11GetOpSchemaINS_15Loop_Onnx_ver13EEENS_8OpSchemaEv, symObjAddr: 0xCB54, symBinAddr: 0xBA7A40, symSize: 0x504 }
  - { offsetInCU: 0x41910, offset: 0x15F71C, size: 0x8, addend: 0x0, symName: __ZN4onnx11GetOpSchemaINS_15Scan_Onnx_ver11EEENS_8OpSchemaEv, symObjAddr: 0xD058, symBinAddr: 0xBA7F44, symSize: 0x410 }
  - { offsetInCU: 0x6C1AD, offset: 0x189FB9, size: 0x8, addend: 0x0, symName: __ZN4onnx8OpSchema29all_tensor_sequence_types_ir9Ev, symObjAddr: 0xDAD0, symBinAddr: 0xBA8354, symSize: 0x680 }
  - { offsetInCU: 0x6C1CE, offset: 0x189FDA, size: 0x8, addend: 0x0, symName: __ZZN4onnx8OpSchema29all_tensor_sequence_types_ir9EvE29all_tensor_sequence_types_ir9, symObjAddr: 0x20F30, symBinAddr: 0x14F8D38, symSize: 0x0 }
  - { offsetInCU: 0x6C686, offset: 0x18A492, size: 0x8, addend: 0x0, symName: __ZN4onnx8OpSchema22all_optional_types_ir9Ev, symObjAddr: 0xE150, symBinAddr: 0xBA89D4, symSize: 0xAE0 }
  - { offsetInCU: 0x6C6A7, offset: 0x18A4B3, size: 0x8, addend: 0x0, symName: __ZZN4onnx8OpSchema22all_optional_types_ir9EvE18all_optional_types, symObjAddr: 0x20F50, symBinAddr: 0x14F8D58, symSize: 0x0 }
  - { offsetInCU: 0x6CCA0, offset: 0x18AAAC, size: 0x8, addend: 0x0, symName: __ZN4onnx8OpSchema29all_tensor_sequence_types_ir4Ev, symObjAddr: 0x1287C, symBinAddr: 0xBA94B4, symSize: 0x568 }
  - { offsetInCU: 0x6CCC1, offset: 0x18AACD, size: 0x8, addend: 0x0, symName: __ZZN4onnx8OpSchema29all_tensor_sequence_types_ir4EvE29all_tensor_sequence_types_ir4, symObjAddr: 0x20F70, symBinAddr: 0x14F8D78, symSize: 0x0 }
  - { offsetInCU: 0x6D129, offset: 0x18AF35, size: 0x8, addend: 0x0, symName: __ZN4onnx8OpSchema22all_optional_types_ir4Ev, symObjAddr: 0x12DE4, symBinAddr: 0xBA9A1C, symSize: 0x9C8 }
  - { offsetInCU: 0x6D14A, offset: 0x18AF56, size: 0x8, addend: 0x0, symName: __ZZN4onnx8OpSchema22all_optional_types_ir4EvE18all_optional_types, symObjAddr: 0x20F90, symBinAddr: 0x14F8D98, symSize: 0x0 }
  - { offsetInCU: 0x737E1, offset: 0x1915ED, size: 0x8, addend: 0x0, symName: __ZN4onnxL22control_flow_types_ir9Ev, symObjAddr: 0x5BC, symBinAddr: 0xB9CD0C, symSize: 0x190 }
  - { offsetInCU: 0x75737, offset: 0x193543, size: 0x8, addend: 0x0, symName: __ZNSt3__16vectorIN4onnx9TypeProtoENS_9allocatorIS2_EEE7reserveEm, symObjAddr: 0x39F8, symBinAddr: 0xB9F4EC, symSize: 0x100 }
  - { offsetInCU: 0x75B94, offset: 0x1939A0, size: 0x8, addend: 0x0, symName: __ZN4onnx10MakeStringIJA22_cA12_cmA19_cEEENSt3__112basic_stringIcNS4_11char_traitsIcEENS4_9allocatorIcEEEEDpRKT_, symObjAddr: 0x3AF8, symBinAddr: 0xB9F5EC, symSize: 0x20C }
  - { offsetInCU: 0x75C63, offset: 0x193A6F, size: 0x8, addend: 0x0, symName: __ZNSt3__16vectorIN4onnx9TypeProtoENS_9allocatorIS2_EEE21__push_back_slow_pathIS2_EEvOT_, symObjAddr: 0x1482C, symBinAddr: 0xBAA3E4, symSize: 0x148 }
  - { offsetInCU: 0x761B6, offset: 0x193FC2, size: 0x8, addend: 0x0, symName: __ZNKSt3__16vectorIPKN4onnx11TensorProtoENS_9allocatorIS4_EEE20__throw_length_errorB8ue170006Ev, symObjAddr: 0x14BD8, symBinAddr: 0xBAA52C, symSize: 0x14 }
  - { offsetInCU: 0x7761C, offset: 0x195428, size: 0x8, addend: 0x0, symName: __ZN4onnx10MakeStringIJA23_cA39_cmA43_cmA3_cEEENSt3__112basic_stringIcNS5_11char_traitsIcEENS5_9allocatorIcEEEEDpRKT_, symObjAddr: 0x61CC, symBinAddr: 0xBA15DC, symSize: 0x240 }
  - { offsetInCU: 0x7763E, offset: 0x19544A, size: 0x8, addend: 0x0, symName: __ZNSt3__16vectorIN4onnx9TypeProtoENS_9allocatorIS2_EEE21__push_back_slow_pathIRKS2_EEvOT_, symObjAddr: 0x14C00, symBinAddr: 0xBAA540, symSize: 0x1C8 }
  - { offsetInCU: 0x77CB3, offset: 0x195ABF, size: 0x8, addend: 0x0, symName: __ZNSt3__16vectorIN4onnx9TypeProtoENS_9allocatorIS2_EEE21__push_back_slow_pathIRKS2_EEvOT_, symObjAddr: 0x14C00, symBinAddr: 0xBAA540, symSize: 0x1C8 }
  - { offsetInCU: 0x16558, offset: 0x1B899C, size: 0x8, addend: 0x0, symName: __ZN4onnx19IfInferenceFunctionERNS_16InferenceContextE, symObjAddr: 0x7C, symBinAddr: 0xBAA708, symSize: 0x404 }
  - { offsetInCU: 0x18992, offset: 0x1BADD6, size: 0x8, addend: 0x0, symName: __ZN4onnx21LoopInferenceFunctionERNS_16InferenceContextE, symObjAddr: 0x8F8, symBinAddr: 0xBAAB0C, symSize: 0xC94 }
  - { offsetInCU: 0x206DF, offset: 0x1C2B23, size: 0x8, addend: 0x0, symName: __ZN4onnx10MakeStringIJA22_cA90_cmA6_cNS_9TypeProto9ValueCaseEEEENSt3__112basic_stringIcNS6_11char_traitsIcEENS6_9allocatorIcEEEEDpRKT_, symObjAddr: 0x18A8, symBinAddr: 0xBAB7A0, symSize: 0x21C }
  - { offsetInCU: 0x219B1, offset: 0x1C3DF5, size: 0x8, addend: 0x0, symName: __ZN4onnx29handle_negative_axis_validateERKNSt3__112basic_stringIcNS0_11char_traitsIcEENS0_9allocatorIcEEEEii, symObjAddr: 0x1D38, symBinAddr: 0xBAB9BC, symSize: 0x12C }
  - { offsetInCU: 0x2256C, offset: 0x1C49B0, size: 0x8, addend: 0x0, symName: __ZN4onnx21ScanInferenceFunctionERNS_16InferenceContextE, symObjAddr: 0x20AC, symBinAddr: 0xBABAE8, symSize: 0x129C }
  - { offsetInCU: 0x15393, offset: 0x1E9A47, size: 0x8, addend: 0x0, symName: __ZN4onnx5Utils13DataTypeUtils6ToTypeERKNS_9TypeProtoE, symObjAddr: 0x16C, symBinAddr: 0xBACD84, symSize: 0x370 }
  - { offsetInCU: 0x161D7, offset: 0x1EA88B, size: 0x8, addend: 0x0, symName: __ZN4onnx5Utils13DataTypeUtils8ToStringERKNS_9TypeProtoERKNSt3__112basic_stringIcNS5_11char_traitsIcEENS5_9allocatorIcEEEESD_, symObjAddr: 0x4DC, symBinAddr: 0xBAD0F4, symSize: 0xBFC }
  - { offsetInCU: 0x1A604, offset: 0x1EECB8, size: 0x8, addend: 0x0, symName: __ZNSt3__112__hash_tableINS_17__hash_value_typeINS_12basic_stringIcNS_11char_traitsIcEENS_9allocatorIcEEEEN4onnx9TypeProtoEEENS_22__unordered_map_hasherIS7_SA_NS_4hashIS7_EENS_8equal_toIS7_EELb1EEENS_21__unordered_map_equalIS7_SA_SF_SD_Lb1EEENS5_ISA_EEE4findIS7_EENS_15__hash_iteratorIPNS_11__hash_nodeISA_PvEEEERKT_, symObjAddr: 0x44DC, symBinAddr: 0xBB0554, symSize: 0x238 }
  - { offsetInCU: 0x1A895, offset: 0x1EEF49, size: 0x8, addend: 0x0, symName: __ZN4onnx5Utils13DataTypeUtils10FromStringERKNSt3__112basic_stringIcNS2_11char_traitsIcEENS2_9allocatorIcEEEERNS_9TypeProtoE, symObjAddr: 0x10D8, symBinAddr: 0xBADCF0, symSize: 0x10F4 }
  - { offsetInCU: 0x1E47D, offset: 0x1F2B31, size: 0x8, addend: 0x0, symName: __ZN4onnx5Utils13DataTypeUtils16ToDataTypeStringEi, symObjAddr: 0x24F4, symBinAddr: 0xBAF0B0, symSize: 0x354 }
  - { offsetInCU: 0x1F5CF, offset: 0x1F3C83, size: 0x8, addend: 0x0, symName: __ZN4onnx5Utils11StringRange21ParensWhitespaceStripEv, symObjAddr: 0x2A8C, symBinAddr: 0xBAF404, symSize: 0x228 }
  - { offsetInCU: 0x1F92E, offset: 0x1F3FE2, size: 0x8, addend: 0x0, symName: __ZN4onnx5Utils13DataTypeUtils18FromDataTypeStringERKNSt3__112basic_stringIcNS2_11char_traitsIcEENS2_9allocatorIcEEEERi, symObjAddr: 0x2DF0, symBinAddr: 0xBAF6C4, symSize: 0x230 }
  - { offsetInCU: 0x1FCE7, offset: 0x1F439B, size: 0x8, addend: 0x0, symName: __ZN4onnx16TypeProto_Opaque14mutable_domainEv, symObjAddr: 0x3030, symBinAddr: 0xBAF8F4, symSize: 0x2C }
  - { offsetInCU: 0x1FD1E, offset: 0x1F43D2, size: 0x8, addend: 0x0, symName: __ZN4onnx16TypeProto_Opaque14mutable_domainEv, symObjAddr: 0x3030, symBinAddr: 0xBAF8F4, symSize: 0x2C }
  - { offsetInCU: 0x200D2, offset: 0x1F4786, size: 0x8, addend: 0x0, symName: __ZN4onnx5Utils12TypesWrapperD2Ev, symObjAddr: 0x43F4, symBinAddr: 0xBB046C, symSize: 0xE8 }
  - { offsetInCU: 0x200E2, offset: 0x1F4796, size: 0x8, addend: 0x0, symName: __ZN4onnx16TypeProto_Opaque12mutable_nameEv, symObjAddr: 0x305C, symBinAddr: 0xBAF920, symSize: 0x2C }
  - { offsetInCU: 0x20119, offset: 0x1F47CD, size: 0x8, addend: 0x0, symName: __ZN4onnx16TypeProto_Opaque12mutable_nameEv, symObjAddr: 0x305C, symBinAddr: 0xBAF920, symSize: 0x2C }
  - { offsetInCU: 0x201A0, offset: 0x1F4854, size: 0x8, addend: 0x0, symName: __ZNSt3__112basic_stringIcNS_11char_traitsIcEENS_9allocatorIcEEEC1B8ue170006EPKcm, symObjAddr: 0x2CC4, symBinAddr: 0xBAF62C, symSize: 0x98 }
  - { offsetInCU: 0x2065A, offset: 0x1F4D0E, size: 0x8, addend: 0x0, symName: __ZN4onnx5Utils13DataTypeUtils6ToTypeERKNSt3__112basic_stringIcNS2_11char_traitsIcEENS2_9allocatorIcEEEE, symObjAddr: 0x21CC, symBinAddr: 0xBAEDE4, symSize: 0x98 }
  - { offsetInCU: 0x20729, offset: 0x1F4DDD, size: 0x8, addend: 0x0, symName: __ZN4onnx5Utils13DataTypeUtils11ToTypeProtoERKPKNSt3__112basic_stringIcNS2_11char_traitsIcEENS2_9allocatorIcEEEE, symObjAddr: 0x2264, symBinAddr: 0xBAEE7C, symSize: 0x234 }
  - { offsetInCU: 0x20EAF, offset: 0x1F5563, size: 0x8, addend: 0x0, symName: __ZN4onnx5Utils12TypesWrapperC2Ev, symObjAddr: 0x376C, symBinAddr: 0xBAFAC0, symSize: 0x944 }
  - { offsetInCU: 0x25F14, offset: 0x1FA5C8, size: 0x8, addend: 0x0, symName: __ZN4onnx5Utils11StringRange10LAndRStripEv, symObjAddr: 0x3264, symBinAddr: 0xBAF94C, symSize: 0x170 }
  - { offsetInCU: 0x269C5, offset: 0x1FB079, size: 0x8, addend: 0x0, symName: __ZN4onnx5Utils12TypesWrapperD1Ev, symObjAddr: 0x3768, symBinAddr: 0xBAFABC, symSize: 0x4 }
  - { offsetInCU: 0x269F1, offset: 0x1FB0A5, size: 0x8, addend: 0x0, symName: __ZN4onnx5Utils12TypesWrapperD1Ev, symObjAddr: 0x3768, symBinAddr: 0xBAFABC, symSize: 0x4 }
  - { offsetInCU: 0x26A03, offset: 0x1FB0B7, size: 0x8, addend: 0x0, symName: __ZN4onnx5Utils12TypesWrapperD2Ev, symObjAddr: 0x43F4, symBinAddr: 0xBB046C, symSize: 0xE8 }
  - { offsetInCU: 0x281B5, offset: 0x1FC869, size: 0x8, addend: 0x0, symName: __ZNSt3__112__hash_tableINS_17__hash_value_typeIiNS_12basic_stringIcNS_11char_traitsIcEENS_9allocatorIcEEEEEENS_22__unordered_map_hasherIiS8_NS_4hashIiEENS_8equal_toIiEELb1EEENS_21__unordered_map_equalIiS8_SD_SB_Lb1EEENS5_IS8_EEE25__emplace_unique_key_argsIiJRKNS_21piecewise_construct_tENS_5tupleIJRKiEEENSN_IJEEEEEENS_4pairINS_15__hash_iteratorIPNS_11__hash_nodeIS8_PvEEEEbEERKT_DpOT0_, symObjAddr: 0x6084, symBinAddr: 0xBB078C, symSize: 0x368 }
  - { offsetInCU: 0x290A6, offset: 0x1FD75A, size: 0x8, addend: 0x0, symName: __ZNSt3__113unordered_mapIiNS_12basic_stringIcNS_11char_traitsIcEENS_9allocatorIcEEEENS_4hashIiEENS_8equal_toIiEENS4_INS_4pairIKiS6_EEEEED1B8ue170006Ev, symObjAddr: 0x4118, symBinAddr: 0xBB0404, symSize: 0x68 }
  - { offsetInCU: 0x2C84C, offset: 0x200F00, size: 0x8, addend: 0x0, symName: __ZNSt3__112__hash_tableINS_17__hash_value_typeIiNS_12basic_stringIcNS_11char_traitsIcEENS_9allocatorIcEEEEEENS_22__unordered_map_hasherIiS8_NS_4hashIiEENS_8equal_toIiEELb1EEENS_21__unordered_map_equalIiS8_SD_SB_Lb1EEENS5_IS8_EEE11__do_rehashILb1EEEvm, symObjAddr: 0x6438, symBinAddr: 0xBB0B40, symSize: 0x1AC }
  - { offsetInCU: 0x2CCB2, offset: 0x201366, size: 0x8, addend: 0x0, symName: __ZNSt3__110unique_ptrINS_11__hash_nodeINS_17__hash_value_typeIiNS_12basic_stringIcNS_11char_traitsIcEENS_9allocatorIcEEEEEEPvEENS_22__hash_node_destructorINS6_ISB_EEEEED1B8ue170006Ev, symObjAddr: 0x63EC, symBinAddr: 0xBB0AF4, symSize: 0x4C }
  - { offsetInCU: 0x339EC, offset: 0x23596E, size: 0x8, addend: 0x0, symName: __ZN4onnx18FunctionBodyHelper10BuildNodesERKNSt3__16vectorINS0_7NodeDefENS1_9allocatorIS3_EEEE, symObjAddr: 0x1F68, symBinAddr: 0xBB0CEC, symSize: 0x660 }
  - { offsetInCU: 0x3592A, offset: 0x2378AC, size: 0x8, addend: 0x0, symName: __ZNSt3__16vectorIN4onnx9NodeProtoENS_9allocatorIS2_EEEC1Em, symObjAddr: 0x25C8, symBinAddr: 0xBB134C, symSize: 0xC0 }
  - { offsetInCU: 0x35BBF, offset: 0x237B41, size: 0x8, addend: 0x0, symName: __ZNSt3__16vectorIN4onnx9NodeProtoENS_9allocatorIS2_EEED1B8ue170006Ev, symObjAddr: 0x2688, symBinAddr: 0xBB140C, symSize: 0x58 }
  - { offsetInCU: 0x35F46, offset: 0x237EC8, size: 0x8, addend: 0x0, symName: __ZNKSt3__16vectorIN4onnx9NodeProtoENS_9allocatorIS2_EEE20__throw_length_errorB8ue170006Ev, symObjAddr: 0x4D90, symBinAddr: 0xBB1464, symSize: 0x14 }
  - { offsetInCU: 0x35F7A, offset: 0x237EFC, size: 0x8, addend: 0x0, symName: __ZNSt3__16vectorIN4onnx9NodeProtoENS_9allocatorIS2_EEEC1Em.cold.1, symObjAddr: 0x6AAC, symBinAddr: 0x1165524, symSize: 0x58 }
  - { offsetInCU: 0xA24B, offset: 0x242430, size: 0x8, addend: 0x0, symName: __ZN4onnx11GetOpSchemaINS_26ConstantOfShape_Onnx_ver21EEENS_8OpSchemaEv, symObjAddr: 0xD6C, symBinAddr: 0xBB18B8, symSize: 0x314 }
  - { offsetInCU: 0xAD03, offset: 0x242EE8, size: 0x8, addend: 0x0, symName: __ZN4onnx11GetOpSchemaINS_18EyeLike_Onnx_ver22EEENS_8OpSchemaEv, symObjAddr: 0x1080, symBinAddr: 0xBB1BCC, symSize: 0x520 }
  - { offsetInCU: 0xD092, offset: 0x245277, size: 0x8, addend: 0x0, symName: __ZN4onnx11GetOpSchemaINS_24RandomUniform_Onnx_ver22EEENS_8OpSchemaEv, symObjAddr: 0x1A38, symBinAddr: 0xBB2584, symSize: 0x408 }
  - { offsetInCU: 0xE77E, offset: 0x246963, size: 0x8, addend: 0x0, symName: __ZN4onnx11GetOpSchemaINS_23RandomNormal_Onnx_ver22EEENS_8OpSchemaEv, symObjAddr: 0x2038, symBinAddr: 0xBB2B84, symSize: 0x408 }
  - { offsetInCU: 0xFE6A, offset: 0x24804F, size: 0x8, addend: 0x0, symName: __ZN4onnx11GetOpSchemaINS_28RandomUniformLike_Onnx_ver22EEENS_8OpSchemaEv, symObjAddr: 0x2440, symBinAddr: 0xBB2F8C, symSize: 0x568 }
  - { offsetInCU: 0x12212, offset: 0x24A3F7, size: 0x8, addend: 0x0, symName: __ZN4onnx11GetOpSchemaINS_27RandomNormalLike_Onnx_ver22EEENS_8OpSchemaEv, symObjAddr: 0x2F10, symBinAddr: 0xBB34F4, symSize: 0x568 }
  - { offsetInCU: 0x145BA, offset: 0x24C79F, size: 0x8, addend: 0x0, symName: __ZN4onnx11GetOpSchemaINS_22Multinomial_Onnx_ver22EEENS_8OpSchemaEv, symObjAddr: 0x3478, symBinAddr: 0xBB3A5C, symSize: 0x430 }
  - { offsetInCU: 0x15CCB, offset: 0x24DEB0, size: 0x8, addend: 0x0, symName: __ZN4onnx11GetOpSchemaINS_16Range_Onnx_ver11EEENS_8OpSchemaEv, symObjAddr: 0x38A8, symBinAddr: 0xBB3E8C, symSize: 0x30C }
  - { offsetInCU: 0x1673E, offset: 0x24E923, size: 0x8, addend: 0x0, symName: __ZN4onnx11GetOpSchemaINS_20Bernoulli_Onnx_ver22EEENS_8OpSchemaEv, symObjAddr: 0x3BB4, symBinAddr: 0xBB4198, symSize: 0x5BC }
  - { offsetInCU: 0x18CFE, offset: 0x250EE3, size: 0x8, addend: 0x0, symName: __ZN4onnx11GetOpSchemaINS_19Constant_Onnx_ver21EEENS_8OpSchemaEv, symObjAddr: 0x0, symBinAddr: 0xBB1478, symSize: 0x440 }
  - { offsetInCU: 0x1A48A, offset: 0x25266F, size: 0x8, addend: 0x0, symName: __ZN4onnx34propagateElemTypeFromDtypeToOutputERNS_16InferenceContextEPKNS_14AttributeProtoEm, symObjAddr: 0x83D4, symBinAddr: 0xBB4A0C, symSize: 0x304 }
  - { offsetInCU: 0x1AE9C, offset: 0x253081, size: 0x8, addend: 0x0, symName: __ZN4onnx10MakeStringIJA22_cA60_cNSt3__112basic_stringIcNS3_11char_traitsIcEENS3_9allocatorIcEEEEA2_cEEES9_DpRKT_, symObjAddr: 0x8B58, symBinAddr: 0xBB5150, symSize: 0x220 }
  - { offsetInCU: 0x1B7A7, offset: 0x25398C, size: 0x8, addend: 0x0, symName: __ZN4onnx10MakeStringIJA22_cA48_cNSt3__112basic_stringIcNS3_11char_traitsIcEENS3_9allocatorIcEEEEA2_cEEES9_DpRKT_, symObjAddr: 0x86D8, symBinAddr: 0xBB4D10, symSize: 0x220 }
  - { offsetInCU: 0x1C0B2, offset: 0x254297, size: 0x8, addend: 0x0, symName: __ZN4onnx10MakeStringIJA22_cA55_cNSt3__112basic_stringIcNS3_11char_traitsIcEENS3_9allocatorIcEEEEA2_cEEES9_DpRKT_, symObjAddr: 0x8938, symBinAddr: 0xBB4F30, symSize: 0x220 }
  - { offsetInCU: 0x25AC5, offset: 0x25DCAA, size: 0x8, addend: 0x0, symName: __ZN4onnx10MakeStringIJA22_cA35_cEEENSt3__112basic_stringIcNS3_11char_traitsIcEENS3_9allocatorIcEEEEDpRKT_, symObjAddr: 0xDCD0, symBinAddr: 0xBB64F4, symSize: 0x1D8 }
  - { offsetInCU: 0x266E7, offset: 0x25E8CC, size: 0x8, addend: 0x0, symName: __ZN4onnx28compute_output_dim_for_rangeIfEExPKNS_11TensorProtoES3_S3_, symObjAddr: 0xE65C, symBinAddr: 0xBB6AD0, symSize: 0x1D4 }
  - { offsetInCU: 0x27135, offset: 0x25F31A, size: 0x8, addend: 0x0, symName: __ZN4onnx28compute_output_dim_for_rangeIxEExPKNS_11TensorProtoES3_S3_, symObjAddr: 0xE9F4, symBinAddr: 0xBB6E68, symSize: 0x1C4 }
  - { offsetInCU: 0x27B83, offset: 0x25FD68, size: 0x8, addend: 0x0, symName: __ZN4onnx28compute_output_dim_for_rangeIiEExPKNS_11TensorProtoES3_S3_, symObjAddr: 0xE830, symBinAddr: 0xBB6CA4, symSize: 0x1C4 }
  - { offsetInCU: 0x285D1, offset: 0x2607B6, size: 0x8, addend: 0x0, symName: __ZN4onnx28compute_output_dim_for_rangeIdEExPKNS_11TensorProtoES3_S3_, symObjAddr: 0xEBB8, symBinAddr: 0xBB702C, symSize: 0x1CC }
  - { offsetInCU: 0x294B3, offset: 0x261698, size: 0x8, addend: 0x0, symName: __ZN4onnx10MakeStringIJA23_cA85_cEEENSt3__112basic_stringIcNS3_11char_traitsIcEENS3_9allocatorIcEEEEDpRKT_, symObjAddr: 0xED84, symBinAddr: 0xBB71F8, symSize: 0x1D8 }
  - { offsetInCU: 0x59A58, offset: 0x291C3D, size: 0x8, addend: 0x0, symName: __ZN4onnx8OpSchema43all_non_complex_numeric_types_plus_bool_ir4Ev, symObjAddr: 0x15A0, symBinAddr: 0xBB20EC, symSize: 0x498 }
  - { offsetInCU: 0x59A79, offset: 0x291C5E, size: 0x8, addend: 0x0, symName: __ZZN4onnx8OpSchema43all_non_complex_numeric_types_plus_bool_ir4EvE43all_non_complex_numeric_types_plus_bool_ir4, symObjAddr: 0x147A8, symBinAddr: 0x14F8DF8, symSize: 0x0 }
  - { offsetInCU: 0x59EA5, offset: 0x29208A, size: 0x8, addend: 0x0, symName: __ZN4onnx8OpSchema19all_float_types_ir4Ev, symObjAddr: 0x1E40, symBinAddr: 0xBB298C, symSize: 0x1F8 }
  - { offsetInCU: 0x59EC6, offset: 0x2920AB, size: 0x8, addend: 0x0, symName: __ZZN4onnx8OpSchema19all_float_types_ir4EvE19all_float_types_ir4, symObjAddr: 0x147C8, symBinAddr: 0x14F8E18, symSize: 0x0 }
  - { offsetInCU: 0x60DBA, offset: 0x298F9F, size: 0x8, addend: 0x0, symName: __ZN4onnx8OpSchema19all_float_types_ir4Ev.cold.1, symObjAddr: 0xFADC, symBinAddr: 0x116557C, symSize: 0x68 }
  - { offsetInCU: 0x6C926, offset: 0x2A4B0B, size: 0x8, addend: 0x0, symName: '__ZNSt3__110__function6__funcIZN4onnx11GetOpSchemaINS2_26ConstantOfShape_Onnx_ver21EEENS2_8OpSchemaEvE3$_0NS_9allocatorIS6_EEFvRNS2_16InferenceContextEEED1Ev', symObjAddr: 0x811C, symBinAddr: 0xBB4754, symSize: 0x4 }
  - { offsetInCU: 0x6C952, offset: 0x2A4B37, size: 0x8, addend: 0x0, symName: '__ZNSt3__110__function6__funcIZN4onnx11GetOpSchemaINS2_26ConstantOfShape_Onnx_ver21EEENS2_8OpSchemaEvE3$_0NS_9allocatorIS6_EEFvRNS2_16InferenceContextEEED0Ev', symObjAddr: 0x8120, symBinAddr: 0xBB4758, symSize: 0x4 }
  - { offsetInCU: 0x6CA0C, offset: 0x2A4BF1, size: 0x8, addend: 0x0, symName: '__ZNKSt3__110__function6__funcIZN4onnx11GetOpSchemaINS2_26ConstantOfShape_Onnx_ver21EEENS2_8OpSchemaEvE3$_0NS_9allocatorIS6_EEFvRNS2_16InferenceContextEEE7__cloneEv', symObjAddr: 0x8124, symBinAddr: 0xBB475C, symSize: 0x24 }
  - { offsetInCU: 0x6CB54, offset: 0x2A4D39, size: 0x8, addend: 0x0, symName: '__ZNKSt3__110__function6__funcIZN4onnx11GetOpSchemaINS2_26ConstantOfShape_Onnx_ver21EEENS2_8OpSchemaEvE3$_0NS_9allocatorIS6_EEFvRNS2_16InferenceContextEEE7__cloneEPNS0_6__baseISB_EE', symObjAddr: 0x8148, symBinAddr: 0xBB4780, symSize: 0x10 }
  - { offsetInCU: 0x6CB8A, offset: 0x2A4D6F, size: 0x8, addend: 0x0, symName: '__ZNKSt3__110__function6__funcIZN4onnx11GetOpSchemaINS2_26ConstantOfShape_Onnx_ver21EEENS2_8OpSchemaEvE3$_0NS_9allocatorIS6_EEFvRNS2_16InferenceContextEEE7__cloneEPNS0_6__baseISB_EE', symObjAddr: 0x8148, symBinAddr: 0xBB4780, symSize: 0x10 }
  - { offsetInCU: 0x6CBA6, offset: 0x2A4D8B, size: 0x8, addend: 0x0, symName: '__ZNKSt3__110__function6__funcIZN4onnx11GetOpSchemaINS2_26ConstantOfShape_Onnx_ver21EEENS2_8OpSchemaEvE3$_0NS_9allocatorIS6_EEFvRNS2_16InferenceContextEEE7__cloneEPNS0_6__baseISB_EE', symObjAddr: 0x8148, symBinAddr: 0xBB4780, symSize: 0x10 }
  - { offsetInCU: 0x6CBC2, offset: 0x2A4DA7, size: 0x8, addend: 0x0, symName: '__ZNSt3__110__function6__funcIZN4onnx11GetOpSchemaINS2_26ConstantOfShape_Onnx_ver21EEENS2_8OpSchemaEvE3$_0NS_9allocatorIS6_EEFvRNS2_16InferenceContextEEE7destroyEv', symObjAddr: 0x8158, symBinAddr: 0xBB4790, symSize: 0x4 }
  - { offsetInCU: 0x6CC13, offset: 0x2A4DF8, size: 0x8, addend: 0x0, symName: '__ZNSt3__110__function6__funcIZN4onnx11GetOpSchemaINS2_26ConstantOfShape_Onnx_ver21EEENS2_8OpSchemaEvE3$_0NS_9allocatorIS6_EEFvRNS2_16InferenceContextEEE18destroy_deallocateEv', symObjAddr: 0x815C, symBinAddr: 0xBB4794, symSize: 0x4 }
  - { offsetInCU: 0x6CC48, offset: 0x2A4E2D, size: 0x8, addend: 0x0, symName: '__ZNSt3__110__function6__funcIZN4onnx11GetOpSchemaINS2_26ConstantOfShape_Onnx_ver21EEENS2_8OpSchemaEvE3$_0NS_9allocatorIS6_EEFvRNS2_16InferenceContextEEE18destroy_deallocateEv', symObjAddr: 0x815C, symBinAddr: 0xBB4794, symSize: 0x4 }
  - { offsetInCU: 0x6CC6A, offset: 0x2A4E4F, size: 0x8, addend: 0x0, symName: '__ZNSt3__110__function6__funcIZN4onnx11GetOpSchemaINS2_26ConstantOfShape_Onnx_ver21EEENS2_8OpSchemaEvE3$_0NS_9allocatorIS6_EEFvRNS2_16InferenceContextEEE18destroy_deallocateEv', symObjAddr: 0x815C, symBinAddr: 0xBB4794, symSize: 0x4 }
  - { offsetInCU: 0x6CC95, offset: 0x2A4E7A, size: 0x8, addend: 0x0, symName: '__ZNSt3__110__function6__funcIZN4onnx11GetOpSchemaINS2_26ConstantOfShape_Onnx_ver21EEENS2_8OpSchemaEvE3$_0NS_9allocatorIS6_EEFvRNS2_16InferenceContextEEE18destroy_deallocateEv', symObjAddr: 0x815C, symBinAddr: 0xBB4794, symSize: 0x4 }
  - { offsetInCU: 0x6CCBB, offset: 0x2A4EA0, size: 0x8, addend: 0x0, symName: '__ZNSt3__110__function6__funcIZN4onnx11GetOpSchemaINS2_26ConstantOfShape_Onnx_ver21EEENS2_8OpSchemaEvE3$_0NS_9allocatorIS6_EEFvRNS2_16InferenceContextEEE18destroy_deallocateEv', symObjAddr: 0x815C, symBinAddr: 0xBB4794, symSize: 0x4 }
  - { offsetInCU: 0x6CF07, offset: 0x2A50EC, size: 0x8, addend: 0x0, symName: '__ZNSt3__110__function6__funcIZN4onnx11GetOpSchemaINS2_26ConstantOfShape_Onnx_ver21EEENS2_8OpSchemaEvE3$_0NS_9allocatorIS6_EEFvRNS2_16InferenceContextEEEclESA_', symObjAddr: 0x8160, symBinAddr: 0xBB4798, symSize: 0x208 }
  - { offsetInCU: 0x6D897, offset: 0x2A5A7C, size: 0x8, addend: 0x0, symName: '__ZNKSt3__110__function6__funcIZN4onnx11GetOpSchemaINS2_26ConstantOfShape_Onnx_ver21EEENS2_8OpSchemaEvE3$_0NS_9allocatorIS6_EEFvRNS2_16InferenceContextEEE6targetERKSt9type_info', symObjAddr: 0x8368, symBinAddr: 0xBB49A0, symSize: 0x60 }
  - { offsetInCU: 0x6D91C, offset: 0x2A5B01, size: 0x8, addend: 0x0, symName: '__ZNKSt3__110__function6__funcIZN4onnx11GetOpSchemaINS2_26ConstantOfShape_Onnx_ver21EEENS2_8OpSchemaEvE3$_0NS_9allocatorIS6_EEFvRNS2_16InferenceContextEEE11target_typeEv', symObjAddr: 0x83C8, symBinAddr: 0xBB4A00, symSize: 0xC }
  - { offsetInCU: 0x6E41B, offset: 0x2A6600, size: 0x8, addend: 0x0, symName: '__ZNSt3__110__function6__funcIZN4onnx11GetOpSchemaINS2_18EyeLike_Onnx_ver22EEENS2_8OpSchemaEvE3$_1NS_9allocatorIS6_EEFvRNS2_16InferenceContextEEED1Ev', symObjAddr: 0x9894, symBinAddr: 0xBB5370, symSize: 0x4 }
  - { offsetInCU: 0x6E447, offset: 0x2A662C, size: 0x8, addend: 0x0, symName: '__ZNSt3__110__function6__funcIZN4onnx11GetOpSchemaINS2_18EyeLike_Onnx_ver22EEENS2_8OpSchemaEvE3$_1NS_9allocatorIS6_EEFvRNS2_16InferenceContextEEED0Ev', symObjAddr: 0x9898, symBinAddr: 0xBB5374, symSize: 0x4 }
  - { offsetInCU: 0x6E501, offset: 0x2A66E6, size: 0x8, addend: 0x0, symName: '__ZNKSt3__110__function6__funcIZN4onnx11GetOpSchemaINS2_18EyeLike_Onnx_ver22EEENS2_8OpSchemaEvE3$_1NS_9allocatorIS6_EEFvRNS2_16InferenceContextEEE7__cloneEv', symObjAddr: 0x989C, symBinAddr: 0xBB5378, symSize: 0x24 }
  - { offsetInCU: 0x6E649, offset: 0x2A682E, size: 0x8, addend: 0x0, symName: '__ZNKSt3__110__function6__funcIZN4onnx11GetOpSchemaINS2_18EyeLike_Onnx_ver22EEENS2_8OpSchemaEvE3$_1NS_9allocatorIS6_EEFvRNS2_16InferenceContextEEE7__cloneEPNS0_6__baseISB_EE', symObjAddr: 0x98C0, symBinAddr: 0xBB539C, symSize: 0x10 }
  - { offsetInCU: 0x6E67F, offset: 0x2A6864, size: 0x8, addend: 0x0, symName: '__ZNKSt3__110__function6__funcIZN4onnx11GetOpSchemaINS2_18EyeLike_Onnx_ver22EEENS2_8OpSchemaEvE3$_1NS_9allocatorIS6_EEFvRNS2_16InferenceContextEEE7__cloneEPNS0_6__baseISB_EE', symObjAddr: 0x98C0, symBinAddr: 0xBB539C, symSize: 0x10 }
  - { offsetInCU: 0x6E69B, offset: 0x2A6880, size: 0x8, addend: 0x0, symName: '__ZNKSt3__110__function6__funcIZN4onnx11GetOpSchemaINS2_18EyeLike_Onnx_ver22EEENS2_8OpSchemaEvE3$_1NS_9allocatorIS6_EEFvRNS2_16InferenceContextEEE7__cloneEPNS0_6__baseISB_EE', symObjAddr: 0x98C0, symBinAddr: 0xBB539C, symSize: 0x10 }
  - { offsetInCU: 0x6E6B7, offset: 0x2A689C, size: 0x8, addend: 0x0, symName: '__ZNSt3__110__function6__funcIZN4onnx11GetOpSchemaINS2_18EyeLike_Onnx_ver22EEENS2_8OpSchemaEvE3$_1NS_9allocatorIS6_EEFvRNS2_16InferenceContextEEE7destroyEv', symObjAddr: 0x98D0, symBinAddr: 0xBB53AC, symSize: 0x4 }
  - { offsetInCU: 0x6E708, offset: 0x2A68ED, size: 0x8, addend: 0x0, symName: '__ZNSt3__110__function6__funcIZN4onnx11GetOpSchemaINS2_18EyeLike_Onnx_ver22EEENS2_8OpSchemaEvE3$_1NS_9allocatorIS6_EEFvRNS2_16InferenceContextEEE18destroy_deallocateEv', symObjAddr: 0x98D4, symBinAddr: 0xBB53B0, symSize: 0x4 }
  - { offsetInCU: 0x6E73D, offset: 0x2A6922, size: 0x8, addend: 0x0, symName: '__ZNSt3__110__function6__funcIZN4onnx11GetOpSchemaINS2_18EyeLike_Onnx_ver22EEENS2_8OpSchemaEvE3$_1NS_9allocatorIS6_EEFvRNS2_16InferenceContextEEE18destroy_deallocateEv', symObjAddr: 0x98D4, symBinAddr: 0xBB53B0, symSize: 0x4 }
  - { offsetInCU: 0x6E75F, offset: 0x2A6944, size: 0x8, addend: 0x0, symName: '__ZNSt3__110__function6__funcIZN4onnx11GetOpSchemaINS2_18EyeLike_Onnx_ver22EEENS2_8OpSchemaEvE3$_1NS_9allocatorIS6_EEFvRNS2_16InferenceContextEEE18destroy_deallocateEv', symObjAddr: 0x98D4, symBinAddr: 0xBB53B0, symSize: 0x4 }
  - { offsetInCU: 0x6E78A, offset: 0x2A696F, size: 0x8, addend: 0x0, symName: '__ZNSt3__110__function6__funcIZN4onnx11GetOpSchemaINS2_18EyeLike_Onnx_ver22EEENS2_8OpSchemaEvE3$_1NS_9allocatorIS6_EEFvRNS2_16InferenceContextEEE18destroy_deallocateEv', symObjAddr: 0x98D4, symBinAddr: 0xBB53B0, symSize: 0x4 }
  - { offsetInCU: 0x6E7B0, offset: 0x2A6995, size: 0x8, addend: 0x0, symName: '__ZNSt3__110__function6__funcIZN4onnx11GetOpSchemaINS2_18EyeLike_Onnx_ver22EEENS2_8OpSchemaEvE3$_1NS_9allocatorIS6_EEFvRNS2_16InferenceContextEEE18destroy_deallocateEv', symObjAddr: 0x98D4, symBinAddr: 0xBB53B0, symSize: 0x4 }
  - { offsetInCU: 0x6E8E9, offset: 0x2A6ACE, size: 0x8, addend: 0x0, symName: '__ZNSt3__110__function6__funcIZN4onnx11GetOpSchemaINS2_18EyeLike_Onnx_ver22EEENS2_8OpSchemaEvE3$_1NS_9allocatorIS6_EEFvRNS2_16InferenceContextEEEclESA_', symObjAddr: 0x98D8, symBinAddr: 0xBB53B4, symSize: 0x2C8 }
  - { offsetInCU: 0x6F382, offset: 0x2A7567, size: 0x8, addend: 0x0, symName: '__ZNKSt3__110__function6__funcIZN4onnx11GetOpSchemaINS2_18EyeLike_Onnx_ver22EEENS2_8OpSchemaEvE3$_1NS_9allocatorIS6_EEFvRNS2_16InferenceContextEEE6targetERKSt9type_info', symObjAddr: 0x9BA0, symBinAddr: 0xBB567C, symSize: 0x60 }
  - { offsetInCU: 0x6F407, offset: 0x2A75EC, size: 0x8, addend: 0x0, symName: '__ZNKSt3__110__function6__funcIZN4onnx11GetOpSchemaINS2_18EyeLike_Onnx_ver22EEENS2_8OpSchemaEvE3$_1NS_9allocatorIS6_EEFvRNS2_16InferenceContextEEE11target_typeEv', symObjAddr: 0x9C00, symBinAddr: 0xBB56DC, symSize: 0xC }
  - { offsetInCU: 0x6F66A, offset: 0x2A784F, size: 0x8, addend: 0x0, symName: '__ZNSt3__110__function6__funcIZN4onnx11GetOpSchemaINS2_24RandomUniform_Onnx_ver22EEENS2_8OpSchemaEvE3$_2NS_9allocatorIS6_EEFvRNS2_16InferenceContextEEED1Ev', symObjAddr: 0xBF0C, symBinAddr: 0xBB56E8, symSize: 0x4 }
  - { offsetInCU: 0x6F696, offset: 0x2A787B, size: 0x8, addend: 0x0, symName: '__ZNSt3__110__function6__funcIZN4onnx11GetOpSchemaINS2_24RandomUniform_Onnx_ver22EEENS2_8OpSchemaEvE3$_2NS_9allocatorIS6_EEFvRNS2_16InferenceContextEEED0Ev', symObjAddr: 0xBF10, symBinAddr: 0xBB56EC, symSize: 0x4 }
  - { offsetInCU: 0x6F750, offset: 0x2A7935, size: 0x8, addend: 0x0, symName: '__ZNKSt3__110__function6__funcIZN4onnx11GetOpSchemaINS2_24RandomUniform_Onnx_ver22EEENS2_8OpSchemaEvE3$_2NS_9allocatorIS6_EEFvRNS2_16InferenceContextEEE7__cloneEv', symObjAddr: 0xBF14, symBinAddr: 0xBB56F0, symSize: 0x24 }
  - { offsetInCU: 0x6F898, offset: 0x2A7A7D, size: 0x8, addend: 0x0, symName: '__ZNKSt3__110__function6__funcIZN4onnx11GetOpSchemaINS2_24RandomUniform_Onnx_ver22EEENS2_8OpSchemaEvE3$_2NS_9allocatorIS6_EEFvRNS2_16InferenceContextEEE7__cloneEPNS0_6__baseISB_EE', symObjAddr: 0xBF38, symBinAddr: 0xBB5714, symSize: 0x10 }
  - { offsetInCU: 0x6F8CE, offset: 0x2A7AB3, size: 0x8, addend: 0x0, symName: '__ZNKSt3__110__function6__funcIZN4onnx11GetOpSchemaINS2_24RandomUniform_Onnx_ver22EEENS2_8OpSchemaEvE3$_2NS_9allocatorIS6_EEFvRNS2_16InferenceContextEEE7__cloneEPNS0_6__baseISB_EE', symObjAddr: 0xBF38, symBinAddr: 0xBB5714, symSize: 0x10 }
  - { offsetInCU: 0x6F8EA, offset: 0x2A7ACF, size: 0x8, addend: 0x0, symName: '__ZNKSt3__110__function6__funcIZN4onnx11GetOpSchemaINS2_24RandomUniform_Onnx_ver22EEENS2_8OpSchemaEvE3$_2NS_9allocatorIS6_EEFvRNS2_16InferenceContextEEE7__cloneEPNS0_6__baseISB_EE', symObjAddr: 0xBF38, symBinAddr: 0xBB5714, symSize: 0x10 }
  - { offsetInCU: 0x6F906, offset: 0x2A7AEB, size: 0x8, addend: 0x0, symName: '__ZNSt3__110__function6__funcIZN4onnx11GetOpSchemaINS2_24RandomUniform_Onnx_ver22EEENS2_8OpSchemaEvE3$_2NS_9allocatorIS6_EEFvRNS2_16InferenceContextEEE7destroyEv', symObjAddr: 0xBF48, symBinAddr: 0xBB5724, symSize: 0x4 }
  - { offsetInCU: 0x6F957, offset: 0x2A7B3C, size: 0x8, addend: 0x0, symName: '__ZNSt3__110__function6__funcIZN4onnx11GetOpSchemaINS2_24RandomUniform_Onnx_ver22EEENS2_8OpSchemaEvE3$_2NS_9allocatorIS6_EEFvRNS2_16InferenceContextEEE18destroy_deallocateEv', symObjAddr: 0xBF4C, symBinAddr: 0xBB5728, symSize: 0x4 }
  - { offsetInCU: 0x6F98C, offset: 0x2A7B71, size: 0x8, addend: 0x0, symName: '__ZNSt3__110__function6__funcIZN4onnx11GetOpSchemaINS2_24RandomUniform_Onnx_ver22EEENS2_8OpSchemaEvE3$_2NS_9allocatorIS6_EEFvRNS2_16InferenceContextEEE18destroy_deallocateEv', symObjAddr: 0xBF4C, symBinAddr: 0xBB5728, symSize: 0x4 }
  - { offsetInCU: 0x6F9AE, offset: 0x2A7B93, size: 0x8, addend: 0x0, symName: '__ZNSt3__110__function6__funcIZN4onnx11GetOpSchemaINS2_24RandomUniform_Onnx_ver22EEENS2_8OpSchemaEvE3$_2NS_9allocatorIS6_EEFvRNS2_16InferenceContextEEE18destroy_deallocateEv', symObjAddr: 0xBF4C, symBinAddr: 0xBB5728, symSize: 0x4 }
  - { offsetInCU: 0x6F9D9, offset: 0x2A7BBE, size: 0x8, addend: 0x0, symName: '__ZNSt3__110__function6__funcIZN4onnx11GetOpSchemaINS2_24RandomUniform_Onnx_ver22EEENS2_8OpSchemaEvE3$_2NS_9allocatorIS6_EEFvRNS2_16InferenceContextEEE18destroy_deallocateEv', symObjAddr: 0xBF4C, symBinAddr: 0xBB5728, symSize: 0x4 }
  - { offsetInCU: 0x6F9FF, offset: 0x2A7BE4, size: 0x8, addend: 0x0, symName: '__ZNSt3__110__function6__funcIZN4onnx11GetOpSchemaINS2_24RandomUniform_Onnx_ver22EEENS2_8OpSchemaEvE3$_2NS_9allocatorIS6_EEFvRNS2_16InferenceContextEEE18destroy_deallocateEv', symObjAddr: 0xBF4C, symBinAddr: 0xBB5728, symSize: 0x4 }
  - { offsetInCU: 0x6FAAB, offset: 0x2A7C90, size: 0x8, addend: 0x0, symName: '__ZNSt3__110__function6__funcIZN4onnx11GetOpSchemaINS2_24RandomUniform_Onnx_ver22EEENS2_8OpSchemaEvE3$_2NS_9allocatorIS6_EEFvRNS2_16InferenceContextEEEclESA_', symObjAddr: 0xBF50, symBinAddr: 0xBB572C, symSize: 0xF4 }
  - { offsetInCU: 0x7017D, offset: 0x2A8362, size: 0x8, addend: 0x0, symName: '__ZNKSt3__110__function6__funcIZN4onnx11GetOpSchemaINS2_24RandomUniform_Onnx_ver22EEENS2_8OpSchemaEvE3$_2NS_9allocatorIS6_EEFvRNS2_16InferenceContextEEE6targetERKSt9type_info', symObjAddr: 0xC044, symBinAddr: 0xBB5820, symSize: 0x60 }
  - { offsetInCU: 0x70202, offset: 0x2A83E7, size: 0x8, addend: 0x0, symName: '__ZNKSt3__110__function6__funcIZN4onnx11GetOpSchemaINS2_24RandomUniform_Onnx_ver22EEENS2_8OpSchemaEvE3$_2NS_9allocatorIS6_EEFvRNS2_16InferenceContextEEE11target_typeEv', symObjAddr: 0xC0A4, symBinAddr: 0xBB5880, symSize: 0xC }
  - { offsetInCU: 0x7043B, offset: 0x2A8620, size: 0x8, addend: 0x0, symName: '__ZNSt3__110__function6__funcIZN4onnx11GetOpSchemaINS2_23RandomNormal_Onnx_ver22EEENS2_8OpSchemaEvE3$_3NS_9allocatorIS6_EEFvRNS2_16InferenceContextEEED1Ev', symObjAddr: 0xD068, symBinAddr: 0xBB588C, symSize: 0x4 }
  - { offsetInCU: 0x70467, offset: 0x2A864C, size: 0x8, addend: 0x0, symName: '__ZNSt3__110__function6__funcIZN4onnx11GetOpSchemaINS2_23RandomNormal_Onnx_ver22EEENS2_8OpSchemaEvE3$_3NS_9allocatorIS6_EEFvRNS2_16InferenceContextEEED0Ev', symObjAddr: 0xD06C, symBinAddr: 0xBB5890, symSize: 0x4 }
  - { offsetInCU: 0x70521, offset: 0x2A8706, size: 0x8, addend: 0x0, symName: '__ZNKSt3__110__function6__funcIZN4onnx11GetOpSchemaINS2_23RandomNormal_Onnx_ver22EEENS2_8OpSchemaEvE3$_3NS_9allocatorIS6_EEFvRNS2_16InferenceContextEEE7__cloneEv', symObjAddr: 0xD070, symBinAddr: 0xBB5894, symSize: 0x24 }
  - { offsetInCU: 0x70669, offset: 0x2A884E, size: 0x8, addend: 0x0, symName: '__ZNKSt3__110__function6__funcIZN4onnx11GetOpSchemaINS2_23RandomNormal_Onnx_ver22EEENS2_8OpSchemaEvE3$_3NS_9allocatorIS6_EEFvRNS2_16InferenceContextEEE7__cloneEPNS0_6__baseISB_EE', symObjAddr: 0xD094, symBinAddr: 0xBB58B8, symSize: 0x10 }
  - { offsetInCU: 0x7069F, offset: 0x2A8884, size: 0x8, addend: 0x0, symName: '__ZNKSt3__110__function6__funcIZN4onnx11GetOpSchemaINS2_23RandomNormal_Onnx_ver22EEENS2_8OpSchemaEvE3$_3NS_9allocatorIS6_EEFvRNS2_16InferenceContextEEE7__cloneEPNS0_6__baseISB_EE', symObjAddr: 0xD094, symBinAddr: 0xBB58B8, symSize: 0x10 }
  - { offsetInCU: 0x706BB, offset: 0x2A88A0, size: 0x8, addend: 0x0, symName: '__ZNKSt3__110__function6__funcIZN4onnx11GetOpSchemaINS2_23RandomNormal_Onnx_ver22EEENS2_8OpSchemaEvE3$_3NS_9allocatorIS6_EEFvRNS2_16InferenceContextEEE7__cloneEPNS0_6__baseISB_EE', symObjAddr: 0xD094, symBinAddr: 0xBB58B8, symSize: 0x10 }
  - { offsetInCU: 0x706D7, offset: 0x2A88BC, size: 0x8, addend: 0x0, symName: '__ZNSt3__110__function6__funcIZN4onnx11GetOpSchemaINS2_23RandomNormal_Onnx_ver22EEENS2_8OpSchemaEvE3$_3NS_9allocatorIS6_EEFvRNS2_16InferenceContextEEE7destroyEv', symObjAddr: 0xD0A4, symBinAddr: 0xBB58C8, symSize: 0x4 }
  - { offsetInCU: 0x70728, offset: 0x2A890D, size: 0x8, addend: 0x0, symName: '__ZNSt3__110__function6__funcIZN4onnx11GetOpSchemaINS2_23RandomNormal_Onnx_ver22EEENS2_8OpSchemaEvE3$_3NS_9allocatorIS6_EEFvRNS2_16InferenceContextEEE18destroy_deallocateEv', symObjAddr: 0xD0A8, symBinAddr: 0xBB58CC, symSize: 0x4 }
  - { offsetInCU: 0x7075D, offset: 0x2A8942, size: 0x8, addend: 0x0, symName: '__ZNSt3__110__function6__funcIZN4onnx11GetOpSchemaINS2_23RandomNormal_Onnx_ver22EEENS2_8OpSchemaEvE3$_3NS_9allocatorIS6_EEFvRNS2_16InferenceContextEEE18destroy_deallocateEv', symObjAddr: 0xD0A8, symBinAddr: 0xBB58CC, symSize: 0x4 }
  - { offsetInCU: 0x7077F, offset: 0x2A8964, size: 0x8, addend: 0x0, symName: '__ZNSt3__110__function6__funcIZN4onnx11GetOpSchemaINS2_23RandomNormal_Onnx_ver22EEENS2_8OpSchemaEvE3$_3NS_9allocatorIS6_EEFvRNS2_16InferenceContextEEE18destroy_deallocateEv', symObjAddr: 0xD0A8, symBinAddr: 0xBB58CC, symSize: 0x4 }
  - { offsetInCU: 0x707AA, offset: 0x2A898F, size: 0x8, addend: 0x0, symName: '__ZNSt3__110__function6__funcIZN4onnx11GetOpSchemaINS2_23RandomNormal_Onnx_ver22EEENS2_8OpSchemaEvE3$_3NS_9allocatorIS6_EEFvRNS2_16InferenceContextEEE18destroy_deallocateEv', symObjAddr: 0xD0A8, symBinAddr: 0xBB58CC, symSize: 0x4 }
  - { offsetInCU: 0x707D0, offset: 0x2A89B5, size: 0x8, addend: 0x0, symName: '__ZNSt3__110__function6__funcIZN4onnx11GetOpSchemaINS2_23RandomNormal_Onnx_ver22EEENS2_8OpSchemaEvE3$_3NS_9allocatorIS6_EEFvRNS2_16InferenceContextEEE18destroy_deallocateEv', symObjAddr: 0xD0A8, symBinAddr: 0xBB58CC, symSize: 0x4 }
  - { offsetInCU: 0x7087C, offset: 0x2A8A61, size: 0x8, addend: 0x0, symName: '__ZNSt3__110__function6__funcIZN4onnx11GetOpSchemaINS2_23RandomNormal_Onnx_ver22EEENS2_8OpSchemaEvE3$_3NS_9allocatorIS6_EEFvRNS2_16InferenceContextEEEclESA_', symObjAddr: 0xD0AC, symBinAddr: 0xBB58D0, symSize: 0xF4 }
  - { offsetInCU: 0x70F4E, offset: 0x2A9133, size: 0x8, addend: 0x0, symName: '__ZNKSt3__110__function6__funcIZN4onnx11GetOpSchemaINS2_23RandomNormal_Onnx_ver22EEENS2_8OpSchemaEvE3$_3NS_9allocatorIS6_EEFvRNS2_16InferenceContextEEE6targetERKSt9type_info', symObjAddr: 0xD1A0, symBinAddr: 0xBB59C4, symSize: 0x60 }
  - { offsetInCU: 0x70FD3, offset: 0x2A91B8, size: 0x8, addend: 0x0, symName: '__ZNKSt3__110__function6__funcIZN4onnx11GetOpSchemaINS2_23RandomNormal_Onnx_ver22EEENS2_8OpSchemaEvE3$_3NS_9allocatorIS6_EEFvRNS2_16InferenceContextEEE11target_typeEv', symObjAddr: 0xD200, symBinAddr: 0xBB5A24, symSize: 0xC }
  - { offsetInCU: 0x70FF8, offset: 0x2A91DD, size: 0x8, addend: 0x0, symName: '__ZNSt3__110__function6__funcIZN4onnx11GetOpSchemaINS2_28RandomUniformLike_Onnx_ver22EEENS2_8OpSchemaEvE3$_4NS_9allocatorIS6_EEFvRNS2_16InferenceContextEEED1Ev', symObjAddr: 0xD20C, symBinAddr: 0xBB5A30, symSize: 0x4 }
  - { offsetInCU: 0x71024, offset: 0x2A9209, size: 0x8, addend: 0x0, symName: '__ZNSt3__110__function6__funcIZN4onnx11GetOpSchemaINS2_28RandomUniformLike_Onnx_ver22EEENS2_8OpSchemaEvE3$_4NS_9allocatorIS6_EEFvRNS2_16InferenceContextEEED0Ev', symObjAddr: 0xD210, symBinAddr: 0xBB5A34, symSize: 0x4 }
  - { offsetInCU: 0x710DE, offset: 0x2A92C3, size: 0x8, addend: 0x0, symName: '__ZNKSt3__110__function6__funcIZN4onnx11GetOpSchemaINS2_28RandomUniformLike_Onnx_ver22EEENS2_8OpSchemaEvE3$_4NS_9allocatorIS6_EEFvRNS2_16InferenceContextEEE7__cloneEv', symObjAddr: 0xD214, symBinAddr: 0xBB5A38, symSize: 0x24 }
  - { offsetInCU: 0x71226, offset: 0x2A940B, size: 0x8, addend: 0x0, symName: '__ZNKSt3__110__function6__funcIZN4onnx11GetOpSchemaINS2_28RandomUniformLike_Onnx_ver22EEENS2_8OpSchemaEvE3$_4NS_9allocatorIS6_EEFvRNS2_16InferenceContextEEE7__cloneEPNS0_6__baseISB_EE', symObjAddr: 0xD238, symBinAddr: 0xBB5A5C, symSize: 0x10 }
  - { offsetInCU: 0x7125C, offset: 0x2A9441, size: 0x8, addend: 0x0, symName: '__ZNKSt3__110__function6__funcIZN4onnx11GetOpSchemaINS2_28RandomUniformLike_Onnx_ver22EEENS2_8OpSchemaEvE3$_4NS_9allocatorIS6_EEFvRNS2_16InferenceContextEEE7__cloneEPNS0_6__baseISB_EE', symObjAddr: 0xD238, symBinAddr: 0xBB5A5C, symSize: 0x10 }
  - { offsetInCU: 0x71278, offset: 0x2A945D, size: 0x8, addend: 0x0, symName: '__ZNKSt3__110__function6__funcIZN4onnx11GetOpSchemaINS2_28RandomUniformLike_Onnx_ver22EEENS2_8OpSchemaEvE3$_4NS_9allocatorIS6_EEFvRNS2_16InferenceContextEEE7__cloneEPNS0_6__baseISB_EE', symObjAddr: 0xD238, symBinAddr: 0xBB5A5C, symSize: 0x10 }
  - { offsetInCU: 0x71294, offset: 0x2A9479, size: 0x8, addend: 0x0, symName: '__ZNSt3__110__function6__funcIZN4onnx11GetOpSchemaINS2_28RandomUniformLike_Onnx_ver22EEENS2_8OpSchemaEvE3$_4NS_9allocatorIS6_EEFvRNS2_16InferenceContextEEE7destroyEv', symObjAddr: 0xD248, symBinAddr: 0xBB5A6C, symSize: 0x4 }
  - { offsetInCU: 0x712E5, offset: 0x2A94CA, size: 0x8, addend: 0x0, symName: '__ZNSt3__110__function6__funcIZN4onnx11GetOpSchemaINS2_28RandomUniformLike_Onnx_ver22EEENS2_8OpSchemaEvE3$_4NS_9allocatorIS6_EEFvRNS2_16InferenceContextEEE18destroy_deallocateEv', symObjAddr: 0xD24C, symBinAddr: 0xBB5A70, symSize: 0x4 }
  - { offsetInCU: 0x7131A, offset: 0x2A94FF, size: 0x8, addend: 0x0, symName: '__ZNSt3__110__function6__funcIZN4onnx11GetOpSchemaINS2_28RandomUniformLike_Onnx_ver22EEENS2_8OpSchemaEvE3$_4NS_9allocatorIS6_EEFvRNS2_16InferenceContextEEE18destroy_deallocateEv', symObjAddr: 0xD24C, symBinAddr: 0xBB5A70, symSize: 0x4 }
  - { offsetInCU: 0x7133C, offset: 0x2A9521, size: 0x8, addend: 0x0, symName: '__ZNSt3__110__function6__funcIZN4onnx11GetOpSchemaINS2_28RandomUniformLike_Onnx_ver22EEENS2_8OpSchemaEvE3$_4NS_9allocatorIS6_EEFvRNS2_16InferenceContextEEE18destroy_deallocateEv', symObjAddr: 0xD24C, symBinAddr: 0xBB5A70, symSize: 0x4 }
  - { offsetInCU: 0x71367, offset: 0x2A954C, size: 0x8, addend: 0x0, symName: '__ZNSt3__110__function6__funcIZN4onnx11GetOpSchemaINS2_28RandomUniformLike_Onnx_ver22EEENS2_8OpSchemaEvE3$_4NS_9allocatorIS6_EEFvRNS2_16InferenceContextEEE18destroy_deallocateEv', symObjAddr: 0xD24C, symBinAddr: 0xBB5A70, symSize: 0x4 }
  - { offsetInCU: 0x7138D, offset: 0x2A9572, size: 0x8, addend: 0x0, symName: '__ZNSt3__110__function6__funcIZN4onnx11GetOpSchemaINS2_28RandomUniformLike_Onnx_ver22EEENS2_8OpSchemaEvE3$_4NS_9allocatorIS6_EEFvRNS2_16InferenceContextEEE18destroy_deallocateEv', symObjAddr: 0xD24C, symBinAddr: 0xBB5A70, symSize: 0x4 }
  - { offsetInCU: 0x7143B, offset: 0x2A9620, size: 0x8, addend: 0x0, symName: '__ZNSt3__110__function6__funcIZN4onnx11GetOpSchemaINS2_28RandomUniformLike_Onnx_ver22EEENS2_8OpSchemaEvE3$_4NS_9allocatorIS6_EEFvRNS2_16InferenceContextEEEclESA_', symObjAddr: 0xD250, symBinAddr: 0xBB5A74, symSize: 0x1E0 }
  - { offsetInCU: 0x71C9B, offset: 0x2A9E80, size: 0x8, addend: 0x0, symName: '__ZNKSt3__110__function6__funcIZN4onnx11GetOpSchemaINS2_28RandomUniformLike_Onnx_ver22EEENS2_8OpSchemaEvE3$_4NS_9allocatorIS6_EEFvRNS2_16InferenceContextEEE6targetERKSt9type_info', symObjAddr: 0xD430, symBinAddr: 0xBB5C54, symSize: 0x60 }
  - { offsetInCU: 0x71D20, offset: 0x2A9F05, size: 0x8, addend: 0x0, symName: '__ZNKSt3__110__function6__funcIZN4onnx11GetOpSchemaINS2_28RandomUniformLike_Onnx_ver22EEENS2_8OpSchemaEvE3$_4NS_9allocatorIS6_EEFvRNS2_16InferenceContextEEE11target_typeEv', symObjAddr: 0xD490, symBinAddr: 0xBB5CB4, symSize: 0xC }
  - { offsetInCU: 0x71D45, offset: 0x2A9F2A, size: 0x8, addend: 0x0, symName: '__ZNSt3__110__function6__funcIZN4onnx11GetOpSchemaINS2_27RandomNormalLike_Onnx_ver22EEENS2_8OpSchemaEvE3$_5NS_9allocatorIS6_EEFvRNS2_16InferenceContextEEED1Ev', symObjAddr: 0xD49C, symBinAddr: 0xBB5CC0, symSize: 0x4 }
  - { offsetInCU: 0x71D71, offset: 0x2A9F56, size: 0x8, addend: 0x0, symName: '__ZNSt3__110__function6__funcIZN4onnx11GetOpSchemaINS2_27RandomNormalLike_Onnx_ver22EEENS2_8OpSchemaEvE3$_5NS_9allocatorIS6_EEFvRNS2_16InferenceContextEEED0Ev', symObjAddr: 0xD4A0, symBinAddr: 0xBB5CC4, symSize: 0x4 }
  - { offsetInCU: 0x71E2B, offset: 0x2AA010, size: 0x8, addend: 0x0, symName: '__ZNKSt3__110__function6__funcIZN4onnx11GetOpSchemaINS2_27RandomNormalLike_Onnx_ver22EEENS2_8OpSchemaEvE3$_5NS_9allocatorIS6_EEFvRNS2_16InferenceContextEEE7__cloneEv', symObjAddr: 0xD4A4, symBinAddr: 0xBB5CC8, symSize: 0x24 }
  - { offsetInCU: 0x71F73, offset: 0x2AA158, size: 0x8, addend: 0x0, symName: '__ZNKSt3__110__function6__funcIZN4onnx11GetOpSchemaINS2_27RandomNormalLike_Onnx_ver22EEENS2_8OpSchemaEvE3$_5NS_9allocatorIS6_EEFvRNS2_16InferenceContextEEE7__cloneEPNS0_6__baseISB_EE', symObjAddr: 0xD4C8, symBinAddr: 0xBB5CEC, symSize: 0x10 }
  - { offsetInCU: 0x71FA9, offset: 0x2AA18E, size: 0x8, addend: 0x0, symName: '__ZNKSt3__110__function6__funcIZN4onnx11GetOpSchemaINS2_27RandomNormalLike_Onnx_ver22EEENS2_8OpSchemaEvE3$_5NS_9allocatorIS6_EEFvRNS2_16InferenceContextEEE7__cloneEPNS0_6__baseISB_EE', symObjAddr: 0xD4C8, symBinAddr: 0xBB5CEC, symSize: 0x10 }
  - { offsetInCU: 0x71FC5, offset: 0x2AA1AA, size: 0x8, addend: 0x0, symName: '__ZNKSt3__110__function6__funcIZN4onnx11GetOpSchemaINS2_27RandomNormalLike_Onnx_ver22EEENS2_8OpSchemaEvE3$_5NS_9allocatorIS6_EEFvRNS2_16InferenceContextEEE7__cloneEPNS0_6__baseISB_EE', symObjAddr: 0xD4C8, symBinAddr: 0xBB5CEC, symSize: 0x10 }
  - { offsetInCU: 0x71FE1, offset: 0x2AA1C6, size: 0x8, addend: 0x0, symName: '__ZNSt3__110__function6__funcIZN4onnx11GetOpSchemaINS2_27RandomNormalLike_Onnx_ver22EEENS2_8OpSchemaEvE3$_5NS_9allocatorIS6_EEFvRNS2_16InferenceContextEEE7destroyEv', symObjAddr: 0xD4D8, symBinAddr: 0xBB5CFC, symSize: 0x4 }
  - { offsetInCU: 0x72032, offset: 0x2AA217, size: 0x8, addend: 0x0, symName: '__ZNSt3__110__function6__funcIZN4onnx11GetOpSchemaINS2_27RandomNormalLike_Onnx_ver22EEENS2_8OpSchemaEvE3$_5NS_9allocatorIS6_EEFvRNS2_16InferenceContextEEE18destroy_deallocateEv', symObjAddr: 0xD4DC, symBinAddr: 0xBB5D00, symSize: 0x4 }
  - { offsetInCU: 0x72067, offset: 0x2AA24C, size: 0x8, addend: 0x0, symName: '__ZNSt3__110__function6__funcIZN4onnx11GetOpSchemaINS2_27RandomNormalLike_Onnx_ver22EEENS2_8OpSchemaEvE3$_5NS_9allocatorIS6_EEFvRNS2_16InferenceContextEEE18destroy_deallocateEv', symObjAddr: 0xD4DC, symBinAddr: 0xBB5D00, symSize: 0x4 }
  - { offsetInCU: 0x72089, offset: 0x2AA26E, size: 0x8, addend: 0x0, symName: '__ZNSt3__110__function6__funcIZN4onnx11GetOpSchemaINS2_27RandomNormalLike_Onnx_ver22EEENS2_8OpSchemaEvE3$_5NS_9allocatorIS6_EEFvRNS2_16InferenceContextEEE18destroy_deallocateEv', symObjAddr: 0xD4DC, symBinAddr: 0xBB5D00, symSize: 0x4 }
  - { offsetInCU: 0x720B4, offset: 0x2AA299, size: 0x8, addend: 0x0, symName: '__ZNSt3__110__function6__funcIZN4onnx11GetOpSchemaINS2_27RandomNormalLike_Onnx_ver22EEENS2_8OpSchemaEvE3$_5NS_9allocatorIS6_EEFvRNS2_16InferenceContextEEE18destroy_deallocateEv', symObjAddr: 0xD4DC, symBinAddr: 0xBB5D00, symSize: 0x4 }
  - { offsetInCU: 0x720DA, offset: 0x2AA2BF, size: 0x8, addend: 0x0, symName: '__ZNSt3__110__function6__funcIZN4onnx11GetOpSchemaINS2_27RandomNormalLike_Onnx_ver22EEENS2_8OpSchemaEvE3$_5NS_9allocatorIS6_EEFvRNS2_16InferenceContextEEE18destroy_deallocateEv', symObjAddr: 0xD4DC, symBinAddr: 0xBB5D00, symSize: 0x4 }
  - { offsetInCU: 0x72188, offset: 0x2AA36D, size: 0x8, addend: 0x0, symName: '__ZNSt3__110__function6__funcIZN4onnx11GetOpSchemaINS2_27RandomNormalLike_Onnx_ver22EEENS2_8OpSchemaEvE3$_5NS_9allocatorIS6_EEFvRNS2_16InferenceContextEEEclESA_', symObjAddr: 0xD4E0, symBinAddr: 0xBB5D04, symSize: 0x1E0 }
  - { offsetInCU: 0x729E8, offset: 0x2AABCD, size: 0x8, addend: 0x0, symName: '__ZNKSt3__110__function6__funcIZN4onnx11GetOpSchemaINS2_27RandomNormalLike_Onnx_ver22EEENS2_8OpSchemaEvE3$_5NS_9allocatorIS6_EEFvRNS2_16InferenceContextEEE6targetERKSt9type_info', symObjAddr: 0xD6C0, symBinAddr: 0xBB5EE4, symSize: 0x60 }
  - { offsetInCU: 0x72A6D, offset: 0x2AAC52, size: 0x8, addend: 0x0, symName: '__ZNKSt3__110__function6__funcIZN4onnx11GetOpSchemaINS2_27RandomNormalLike_Onnx_ver22EEENS2_8OpSchemaEvE3$_5NS_9allocatorIS6_EEFvRNS2_16InferenceContextEEE11target_typeEv', symObjAddr: 0xD720, symBinAddr: 0xBB5F44, symSize: 0xC }
  - { offsetInCU: 0x72A92, offset: 0x2AAC77, size: 0x8, addend: 0x0, symName: '__ZNSt3__110__function6__funcIZN4onnx11GetOpSchemaINS2_22Multinomial_Onnx_ver22EEENS2_8OpSchemaEvE3$_6NS_9allocatorIS6_EEFvRNS2_16InferenceContextEEED1Ev', symObjAddr: 0xD72C, symBinAddr: 0xBB5F50, symSize: 0x4 }
  - { offsetInCU: 0x72ABE, offset: 0x2AACA3, size: 0x8, addend: 0x0, symName: '__ZNSt3__110__function6__funcIZN4onnx11GetOpSchemaINS2_22Multinomial_Onnx_ver22EEENS2_8OpSchemaEvE3$_6NS_9allocatorIS6_EEFvRNS2_16InferenceContextEEED0Ev', symObjAddr: 0xD730, symBinAddr: 0xBB5F54, symSize: 0x4 }
  - { offsetInCU: 0x72B78, offset: 0x2AAD5D, size: 0x8, addend: 0x0, symName: '__ZNKSt3__110__function6__funcIZN4onnx11GetOpSchemaINS2_22Multinomial_Onnx_ver22EEENS2_8OpSchemaEvE3$_6NS_9allocatorIS6_EEFvRNS2_16InferenceContextEEE7__cloneEv', symObjAddr: 0xD734, symBinAddr: 0xBB5F58, symSize: 0x24 }
  - { offsetInCU: 0x72CC0, offset: 0x2AAEA5, size: 0x8, addend: 0x0, symName: '__ZNKSt3__110__function6__funcIZN4onnx11GetOpSchemaINS2_22Multinomial_Onnx_ver22EEENS2_8OpSchemaEvE3$_6NS_9allocatorIS6_EEFvRNS2_16InferenceContextEEE7__cloneEPNS0_6__baseISB_EE', symObjAddr: 0xD758, symBinAddr: 0xBB5F7C, symSize: 0x10 }
  - { offsetInCU: 0x72CF6, offset: 0x2AAEDB, size: 0x8, addend: 0x0, symName: '__ZNKSt3__110__function6__funcIZN4onnx11GetOpSchemaINS2_22Multinomial_Onnx_ver22EEENS2_8OpSchemaEvE3$_6NS_9allocatorIS6_EEFvRNS2_16InferenceContextEEE7__cloneEPNS0_6__baseISB_EE', symObjAddr: 0xD758, symBinAddr: 0xBB5F7C, symSize: 0x10 }
  - { offsetInCU: 0x72D12, offset: 0x2AAEF7, size: 0x8, addend: 0x0, symName: '__ZNKSt3__110__function6__funcIZN4onnx11GetOpSchemaINS2_22Multinomial_Onnx_ver22EEENS2_8OpSchemaEvE3$_6NS_9allocatorIS6_EEFvRNS2_16InferenceContextEEE7__cloneEPNS0_6__baseISB_EE', symObjAddr: 0xD758, symBinAddr: 0xBB5F7C, symSize: 0x10 }
  - { offsetInCU: 0x72D2E, offset: 0x2AAF13, size: 0x8, addend: 0x0, symName: '__ZNSt3__110__function6__funcIZN4onnx11GetOpSchemaINS2_22Multinomial_Onnx_ver22EEENS2_8OpSchemaEvE3$_6NS_9allocatorIS6_EEFvRNS2_16InferenceContextEEE7destroyEv', symObjAddr: 0xD768, symBinAddr: 0xBB5F8C, symSize: 0x4 }
  - { offsetInCU: 0x72D7F, offset: 0x2AAF64, size: 0x8, addend: 0x0, symName: '__ZNSt3__110__function6__funcIZN4onnx11GetOpSchemaINS2_22Multinomial_Onnx_ver22EEENS2_8OpSchemaEvE3$_6NS_9allocatorIS6_EEFvRNS2_16InferenceContextEEE18destroy_deallocateEv', symObjAddr: 0xD76C, symBinAddr: 0xBB5F90, symSize: 0x4 }
  - { offsetInCU: 0x72DB4, offset: 0x2AAF99, size: 0x8, addend: 0x0, symName: '__ZNSt3__110__function6__funcIZN4onnx11GetOpSchemaINS2_22Multinomial_Onnx_ver22EEENS2_8OpSchemaEvE3$_6NS_9allocatorIS6_EEFvRNS2_16InferenceContextEEE18destroy_deallocateEv', symObjAddr: 0xD76C, symBinAddr: 0xBB5F90, symSize: 0x4 }
  - { offsetInCU: 0x72DD6, offset: 0x2AAFBB, size: 0x8, addend: 0x0, symName: '__ZNSt3__110__function6__funcIZN4onnx11GetOpSchemaINS2_22Multinomial_Onnx_ver22EEENS2_8OpSchemaEvE3$_6NS_9allocatorIS6_EEFvRNS2_16InferenceContextEEE18destroy_deallocateEv', symObjAddr: 0xD76C, symBinAddr: 0xBB5F90, symSize: 0x4 }
  - { offsetInCU: 0x72E01, offset: 0x2AAFE6, size: 0x8, addend: 0x0, symName: '__ZNSt3__110__function6__funcIZN4onnx11GetOpSchemaINS2_22Multinomial_Onnx_ver22EEENS2_8OpSchemaEvE3$_6NS_9allocatorIS6_EEFvRNS2_16InferenceContextEEE18destroy_deallocateEv', symObjAddr: 0xD76C, symBinAddr: 0xBB5F90, symSize: 0x4 }
  - { offsetInCU: 0x72E27, offset: 0x2AB00C, size: 0x8, addend: 0x0, symName: '__ZNSt3__110__function6__funcIZN4onnx11GetOpSchemaINS2_22Multinomial_Onnx_ver22EEENS2_8OpSchemaEvE3$_6NS_9allocatorIS6_EEFvRNS2_16InferenceContextEEE18destroy_deallocateEv', symObjAddr: 0xD76C, symBinAddr: 0xBB5F90, symSize: 0x4 }
  - { offsetInCU: 0x73000, offset: 0x2AB1E5, size: 0x8, addend: 0x0, symName: '__ZNSt3__110__function6__funcIZN4onnx11GetOpSchemaINS2_22Multinomial_Onnx_ver22EEENS2_8OpSchemaEvE3$_6NS_9allocatorIS6_EEFvRNS2_16InferenceContextEEEclESA_', symObjAddr: 0xD770, symBinAddr: 0xBB5F94, symSize: 0x4F4 }
  - { offsetInCU: 0x74320, offset: 0x2AC505, size: 0x8, addend: 0x0, symName: '__ZNKSt3__110__function6__funcIZN4onnx11GetOpSchemaINS2_22Multinomial_Onnx_ver22EEENS2_8OpSchemaEvE3$_6NS_9allocatorIS6_EEFvRNS2_16InferenceContextEEE6targetERKSt9type_info', symObjAddr: 0xDC64, symBinAddr: 0xBB6488, symSize: 0x60 }
  - { offsetInCU: 0x743A5, offset: 0x2AC58A, size: 0x8, addend: 0x0, symName: '__ZNKSt3__110__function6__funcIZN4onnx11GetOpSchemaINS2_22Multinomial_Onnx_ver22EEENS2_8OpSchemaEvE3$_6NS_9allocatorIS6_EEFvRNS2_16InferenceContextEEE11target_typeEv', symObjAddr: 0xDCC4, symBinAddr: 0xBB64E8, symSize: 0xC }
  - { offsetInCU: 0x743E3, offset: 0x2AC5C8, size: 0x8, addend: 0x0, symName: '__ZNSt3__110__function6__funcIZN4onnx11GetOpSchemaINS2_16Range_Onnx_ver11EEENS2_8OpSchemaEvE3$_7NS_9allocatorIS6_EEFvRNS2_16InferenceContextEEED1Ev', symObjAddr: 0xE080, symBinAddr: 0xBB66CC, symSize: 0x4 }
  - { offsetInCU: 0x7440F, offset: 0x2AC5F4, size: 0x8, addend: 0x0, symName: '__ZNSt3__110__function6__funcIZN4onnx11GetOpSchemaINS2_16Range_Onnx_ver11EEENS2_8OpSchemaEvE3$_7NS_9allocatorIS6_EEFvRNS2_16InferenceContextEEED0Ev', symObjAddr: 0xE084, symBinAddr: 0xBB66D0, symSize: 0x4 }
  - { offsetInCU: 0x744C9, offset: 0x2AC6AE, size: 0x8, addend: 0x0, symName: '__ZNKSt3__110__function6__funcIZN4onnx11GetOpSchemaINS2_16Range_Onnx_ver11EEENS2_8OpSchemaEvE3$_7NS_9allocatorIS6_EEFvRNS2_16InferenceContextEEE7__cloneEv', symObjAddr: 0xE088, symBinAddr: 0xBB66D4, symSize: 0x24 }
  - { offsetInCU: 0x74611, offset: 0x2AC7F6, size: 0x8, addend: 0x0, symName: '__ZNKSt3__110__function6__funcIZN4onnx11GetOpSchemaINS2_16Range_Onnx_ver11EEENS2_8OpSchemaEvE3$_7NS_9allocatorIS6_EEFvRNS2_16InferenceContextEEE7__cloneEPNS0_6__baseISB_EE', symObjAddr: 0xE0AC, symBinAddr: 0xBB66F8, symSize: 0x10 }
  - { offsetInCU: 0x74647, offset: 0x2AC82C, size: 0x8, addend: 0x0, symName: '__ZNKSt3__110__function6__funcIZN4onnx11GetOpSchemaINS2_16Range_Onnx_ver11EEENS2_8OpSchemaEvE3$_7NS_9allocatorIS6_EEFvRNS2_16InferenceContextEEE7__cloneEPNS0_6__baseISB_EE', symObjAddr: 0xE0AC, symBinAddr: 0xBB66F8, symSize: 0x10 }
  - { offsetInCU: 0x74663, offset: 0x2AC848, size: 0x8, addend: 0x0, symName: '__ZNKSt3__110__function6__funcIZN4onnx11GetOpSchemaINS2_16Range_Onnx_ver11EEENS2_8OpSchemaEvE3$_7NS_9allocatorIS6_EEFvRNS2_16InferenceContextEEE7__cloneEPNS0_6__baseISB_EE', symObjAddr: 0xE0AC, symBinAddr: 0xBB66F8, symSize: 0x10 }
  - { offsetInCU: 0x7467F, offset: 0x2AC864, size: 0x8, addend: 0x0, symName: '__ZNSt3__110__function6__funcIZN4onnx11GetOpSchemaINS2_16Range_Onnx_ver11EEENS2_8OpSchemaEvE3$_7NS_9allocatorIS6_EEFvRNS2_16InferenceContextEEE7destroyEv', symObjAddr: 0xE0BC, symBinAddr: 0xBB6708, symSize: 0x4 }
  - { offsetInCU: 0x746D0, offset: 0x2AC8B5, size: 0x8, addend: 0x0, symName: '__ZNSt3__110__function6__funcIZN4onnx11GetOpSchemaINS2_16Range_Onnx_ver11EEENS2_8OpSchemaEvE3$_7NS_9allocatorIS6_EEFvRNS2_16InferenceContextEEE18destroy_deallocateEv', symObjAddr: 0xE0C0, symBinAddr: 0xBB670C, symSize: 0x4 }
  - { offsetInCU: 0x74705, offset: 0x2AC8EA, size: 0x8, addend: 0x0, symName: '__ZNSt3__110__function6__funcIZN4onnx11GetOpSchemaINS2_16Range_Onnx_ver11EEENS2_8OpSchemaEvE3$_7NS_9allocatorIS6_EEFvRNS2_16InferenceContextEEE18destroy_deallocateEv', symObjAddr: 0xE0C0, symBinAddr: 0xBB670C, symSize: 0x4 }
  - { offsetInCU: 0x74727, offset: 0x2AC90C, size: 0x8, addend: 0x0, symName: '__ZNSt3__110__function6__funcIZN4onnx11GetOpSchemaINS2_16Range_Onnx_ver11EEENS2_8OpSchemaEvE3$_7NS_9allocatorIS6_EEFvRNS2_16InferenceContextEEE18destroy_deallocateEv', symObjAddr: 0xE0C0, symBinAddr: 0xBB670C, symSize: 0x4 }
  - { offsetInCU: 0x74752, offset: 0x2AC937, size: 0x8, addend: 0x0, symName: '__ZNSt3__110__function6__funcIZN4onnx11GetOpSchemaINS2_16Range_Onnx_ver11EEENS2_8OpSchemaEvE3$_7NS_9allocatorIS6_EEFvRNS2_16InferenceContextEEE18destroy_deallocateEv', symObjAddr: 0xE0C0, symBinAddr: 0xBB670C, symSize: 0x4 }
  - { offsetInCU: 0x74778, offset: 0x2AC95D, size: 0x8, addend: 0x0, symName: '__ZNSt3__110__function6__funcIZN4onnx11GetOpSchemaINS2_16Range_Onnx_ver11EEENS2_8OpSchemaEvE3$_7NS_9allocatorIS6_EEFvRNS2_16InferenceContextEEE18destroy_deallocateEv', symObjAddr: 0xE0C0, symBinAddr: 0xBB670C, symSize: 0x4 }
  - { offsetInCU: 0x74886, offset: 0x2ACA6B, size: 0x8, addend: 0x0, symName: '__ZNSt3__110__function6__funcIZN4onnx11GetOpSchemaINS2_16Range_Onnx_ver11EEENS2_8OpSchemaEvE3$_7NS_9allocatorIS6_EEFvRNS2_16InferenceContextEEEclESA_', symObjAddr: 0xE0C4, symBinAddr: 0xBB6710, symSize: 0x354 }
  - { offsetInCU: 0x74F63, offset: 0x2AD148, size: 0x8, addend: 0x0, symName: '__ZNKSt3__110__function6__funcIZN4onnx11GetOpSchemaINS2_16Range_Onnx_ver11EEENS2_8OpSchemaEvE3$_7NS_9allocatorIS6_EEFvRNS2_16InferenceContextEEE6targetERKSt9type_info', symObjAddr: 0xE418, symBinAddr: 0xBB6A64, symSize: 0x60 }
  - { offsetInCU: 0x74FE8, offset: 0x2AD1CD, size: 0x8, addend: 0x0, symName: '__ZNKSt3__110__function6__funcIZN4onnx11GetOpSchemaINS2_16Range_Onnx_ver11EEENS2_8OpSchemaEvE3$_7NS_9allocatorIS6_EEFvRNS2_16InferenceContextEEE11target_typeEv', symObjAddr: 0xE478, symBinAddr: 0xBB6AC4, symSize: 0xC }
  - { offsetInCU: 0x754AD, offset: 0x2AD692, size: 0x8, addend: 0x0, symName: '__ZNSt3__110__function6__funcIZN4onnx11GetOpSchemaINS2_20Bernoulli_Onnx_ver22EEENS2_8OpSchemaEvE3$_8NS_9allocatorIS6_EEFvRNS2_16InferenceContextEEED1Ev', symObjAddr: 0xEF5C, symBinAddr: 0xBB73D0, symSize: 0x4 }
  - { offsetInCU: 0x754D9, offset: 0x2AD6BE, size: 0x8, addend: 0x0, symName: '__ZNSt3__110__function6__funcIZN4onnx11GetOpSchemaINS2_20Bernoulli_Onnx_ver22EEENS2_8OpSchemaEvE3$_8NS_9allocatorIS6_EEFvRNS2_16InferenceContextEEED0Ev', symObjAddr: 0xEF60, symBinAddr: 0xBB73D4, symSize: 0x4 }
  - { offsetInCU: 0x75593, offset: 0x2AD778, size: 0x8, addend: 0x0, symName: '__ZNKSt3__110__function6__funcIZN4onnx11GetOpSchemaINS2_20Bernoulli_Onnx_ver22EEENS2_8OpSchemaEvE3$_8NS_9allocatorIS6_EEFvRNS2_16InferenceContextEEE7__cloneEv', symObjAddr: 0xEF64, symBinAddr: 0xBB73D8, symSize: 0x24 }
  - { offsetInCU: 0x756DB, offset: 0x2AD8C0, size: 0x8, addend: 0x0, symName: '__ZNKSt3__110__function6__funcIZN4onnx11GetOpSchemaINS2_20Bernoulli_Onnx_ver22EEENS2_8OpSchemaEvE3$_8NS_9allocatorIS6_EEFvRNS2_16InferenceContextEEE7__cloneEPNS0_6__baseISB_EE', symObjAddr: 0xEF88, symBinAddr: 0xBB73FC, symSize: 0x10 }
  - { offsetInCU: 0x75711, offset: 0x2AD8F6, size: 0x8, addend: 0x0, symName: '__ZNKSt3__110__function6__funcIZN4onnx11GetOpSchemaINS2_20Bernoulli_Onnx_ver22EEENS2_8OpSchemaEvE3$_8NS_9allocatorIS6_EEFvRNS2_16InferenceContextEEE7__cloneEPNS0_6__baseISB_EE', symObjAddr: 0xEF88, symBinAddr: 0xBB73FC, symSize: 0x10 }
  - { offsetInCU: 0x7572D, offset: 0x2AD912, size: 0x8, addend: 0x0, symName: '__ZNKSt3__110__function6__funcIZN4onnx11GetOpSchemaINS2_20Bernoulli_Onnx_ver22EEENS2_8OpSchemaEvE3$_8NS_9allocatorIS6_EEFvRNS2_16InferenceContextEEE7__cloneEPNS0_6__baseISB_EE', symObjAddr: 0xEF88, symBinAddr: 0xBB73FC, symSize: 0x10 }
  - { offsetInCU: 0x75749, offset: 0x2AD92E, size: 0x8, addend: 0x0, symName: '__ZNSt3__110__function6__funcIZN4onnx11GetOpSchemaINS2_20Bernoulli_Onnx_ver22EEENS2_8OpSchemaEvE3$_8NS_9allocatorIS6_EEFvRNS2_16InferenceContextEEE7destroyEv', symObjAddr: 0xEF98, symBinAddr: 0xBB740C, symSize: 0x4 }
  - { offsetInCU: 0x7579A, offset: 0x2AD97F, size: 0x8, addend: 0x0, symName: '__ZNSt3__110__function6__funcIZN4onnx11GetOpSchemaINS2_20Bernoulli_Onnx_ver22EEENS2_8OpSchemaEvE3$_8NS_9allocatorIS6_EEFvRNS2_16InferenceContextEEE18destroy_deallocateEv', symObjAddr: 0xEF9C, symBinAddr: 0xBB7410, symSize: 0x4 }
  - { offsetInCU: 0x757CF, offset: 0x2AD9B4, size: 0x8, addend: 0x0, symName: '__ZNSt3__110__function6__funcIZN4onnx11GetOpSchemaINS2_20Bernoulli_Onnx_ver22EEENS2_8OpSchemaEvE3$_8NS_9allocatorIS6_EEFvRNS2_16InferenceContextEEE18destroy_deallocateEv', symObjAddr: 0xEF9C, symBinAddr: 0xBB7410, symSize: 0x4 }
  - { offsetInCU: 0x757F1, offset: 0x2AD9D6, size: 0x8, addend: 0x0, symName: '__ZNSt3__110__function6__funcIZN4onnx11GetOpSchemaINS2_20Bernoulli_Onnx_ver22EEENS2_8OpSchemaEvE3$_8NS_9allocatorIS6_EEFvRNS2_16InferenceContextEEE18destroy_deallocateEv', symObjAddr: 0xEF9C, symBinAddr: 0xBB7410, symSize: 0x4 }
  - { offsetInCU: 0x7581C, offset: 0x2ADA01, size: 0x8, addend: 0x0, symName: '__ZNSt3__110__function6__funcIZN4onnx11GetOpSchemaINS2_20Bernoulli_Onnx_ver22EEENS2_8OpSchemaEvE3$_8NS_9allocatorIS6_EEFvRNS2_16InferenceContextEEE18destroy_deallocateEv', symObjAddr: 0xEF9C, symBinAddr: 0xBB7410, symSize: 0x4 }
  - { offsetInCU: 0x75842, offset: 0x2ADA27, size: 0x8, addend: 0x0, symName: '__ZNSt3__110__function6__funcIZN4onnx11GetOpSchemaINS2_20Bernoulli_Onnx_ver22EEENS2_8OpSchemaEvE3$_8NS_9allocatorIS6_EEFvRNS2_16InferenceContextEEE18destroy_deallocateEv', symObjAddr: 0xEF9C, symBinAddr: 0xBB7410, symSize: 0x4 }
  - { offsetInCU: 0x758F0, offset: 0x2ADAD5, size: 0x8, addend: 0x0, symName: '__ZNSt3__110__function6__funcIZN4onnx11GetOpSchemaINS2_20Bernoulli_Onnx_ver22EEENS2_8OpSchemaEvE3$_8NS_9allocatorIS6_EEFvRNS2_16InferenceContextEEEclESA_', symObjAddr: 0xEFA0, symBinAddr: 0xBB7414, symSize: 0x1E0 }
  - { offsetInCU: 0x76150, offset: 0x2AE335, size: 0x8, addend: 0x0, symName: '__ZNKSt3__110__function6__funcIZN4onnx11GetOpSchemaINS2_20Bernoulli_Onnx_ver22EEENS2_8OpSchemaEvE3$_8NS_9allocatorIS6_EEFvRNS2_16InferenceContextEEE6targetERKSt9type_info', symObjAddr: 0xF180, symBinAddr: 0xBB75F4, symSize: 0x60 }
  - { offsetInCU: 0x761D5, offset: 0x2AE3BA, size: 0x8, addend: 0x0, symName: '__ZNKSt3__110__function6__funcIZN4onnx11GetOpSchemaINS2_20Bernoulli_Onnx_ver22EEENS2_8OpSchemaEvE3$_8NS_9allocatorIS6_EEFvRNS2_16InferenceContextEEE11target_typeEv', symObjAddr: 0xF1E0, symBinAddr: 0xBB7654, symSize: 0xC }
  - { offsetInCU: 0x761FA, offset: 0x2AE3DF, size: 0x8, addend: 0x0, symName: '__ZNSt3__110__function6__funcIZN4onnx11GetOpSchemaINS2_20Bernoulli_Onnx_ver22EEENS2_8OpSchemaEvE3$_9NS_9allocatorIS6_EEFbRKNS2_24FunctionBodyBuildContextERKS5_RNS2_13FunctionProtoEEED1Ev', symObjAddr: 0xF1EC, symBinAddr: 0xBB7660, symSize: 0x4 }
  - { offsetInCU: 0x76226, offset: 0x2AE40B, size: 0x8, addend: 0x0, symName: '__ZNSt3__110__function6__funcIZN4onnx11GetOpSchemaINS2_20Bernoulli_Onnx_ver22EEENS2_8OpSchemaEvE3$_9NS_9allocatorIS6_EEFbRKNS2_24FunctionBodyBuildContextERKS5_RNS2_13FunctionProtoEEED0Ev', symObjAddr: 0xF1F0, symBinAddr: 0xBB7664, symSize: 0x4 }
  - { offsetInCU: 0x762E0, offset: 0x2AE4C5, size: 0x8, addend: 0x0, symName: '__ZNKSt3__110__function6__funcIZN4onnx11GetOpSchemaINS2_20Bernoulli_Onnx_ver22EEENS2_8OpSchemaEvE3$_9NS_9allocatorIS6_EEFbRKNS2_24FunctionBodyBuildContextERKS5_RNS2_13FunctionProtoEEE7__cloneEv', symObjAddr: 0xF1F4, symBinAddr: 0xBB7668, symSize: 0x24 }
  - { offsetInCU: 0x76428, offset: 0x2AE60D, size: 0x8, addend: 0x0, symName: '__ZNKSt3__110__function6__funcIZN4onnx11GetOpSchemaINS2_20Bernoulli_Onnx_ver22EEENS2_8OpSchemaEvE3$_9NS_9allocatorIS6_EEFbRKNS2_24FunctionBodyBuildContextERKS5_RNS2_13FunctionProtoEEE7__cloneEPNS0_6__baseISG_EE', symObjAddr: 0xF218, symBinAddr: 0xBB768C, symSize: 0x10 }
  - { offsetInCU: 0x7645E, offset: 0x2AE643, size: 0x8, addend: 0x0, symName: '__ZNKSt3__110__function6__funcIZN4onnx11GetOpSchemaINS2_20Bernoulli_Onnx_ver22EEENS2_8OpSchemaEvE3$_9NS_9allocatorIS6_EEFbRKNS2_24FunctionBodyBuildContextERKS5_RNS2_13FunctionProtoEEE7__cloneEPNS0_6__baseISG_EE', symObjAddr: 0xF218, symBinAddr: 0xBB768C, symSize: 0x10 }
  - { offsetInCU: 0x7647A, offset: 0x2AE65F, size: 0x8, addend: 0x0, symName: '__ZNKSt3__110__function6__funcIZN4onnx11GetOpSchemaINS2_20Bernoulli_Onnx_ver22EEENS2_8OpSchemaEvE3$_9NS_9allocatorIS6_EEFbRKNS2_24FunctionBodyBuildContextERKS5_RNS2_13FunctionProtoEEE7__cloneEPNS0_6__baseISG_EE', symObjAddr: 0xF218, symBinAddr: 0xBB768C, symSize: 0x10 }
  - { offsetInCU: 0x76496, offset: 0x2AE67B, size: 0x8, addend: 0x0, symName: '__ZNSt3__110__function6__funcIZN4onnx11GetOpSchemaINS2_20Bernoulli_Onnx_ver22EEENS2_8OpSchemaEvE3$_9NS_9allocatorIS6_EEFbRKNS2_24FunctionBodyBuildContextERKS5_RNS2_13FunctionProtoEEE7destroyEv', symObjAddr: 0xF228, symBinAddr: 0xBB769C, symSize: 0x4 }
  - { offsetInCU: 0x764E7, offset: 0x2AE6CC, size: 0x8, addend: 0x0, symName: '__ZNSt3__110__function6__funcIZN4onnx11GetOpSchemaINS2_20Bernoulli_Onnx_ver22EEENS2_8OpSchemaEvE3$_9NS_9allocatorIS6_EEFbRKNS2_24FunctionBodyBuildContextERKS5_RNS2_13FunctionProtoEEE18destroy_deallocateEv', symObjAddr: 0xF22C, symBinAddr: 0xBB76A0, symSize: 0x4 }
  - { offsetInCU: 0x7651C, offset: 0x2AE701, size: 0x8, addend: 0x0, symName: '__ZNSt3__110__function6__funcIZN4onnx11GetOpSchemaINS2_20Bernoulli_Onnx_ver22EEENS2_8OpSchemaEvE3$_9NS_9allocatorIS6_EEFbRKNS2_24FunctionBodyBuildContextERKS5_RNS2_13FunctionProtoEEE18destroy_deallocateEv', symObjAddr: 0xF22C, symBinAddr: 0xBB76A0, symSize: 0x4 }
  - { offsetInCU: 0x7653E, offset: 0x2AE723, size: 0x8, addend: 0x0, symName: '__ZNSt3__110__function6__funcIZN4onnx11GetOpSchemaINS2_20Bernoulli_Onnx_ver22EEENS2_8OpSchemaEvE3$_9NS_9allocatorIS6_EEFbRKNS2_24FunctionBodyBuildContextERKS5_RNS2_13FunctionProtoEEE18destroy_deallocateEv', symObjAddr: 0xF22C, symBinAddr: 0xBB76A0, symSize: 0x4 }
  - { offsetInCU: 0x76569, offset: 0x2AE74E, size: 0x8, addend: 0x0, symName: '__ZNSt3__110__function6__funcIZN4onnx11GetOpSchemaINS2_20Bernoulli_Onnx_ver22EEENS2_8OpSchemaEvE3$_9NS_9allocatorIS6_EEFbRKNS2_24FunctionBodyBuildContextERKS5_RNS2_13FunctionProtoEEE18destroy_deallocateEv', symObjAddr: 0xF22C, symBinAddr: 0xBB76A0, symSize: 0x4 }
  - { offsetInCU: 0x7658F, offset: 0x2AE774, size: 0x8, addend: 0x0, symName: '__ZNSt3__110__function6__funcIZN4onnx11GetOpSchemaINS2_20Bernoulli_Onnx_ver22EEENS2_8OpSchemaEvE3$_9NS_9allocatorIS6_EEFbRKNS2_24FunctionBodyBuildContextERKS5_RNS2_13FunctionProtoEEE18destroy_deallocateEv', symObjAddr: 0xF22C, symBinAddr: 0xBB76A0, symSize: 0x4 }
  - { offsetInCU: 0x7677A, offset: 0x2AE95F, size: 0x8, addend: 0x0, symName: '__ZNSt3__110__function6__funcIZN4onnx11GetOpSchemaINS2_20Bernoulli_Onnx_ver22EEENS2_8OpSchemaEvE3$_9NS_9allocatorIS6_EEFbRKNS2_24FunctionBodyBuildContextERKS5_RNS2_13FunctionProtoEEEclESB_SD_SF_', symObjAddr: 0xF230, symBinAddr: 0xBB76A4, symSize: 0x2CC }
  - { offsetInCU: 0x78051, offset: 0x2B0236, size: 0x8, addend: 0x0, symName: '__ZNKSt3__110__function6__funcIZN4onnx11GetOpSchemaINS2_20Bernoulli_Onnx_ver22EEENS2_8OpSchemaEvE3$_9NS_9allocatorIS6_EEFbRKNS2_24FunctionBodyBuildContextERKS5_RNS2_13FunctionProtoEEE6targetERKSt9type_info', symObjAddr: 0xF4FC, symBinAddr: 0xBB7970, symSize: 0x60 }
  - { offsetInCU: 0x780D6, offset: 0x2B02BB, size: 0x8, addend: 0x0, symName: '__ZNKSt3__110__function6__funcIZN4onnx11GetOpSchemaINS2_20Bernoulli_Onnx_ver22EEENS2_8OpSchemaEvE3$_9NS_9allocatorIS6_EEFbRKNS2_24FunctionBodyBuildContextERKS5_RNS2_13FunctionProtoEEE11target_typeEv', symObjAddr: 0xF55C, symBinAddr: 0xBB79D0, symSize: 0xC }
  - { offsetInCU: 0x786BB, offset: 0x2B08A0, size: 0x8, addend: 0x0, symName: _OUTLINED_FUNCTION_2, symObjAddr: 0xFCA4, symBinAddr: 0xBB79DC, symSize: 0x10 }
  - { offsetInCU: 0xA188, offset: 0x2BB124, size: 0x8, addend: 0x0, symName: __ZN4onnx11GetOpSchemaINS_20Bernoulli_Onnx_ver15EEENS_8OpSchemaEv, symObjAddr: 0x0, symBinAddr: 0xBB79EC, symSize: 0x3B4 }
  - { offsetInCU: 0xAE4F, offset: 0x2BBDEB, size: 0x8, addend: 0x0, symName: __ZN4onnx11GetOpSchemaINS_21Multinomial_Onnx_ver7EEENS_8OpSchemaEv, symObjAddr: 0x4C0, symBinAddr: 0xBB7DA0, symSize: 0x34C }
  - { offsetInCU: 0xB862, offset: 0x2BC7FE, size: 0x8, addend: 0x0, symName: __ZN4onnx11GetOpSchemaINS_26RandomNormalLike_Onnx_ver1EEENS_8OpSchemaEv, symObjAddr: 0x80C, symBinAddr: 0xBB80EC, symSize: 0x45C }
  - { offsetInCU: 0xCF64, offset: 0x2BDF00, size: 0x8, addend: 0x0, symName: __ZN4onnx11GetOpSchemaINS_27RandomUniformLike_Onnx_ver1EEENS_8OpSchemaEv, symObjAddr: 0x12A0, symBinAddr: 0xBB8548, symSize: 0x45C }
  - { offsetInCU: 0xE666, offset: 0x2BF602, size: 0x8, addend: 0x0, symName: __ZN4onnx11GetOpSchemaINS_22RandomNormal_Onnx_ver1EEENS_8OpSchemaEv, symObjAddr: 0x16FC, symBinAddr: 0xBB89A4, symSize: 0x324 }
  - { offsetInCU: 0xF0D9, offset: 0x2C0075, size: 0x8, addend: 0x0, symName: __ZN4onnx11GetOpSchemaINS_23RandomUniform_Onnx_ver1EEENS_8OpSchemaEv, symObjAddr: 0x1A20, symBinAddr: 0xBB8CC8, symSize: 0x324 }
  - { offsetInCU: 0xFB4C, offset: 0x2C0AE8, size: 0x8, addend: 0x0, symName: __ZN4onnx11GetOpSchemaINS_17EyeLike_Onnx_ver9EEENS_8OpSchemaEv, symObjAddr: 0x1D44, symBinAddr: 0xBB8FEC, symSize: 0x368 }
  - { offsetInCU: 0x10568, offset: 0x2C1504, size: 0x8, addend: 0x0, symName: __ZN4onnx11GetOpSchemaINS_18Constant_Onnx_ver1EEENS_8OpSchemaEv, symObjAddr: 0x3954, symBinAddr: 0xBBA014, symSize: 0x284 }
  - { offsetInCU: 0x10FDB, offset: 0x2C1F77, size: 0x8, addend: 0x0, symName: __ZN4onnx11GetOpSchemaINS_18Constant_Onnx_ver9EEENS_8OpSchemaEv, symObjAddr: 0x3BD8, symBinAddr: 0xBBA298, symSize: 0x374 }
  - { offsetInCU: 0x126D7, offset: 0x2C3673, size: 0x8, addend: 0x0, symName: __ZN4onnx11GetOpSchemaINS_19Constant_Onnx_ver11EEENS_8OpSchemaEv, symObjAddr: 0x3F4C, symBinAddr: 0xBBA60C, symSize: 0x390 }
  - { offsetInCU: 0x13DD3, offset: 0x2C4D6F, size: 0x8, addend: 0x0, symName: __ZN4onnx11GetOpSchemaINS_26ConstantOfShape_Onnx_ver20EEENS_8OpSchemaEv, symObjAddr: 0x42DC, symBinAddr: 0xBBA99C, symSize: 0x308 }
  - { offsetInCU: 0x147EE, offset: 0x2C578A, size: 0x8, addend: 0x0, symName: __ZN4onnx11GetOpSchemaINS_25ConstantOfShape_Onnx_ver9EEENS_8OpSchemaEv, symObjAddr: 0x45E4, symBinAddr: 0xBBACA4, symSize: 0x2F8 }
  - { offsetInCU: 0x15225, offset: 0x2C61C1, size: 0x8, addend: 0x0, symName: __ZN4onnx11GetOpSchemaINS_19Constant_Onnx_ver19EEENS_8OpSchemaEv, symObjAddr: 0x20AC, symBinAddr: 0xBB9354, symSize: 0x440 }
  - { offsetInCU: 0x1698B, offset: 0x2C7927, size: 0x8, addend: 0x0, symName: __ZN4onnx11GetOpSchemaINS_19Constant_Onnx_ver13EEENS_8OpSchemaEv, symObjAddr: 0x2B6C, symBinAddr: 0xBB9794, symSize: 0x440 }
  - { offsetInCU: 0x180F1, offset: 0x2C908D, size: 0x8, addend: 0x0, symName: __ZN4onnx11GetOpSchemaINS_19Constant_Onnx_ver12EEENS_8OpSchemaEv, symObjAddr: 0x3514, symBinAddr: 0xBB9BD4, symSize: 0x440 }
  - { offsetInCU: 0x225FE, offset: 0x2D359A, size: 0x8, addend: 0x0, symName: __ZN4onnx10MakeStringIJA23_cA66_cEEENSt3__112basic_stringIcNS3_11char_traitsIcEENS3_9allocatorIcEEEEDpRKT_, symObjAddr: 0xE72C, symBinAddr: 0xBBCC64, symSize: 0x1D8 }
  - { offsetInCU: 0x23207, offset: 0x2D41A3, size: 0x8, addend: 0x0, symName: __ZN4onnx10MakeStringIJA23_cA87_cEEENSt3__112basic_stringIcNS3_11char_traitsIcEENS3_9allocatorIcEEEEDpRKT_, symObjAddr: 0xEF9C, symBinAddr: 0xBBD2FC, symSize: 0x1D8 }
  - { offsetInCU: 0x63E0A, offset: 0x314DA6, size: 0x8, addend: 0x0, symName: '__ZNSt3__110__function6__funcIZN4onnx11GetOpSchemaINS2_20Bernoulli_Onnx_ver15EEENS2_8OpSchemaEvE3$_0NS_9allocatorIS6_EEFvRNS2_16InferenceContextEEED1Ev', symObjAddr: 0x8888, symBinAddr: 0xBBAF9C, symSize: 0x4 }
  - { offsetInCU: 0x63E36, offset: 0x314DD2, size: 0x8, addend: 0x0, symName: '__ZNSt3__110__function6__funcIZN4onnx11GetOpSchemaINS2_20Bernoulli_Onnx_ver15EEENS2_8OpSchemaEvE3$_0NS_9allocatorIS6_EEFvRNS2_16InferenceContextEEED0Ev', symObjAddr: 0x888C, symBinAddr: 0xBBAFA0, symSize: 0x4 }
  - { offsetInCU: 0x63EF0, offset: 0x314E8C, size: 0x8, addend: 0x0, symName: '__ZNKSt3__110__function6__funcIZN4onnx11GetOpSchemaINS2_20Bernoulli_Onnx_ver15EEENS2_8OpSchemaEvE3$_0NS_9allocatorIS6_EEFvRNS2_16InferenceContextEEE7__cloneEv', symObjAddr: 0x8890, symBinAddr: 0xBBAFA4, symSize: 0x24 }
  - { offsetInCU: 0x64038, offset: 0x314FD4, size: 0x8, addend: 0x0, symName: '__ZNKSt3__110__function6__funcIZN4onnx11GetOpSchemaINS2_20Bernoulli_Onnx_ver15EEENS2_8OpSchemaEvE3$_0NS_9allocatorIS6_EEFvRNS2_16InferenceContextEEE7__cloneEPNS0_6__baseISB_EE', symObjAddr: 0x88B4, symBinAddr: 0xBBAFC8, symSize: 0x10 }
  - { offsetInCU: 0x6406E, offset: 0x31500A, size: 0x8, addend: 0x0, symName: '__ZNKSt3__110__function6__funcIZN4onnx11GetOpSchemaINS2_20Bernoulli_Onnx_ver15EEENS2_8OpSchemaEvE3$_0NS_9allocatorIS6_EEFvRNS2_16InferenceContextEEE7__cloneEPNS0_6__baseISB_EE', symObjAddr: 0x88B4, symBinAddr: 0xBBAFC8, symSize: 0x10 }
  - { offsetInCU: 0x6408A, offset: 0x315026, size: 0x8, addend: 0x0, symName: '__ZNKSt3__110__function6__funcIZN4onnx11GetOpSchemaINS2_20Bernoulli_Onnx_ver15EEENS2_8OpSchemaEvE3$_0NS_9allocatorIS6_EEFvRNS2_16InferenceContextEEE7__cloneEPNS0_6__baseISB_EE', symObjAddr: 0x88B4, symBinAddr: 0xBBAFC8, symSize: 0x10 }
  - { offsetInCU: 0x640A6, offset: 0x315042, size: 0x8, addend: 0x0, symName: '__ZNSt3__110__function6__funcIZN4onnx11GetOpSchemaINS2_20Bernoulli_Onnx_ver15EEENS2_8OpSchemaEvE3$_0NS_9allocatorIS6_EEFvRNS2_16InferenceContextEEE7destroyEv', symObjAddr: 0x88C4, symBinAddr: 0xBBAFD8, symSize: 0x4 }
  - { offsetInCU: 0x640F7, offset: 0x315093, size: 0x8, addend: 0x0, symName: '__ZNSt3__110__function6__funcIZN4onnx11GetOpSchemaINS2_20Bernoulli_Onnx_ver15EEENS2_8OpSchemaEvE3$_0NS_9allocatorIS6_EEFvRNS2_16InferenceContextEEE18destroy_deallocateEv', symObjAddr: 0x88C8, symBinAddr: 0xBBAFDC, symSize: 0x4 }
  - { offsetInCU: 0x6412C, offset: 0x3150C8, size: 0x8, addend: 0x0, symName: '__ZNSt3__110__function6__funcIZN4onnx11GetOpSchemaINS2_20Bernoulli_Onnx_ver15EEENS2_8OpSchemaEvE3$_0NS_9allocatorIS6_EEFvRNS2_16InferenceContextEEE18destroy_deallocateEv', symObjAddr: 0x88C8, symBinAddr: 0xBBAFDC, symSize: 0x4 }
  - { offsetInCU: 0x6414E, offset: 0x3150EA, size: 0x8, addend: 0x0, symName: '__ZNSt3__110__function6__funcIZN4onnx11GetOpSchemaINS2_20Bernoulli_Onnx_ver15EEENS2_8OpSchemaEvE3$_0NS_9allocatorIS6_EEFvRNS2_16InferenceContextEEE18destroy_deallocateEv', symObjAddr: 0x88C8, symBinAddr: 0xBBAFDC, symSize: 0x4 }
  - { offsetInCU: 0x64179, offset: 0x315115, size: 0x8, addend: 0x0, symName: '__ZNSt3__110__function6__funcIZN4onnx11GetOpSchemaINS2_20Bernoulli_Onnx_ver15EEENS2_8OpSchemaEvE3$_0NS_9allocatorIS6_EEFvRNS2_16InferenceContextEEE18destroy_deallocateEv', symObjAddr: 0x88C8, symBinAddr: 0xBBAFDC, symSize: 0x4 }
  - { offsetInCU: 0x6419F, offset: 0x31513B, size: 0x8, addend: 0x0, symName: '__ZNSt3__110__function6__funcIZN4onnx11GetOpSchemaINS2_20Bernoulli_Onnx_ver15EEENS2_8OpSchemaEvE3$_0NS_9allocatorIS6_EEFvRNS2_16InferenceContextEEE18destroy_deallocateEv', symObjAddr: 0x88C8, symBinAddr: 0xBBAFDC, symSize: 0x4 }
  - { offsetInCU: 0x64299, offset: 0x315235, size: 0x8, addend: 0x0, symName: '__ZNSt3__110__function6__funcIZN4onnx11GetOpSchemaINS2_20Bernoulli_Onnx_ver15EEENS2_8OpSchemaEvE3$_0NS_9allocatorIS6_EEFvRNS2_16InferenceContextEEEclESA_', symObjAddr: 0x88CC, symBinAddr: 0xBBAFE0, symSize: 0x1E0 }
  - { offsetInCU: 0x64AF2, offset: 0x315A8E, size: 0x8, addend: 0x0, symName: '__ZNKSt3__110__function6__funcIZN4onnx11GetOpSchemaINS2_20Bernoulli_Onnx_ver15EEENS2_8OpSchemaEvE3$_0NS_9allocatorIS6_EEFvRNS2_16InferenceContextEEE6targetERKSt9type_info', symObjAddr: 0x8AAC, symBinAddr: 0xBBB1C0, symSize: 0x60 }
  - { offsetInCU: 0x64B77, offset: 0x315B13, size: 0x8, addend: 0x0, symName: '__ZNKSt3__110__function6__funcIZN4onnx11GetOpSchemaINS2_20Bernoulli_Onnx_ver15EEENS2_8OpSchemaEvE3$_0NS_9allocatorIS6_EEFvRNS2_16InferenceContextEEE11target_typeEv', symObjAddr: 0x8B0C, symBinAddr: 0xBBB220, symSize: 0xC }
  - { offsetInCU: 0x6586D, offset: 0x316809, size: 0x8, addend: 0x0, symName: '__ZNSt3__110__function6__funcIZN4onnx11GetOpSchemaINS2_20Bernoulli_Onnx_ver15EEENS2_8OpSchemaEvE3$_1NS_9allocatorIS6_EEFbRKNS2_24FunctionBodyBuildContextERKS5_RNS2_13FunctionProtoEEED1Ev', symObjAddr: 0xAAD8, symBinAddr: 0xBBB22C, symSize: 0x4 }
  - { offsetInCU: 0x65899, offset: 0x316835, size: 0x8, addend: 0x0, symName: '__ZNSt3__110__function6__funcIZN4onnx11GetOpSchemaINS2_20Bernoulli_Onnx_ver15EEENS2_8OpSchemaEvE3$_1NS_9allocatorIS6_EEFbRKNS2_24FunctionBodyBuildContextERKS5_RNS2_13FunctionProtoEEED0Ev', symObjAddr: 0xAADC, symBinAddr: 0xBBB230, symSize: 0x4 }
  - { offsetInCU: 0x65953, offset: 0x3168EF, size: 0x8, addend: 0x0, symName: '__ZNKSt3__110__function6__funcIZN4onnx11GetOpSchemaINS2_20Bernoulli_Onnx_ver15EEENS2_8OpSchemaEvE3$_1NS_9allocatorIS6_EEFbRKNS2_24FunctionBodyBuildContextERKS5_RNS2_13FunctionProtoEEE7__cloneEv', symObjAddr: 0xAAE0, symBinAddr: 0xBBB234, symSize: 0x24 }
  - { offsetInCU: 0x65A9B, offset: 0x316A37, size: 0x8, addend: 0x0, symName: '__ZNKSt3__110__function6__funcIZN4onnx11GetOpSchemaINS2_20Bernoulli_Onnx_ver15EEENS2_8OpSchemaEvE3$_1NS_9allocatorIS6_EEFbRKNS2_24FunctionBodyBuildContextERKS5_RNS2_13FunctionProtoEEE7__cloneEPNS0_6__baseISG_EE', symObjAddr: 0xAB04, symBinAddr: 0xBBB258, symSize: 0x10 }
  - { offsetInCU: 0x65AD1, offset: 0x316A6D, size: 0x8, addend: 0x0, symName: '__ZNKSt3__110__function6__funcIZN4onnx11GetOpSchemaINS2_20Bernoulli_Onnx_ver15EEENS2_8OpSchemaEvE3$_1NS_9allocatorIS6_EEFbRKNS2_24FunctionBodyBuildContextERKS5_RNS2_13FunctionProtoEEE7__cloneEPNS0_6__baseISG_EE', symObjAddr: 0xAB04, symBinAddr: 0xBBB258, symSize: 0x10 }
  - { offsetInCU: 0x65AED, offset: 0x316A89, size: 0x8, addend: 0x0, symName: '__ZNKSt3__110__function6__funcIZN4onnx11GetOpSchemaINS2_20Bernoulli_Onnx_ver15EEENS2_8OpSchemaEvE3$_1NS_9allocatorIS6_EEFbRKNS2_24FunctionBodyBuildContextERKS5_RNS2_13FunctionProtoEEE7__cloneEPNS0_6__baseISG_EE', symObjAddr: 0xAB04, symBinAddr: 0xBBB258, symSize: 0x10 }
  - { offsetInCU: 0x65B09, offset: 0x316AA5, size: 0x8, addend: 0x0, symName: '__ZNSt3__110__function6__funcIZN4onnx11GetOpSchemaINS2_20Bernoulli_Onnx_ver15EEENS2_8OpSchemaEvE3$_1NS_9allocatorIS6_EEFbRKNS2_24FunctionBodyBuildContextERKS5_RNS2_13FunctionProtoEEE7destroyEv', symObjAddr: 0xAB14, symBinAddr: 0xBBB268, symSize: 0x4 }
  - { offsetInCU: 0x65B5A, offset: 0x316AF6, size: 0x8, addend: 0x0, symName: '__ZNSt3__110__function6__funcIZN4onnx11GetOpSchemaINS2_20Bernoulli_Onnx_ver15EEENS2_8OpSchemaEvE3$_1NS_9allocatorIS6_EEFbRKNS2_24FunctionBodyBuildContextERKS5_RNS2_13FunctionProtoEEE18destroy_deallocateEv', symObjAddr: 0xAB18, symBinAddr: 0xBBB26C, symSize: 0x4 }
  - { offsetInCU: 0x65B8F, offset: 0x316B2B, size: 0x8, addend: 0x0, symName: '__ZNSt3__110__function6__funcIZN4onnx11GetOpSchemaINS2_20Bernoulli_Onnx_ver15EEENS2_8OpSchemaEvE3$_1NS_9allocatorIS6_EEFbRKNS2_24FunctionBodyBuildContextERKS5_RNS2_13FunctionProtoEEE18destroy_deallocateEv', symObjAddr: 0xAB18, symBinAddr: 0xBBB26C, symSize: 0x4 }
  - { offsetInCU: 0x65BB1, offset: 0x316B4D, size: 0x8, addend: 0x0, symName: '__ZNSt3__110__function6__funcIZN4onnx11GetOpSchemaINS2_20Bernoulli_Onnx_ver15EEENS2_8OpSchemaEvE3$_1NS_9allocatorIS6_EEFbRKNS2_24FunctionBodyBuildContextERKS5_RNS2_13FunctionProtoEEE18destroy_deallocateEv', symObjAddr: 0xAB18, symBinAddr: 0xBBB26C, symSize: 0x4 }
  - { offsetInCU: 0x65BDC, offset: 0x316B78, size: 0x8, addend: 0x0, symName: '__ZNSt3__110__function6__funcIZN4onnx11GetOpSchemaINS2_20Bernoulli_Onnx_ver15EEENS2_8OpSchemaEvE3$_1NS_9allocatorIS6_EEFbRKNS2_24FunctionBodyBuildContextERKS5_RNS2_13FunctionProtoEEE18destroy_deallocateEv', symObjAddr: 0xAB18, symBinAddr: 0xBBB26C, symSize: 0x4 }
  - { offsetInCU: 0x65C02, offset: 0x316B9E, size: 0x8, addend: 0x0, symName: '__ZNSt3__110__function6__funcIZN4onnx11GetOpSchemaINS2_20Bernoulli_Onnx_ver15EEENS2_8OpSchemaEvE3$_1NS_9allocatorIS6_EEFbRKNS2_24FunctionBodyBuildContextERKS5_RNS2_13FunctionProtoEEE18destroy_deallocateEv', symObjAddr: 0xAB18, symBinAddr: 0xBBB26C, symSize: 0x4 }
  - { offsetInCU: 0x65DE4, offset: 0x316D80, size: 0x8, addend: 0x0, symName: '__ZNSt3__110__function6__funcIZN4onnx11GetOpSchemaINS2_20Bernoulli_Onnx_ver15EEENS2_8OpSchemaEvE3$_1NS_9allocatorIS6_EEFbRKNS2_24FunctionBodyBuildContextERKS5_RNS2_13FunctionProtoEEEclESB_SD_SF_', symObjAddr: 0xAB1C, symBinAddr: 0xBBB270, symSize: 0x2CC }
  - { offsetInCU: 0x676A9, offset: 0x318645, size: 0x8, addend: 0x0, symName: '__ZNKSt3__110__function6__funcIZN4onnx11GetOpSchemaINS2_20Bernoulli_Onnx_ver15EEENS2_8OpSchemaEvE3$_1NS_9allocatorIS6_EEFbRKNS2_24FunctionBodyBuildContextERKS5_RNS2_13FunctionProtoEEE6targetERKSt9type_info', symObjAddr: 0xADE8, symBinAddr: 0xBBB53C, symSize: 0x60 }
  - { offsetInCU: 0x6772E, offset: 0x3186CA, size: 0x8, addend: 0x0, symName: '__ZNKSt3__110__function6__funcIZN4onnx11GetOpSchemaINS2_20Bernoulli_Onnx_ver15EEENS2_8OpSchemaEvE3$_1NS_9allocatorIS6_EEFbRKNS2_24FunctionBodyBuildContextERKS5_RNS2_13FunctionProtoEEE11target_typeEv', symObjAddr: 0xAE48, symBinAddr: 0xBBB59C, symSize: 0xC }
  - { offsetInCU: 0x67C24, offset: 0x318BC0, size: 0x8, addend: 0x0, symName: '__ZNSt3__110__function6__funcIZN4onnx11GetOpSchemaINS2_21Multinomial_Onnx_ver7EEENS2_8OpSchemaEvE3$_2NS_9allocatorIS6_EEFvRNS2_16InferenceContextEEED1Ev', symObjAddr: 0xB3C8, symBinAddr: 0xBBB5A8, symSize: 0x4 }
  - { offsetInCU: 0x67C50, offset: 0x318BEC, size: 0x8, addend: 0x0, symName: '__ZNSt3__110__function6__funcIZN4onnx11GetOpSchemaINS2_21Multinomial_Onnx_ver7EEENS2_8OpSchemaEvE3$_2NS_9allocatorIS6_EEFvRNS2_16InferenceContextEEED0Ev', symObjAddr: 0xB3CC, symBinAddr: 0xBBB5AC, symSize: 0x4 }
  - { offsetInCU: 0x67D0A, offset: 0x318CA6, size: 0x8, addend: 0x0, symName: '__ZNKSt3__110__function6__funcIZN4onnx11GetOpSchemaINS2_21Multinomial_Onnx_ver7EEENS2_8OpSchemaEvE3$_2NS_9allocatorIS6_EEFvRNS2_16InferenceContextEEE7__cloneEv', symObjAddr: 0xB3D0, symBinAddr: 0xBBB5B0, symSize: 0x24 }
  - { offsetInCU: 0x67E52, offset: 0x318DEE, size: 0x8, addend: 0x0, symName: '__ZNKSt3__110__function6__funcIZN4onnx11GetOpSchemaINS2_21Multinomial_Onnx_ver7EEENS2_8OpSchemaEvE3$_2NS_9allocatorIS6_EEFvRNS2_16InferenceContextEEE7__cloneEPNS0_6__baseISB_EE', symObjAddr: 0xB3F4, symBinAddr: 0xBBB5D4, symSize: 0x10 }
  - { offsetInCU: 0x67E88, offset: 0x318E24, size: 0x8, addend: 0x0, symName: '__ZNKSt3__110__function6__funcIZN4onnx11GetOpSchemaINS2_21Multinomial_Onnx_ver7EEENS2_8OpSchemaEvE3$_2NS_9allocatorIS6_EEFvRNS2_16InferenceContextEEE7__cloneEPNS0_6__baseISB_EE', symObjAddr: 0xB3F4, symBinAddr: 0xBBB5D4, symSize: 0x10 }
  - { offsetInCU: 0x67EA4, offset: 0x318E40, size: 0x8, addend: 0x0, symName: '__ZNKSt3__110__function6__funcIZN4onnx11GetOpSchemaINS2_21Multinomial_Onnx_ver7EEENS2_8OpSchemaEvE3$_2NS_9allocatorIS6_EEFvRNS2_16InferenceContextEEE7__cloneEPNS0_6__baseISB_EE', symObjAddr: 0xB3F4, symBinAddr: 0xBBB5D4, symSize: 0x10 }
  - { offsetInCU: 0x67EC0, offset: 0x318E5C, size: 0x8, addend: 0x0, symName: '__ZNSt3__110__function6__funcIZN4onnx11GetOpSchemaINS2_21Multinomial_Onnx_ver7EEENS2_8OpSchemaEvE3$_2NS_9allocatorIS6_EEFvRNS2_16InferenceContextEEE7destroyEv', symObjAddr: 0xB404, symBinAddr: 0xBBB5E4, symSize: 0x4 }
  - { offsetInCU: 0x67F11, offset: 0x318EAD, size: 0x8, addend: 0x0, symName: '__ZNSt3__110__function6__funcIZN4onnx11GetOpSchemaINS2_21Multinomial_Onnx_ver7EEENS2_8OpSchemaEvE3$_2NS_9allocatorIS6_EEFvRNS2_16InferenceContextEEE18destroy_deallocateEv', symObjAddr: 0xB408, symBinAddr: 0xBBB5E8, symSize: 0x4 }
  - { offsetInCU: 0x67F46, offset: 0x318EE2, size: 0x8, addend: 0x0, symName: '__ZNSt3__110__function6__funcIZN4onnx11GetOpSchemaINS2_21Multinomial_Onnx_ver7EEENS2_8OpSchemaEvE3$_2NS_9allocatorIS6_EEFvRNS2_16InferenceContextEEE18destroy_deallocateEv', symObjAddr: 0xB408, symBinAddr: 0xBBB5E8, symSize: 0x4 }
  - { offsetInCU: 0x67F68, offset: 0x318F04, size: 0x8, addend: 0x0, symName: '__ZNSt3__110__function6__funcIZN4onnx11GetOpSchemaINS2_21Multinomial_Onnx_ver7EEENS2_8OpSchemaEvE3$_2NS_9allocatorIS6_EEFvRNS2_16InferenceContextEEE18destroy_deallocateEv', symObjAddr: 0xB408, symBinAddr: 0xBBB5E8, symSize: 0x4 }
  - { offsetInCU: 0x67F93, offset: 0x318F2F, size: 0x8, addend: 0x0, symName: '__ZNSt3__110__function6__funcIZN4onnx11GetOpSchemaINS2_21Multinomial_Onnx_ver7EEENS2_8OpSchemaEvE3$_2NS_9allocatorIS6_EEFvRNS2_16InferenceContextEEE18destroy_deallocateEv', symObjAddr: 0xB408, symBinAddr: 0xBBB5E8, symSize: 0x4 }
  - { offsetInCU: 0x67FB9, offset: 0x318F55, size: 0x8, addend: 0x0, symName: '__ZNSt3__110__function6__funcIZN4onnx11GetOpSchemaINS2_21Multinomial_Onnx_ver7EEENS2_8OpSchemaEvE3$_2NS_9allocatorIS6_EEFvRNS2_16InferenceContextEEE18destroy_deallocateEv', symObjAddr: 0xB408, symBinAddr: 0xBBB5E8, symSize: 0x4 }
  - { offsetInCU: 0x6833C, offset: 0x3192D8, size: 0x8, addend: 0x0, symName: '__ZNSt3__110__function6__funcIZN4onnx11GetOpSchemaINS2_21Multinomial_Onnx_ver7EEENS2_8OpSchemaEvE3$_2NS_9allocatorIS6_EEFvRNS2_16InferenceContextEEEclESA_', symObjAddr: 0xB40C, symBinAddr: 0xBBB5EC, symSize: 0x4F4 }
  - { offsetInCU: 0x69647, offset: 0x31A5E3, size: 0x8, addend: 0x0, symName: '__ZNKSt3__110__function6__funcIZN4onnx11GetOpSchemaINS2_21Multinomial_Onnx_ver7EEENS2_8OpSchemaEvE3$_2NS_9allocatorIS6_EEFvRNS2_16InferenceContextEEE6targetERKSt9type_info', symObjAddr: 0xB900, symBinAddr: 0xBBBAE0, symSize: 0x60 }
  - { offsetInCU: 0x696CC, offset: 0x31A668, size: 0x8, addend: 0x0, symName: '__ZNKSt3__110__function6__funcIZN4onnx11GetOpSchemaINS2_21Multinomial_Onnx_ver7EEENS2_8OpSchemaEvE3$_2NS_9allocatorIS6_EEFvRNS2_16InferenceContextEEE11target_typeEv', symObjAddr: 0xB960, symBinAddr: 0xBBBB40, symSize: 0xC }
  - { offsetInCU: 0x6976E, offset: 0x31A70A, size: 0x8, addend: 0x0, symName: '__ZNSt3__110__function6__funcIZN4onnx11GetOpSchemaINS2_26RandomNormalLike_Onnx_ver1EEENS2_8OpSchemaEvE3$_3NS_9allocatorIS6_EEFvRNS2_16InferenceContextEEED1Ev', symObjAddr: 0xCC4C, symBinAddr: 0xBBBB4C, symSize: 0x4 }
  - { offsetInCU: 0x6979A, offset: 0x31A736, size: 0x8, addend: 0x0, symName: '__ZNSt3__110__function6__funcIZN4onnx11GetOpSchemaINS2_26RandomNormalLike_Onnx_ver1EEENS2_8OpSchemaEvE3$_3NS_9allocatorIS6_EEFvRNS2_16InferenceContextEEED0Ev', symObjAddr: 0xCC50, symBinAddr: 0xBBBB50, symSize: 0x4 }
  - { offsetInCU: 0x69854, offset: 0x31A7F0, size: 0x8, addend: 0x0, symName: '__ZNKSt3__110__function6__funcIZN4onnx11GetOpSchemaINS2_26RandomNormalLike_Onnx_ver1EEENS2_8OpSchemaEvE3$_3NS_9allocatorIS6_EEFvRNS2_16InferenceContextEEE7__cloneEv', symObjAddr: 0xCC54, symBinAddr: 0xBBBB54, symSize: 0x24 }
  - { offsetInCU: 0x6999C, offset: 0x31A938, size: 0x8, addend: 0x0, symName: '__ZNKSt3__110__function6__funcIZN4onnx11GetOpSchemaINS2_26RandomNormalLike_Onnx_ver1EEENS2_8OpSchemaEvE3$_3NS_9allocatorIS6_EEFvRNS2_16InferenceContextEEE7__cloneEPNS0_6__baseISB_EE', symObjAddr: 0xCC78, symBinAddr: 0xBBBB78, symSize: 0x10 }
  - { offsetInCU: 0x699D2, offset: 0x31A96E, size: 0x8, addend: 0x0, symName: '__ZNKSt3__110__function6__funcIZN4onnx11GetOpSchemaINS2_26RandomNormalLike_Onnx_ver1EEENS2_8OpSchemaEvE3$_3NS_9allocatorIS6_EEFvRNS2_16InferenceContextEEE7__cloneEPNS0_6__baseISB_EE', symObjAddr: 0xCC78, symBinAddr: 0xBBBB78, symSize: 0x10 }
  - { offsetInCU: 0x699EE, offset: 0x31A98A, size: 0x8, addend: 0x0, symName: '__ZNKSt3__110__function6__funcIZN4onnx11GetOpSchemaINS2_26RandomNormalLike_Onnx_ver1EEENS2_8OpSchemaEvE3$_3NS_9allocatorIS6_EEFvRNS2_16InferenceContextEEE7__cloneEPNS0_6__baseISB_EE', symObjAddr: 0xCC78, symBinAddr: 0xBBBB78, symSize: 0x10 }
  - { offsetInCU: 0x69A0A, offset: 0x31A9A6, size: 0x8, addend: 0x0, symName: '__ZNSt3__110__function6__funcIZN4onnx11GetOpSchemaINS2_26RandomNormalLike_Onnx_ver1EEENS2_8OpSchemaEvE3$_3NS_9allocatorIS6_EEFvRNS2_16InferenceContextEEE7destroyEv', symObjAddr: 0xCC88, symBinAddr: 0xBBBB88, symSize: 0x4 }
  - { offsetInCU: 0x69A5B, offset: 0x31A9F7, size: 0x8, addend: 0x0, symName: '__ZNSt3__110__function6__funcIZN4onnx11GetOpSchemaINS2_26RandomNormalLike_Onnx_ver1EEENS2_8OpSchemaEvE3$_3NS_9allocatorIS6_EEFvRNS2_16InferenceContextEEE18destroy_deallocateEv', symObjAddr: 0xCC8C, symBinAddr: 0xBBBB8C, symSize: 0x4 }
  - { offsetInCU: 0x69A90, offset: 0x31AA2C, size: 0x8, addend: 0x0, symName: '__ZNSt3__110__function6__funcIZN4onnx11GetOpSchemaINS2_26RandomNormalLike_Onnx_ver1EEENS2_8OpSchemaEvE3$_3NS_9allocatorIS6_EEFvRNS2_16InferenceContextEEE18destroy_deallocateEv', symObjAddr: 0xCC8C, symBinAddr: 0xBBBB8C, symSize: 0x4 }
  - { offsetInCU: 0x69AB2, offset: 0x31AA4E, size: 0x8, addend: 0x0, symName: '__ZNSt3__110__function6__funcIZN4onnx11GetOpSchemaINS2_26RandomNormalLike_Onnx_ver1EEENS2_8OpSchemaEvE3$_3NS_9allocatorIS6_EEFvRNS2_16InferenceContextEEE18destroy_deallocateEv', symObjAddr: 0xCC8C, symBinAddr: 0xBBBB8C, symSize: 0x4 }
  - { offsetInCU: 0x69ADD, offset: 0x31AA79, size: 0x8, addend: 0x0, symName: '__ZNSt3__110__function6__funcIZN4onnx11GetOpSchemaINS2_26RandomNormalLike_Onnx_ver1EEENS2_8OpSchemaEvE3$_3NS_9allocatorIS6_EEFvRNS2_16InferenceContextEEE18destroy_deallocateEv', symObjAddr: 0xCC8C, symBinAddr: 0xBBBB8C, symSize: 0x4 }
  - { offsetInCU: 0x69B03, offset: 0x31AA9F, size: 0x8, addend: 0x0, symName: '__ZNSt3__110__function6__funcIZN4onnx11GetOpSchemaINS2_26RandomNormalLike_Onnx_ver1EEENS2_8OpSchemaEvE3$_3NS_9allocatorIS6_EEFvRNS2_16InferenceContextEEE18destroy_deallocateEv', symObjAddr: 0xCC8C, symBinAddr: 0xBBBB8C, symSize: 0x4 }
  - { offsetInCU: 0x69BAF, offset: 0x31AB4B, size: 0x8, addend: 0x0, symName: '__ZNSt3__110__function6__funcIZN4onnx11GetOpSchemaINS2_26RandomNormalLike_Onnx_ver1EEENS2_8OpSchemaEvE3$_3NS_9allocatorIS6_EEFvRNS2_16InferenceContextEEEclESA_', symObjAddr: 0xCC90, symBinAddr: 0xBBBB90, symSize: 0x1E0 }
  - { offsetInCU: 0x6A408, offset: 0x31B3A4, size: 0x8, addend: 0x0, symName: '__ZNKSt3__110__function6__funcIZN4onnx11GetOpSchemaINS2_26RandomNormalLike_Onnx_ver1EEENS2_8OpSchemaEvE3$_3NS_9allocatorIS6_EEFvRNS2_16InferenceContextEEE6targetERKSt9type_info', symObjAddr: 0xCE70, symBinAddr: 0xBBBD70, symSize: 0x60 }
  - { offsetInCU: 0x6A48D, offset: 0x31B429, size: 0x8, addend: 0x0, symName: '__ZNKSt3__110__function6__funcIZN4onnx11GetOpSchemaINS2_26RandomNormalLike_Onnx_ver1EEENS2_8OpSchemaEvE3$_3NS_9allocatorIS6_EEFvRNS2_16InferenceContextEEE11target_typeEv', symObjAddr: 0xCED0, symBinAddr: 0xBBBDD0, symSize: 0xC }
  - { offsetInCU: 0x6A4B2, offset: 0x31B44E, size: 0x8, addend: 0x0, symName: '__ZNSt3__110__function6__funcIZN4onnx11GetOpSchemaINS2_27RandomUniformLike_Onnx_ver1EEENS2_8OpSchemaEvE3$_4NS_9allocatorIS6_EEFvRNS2_16InferenceContextEEED1Ev', symObjAddr: 0xCEDC, symBinAddr: 0xBBBDDC, symSize: 0x4 }
  - { offsetInCU: 0x6A4DE, offset: 0x31B47A, size: 0x8, addend: 0x0, symName: '__ZNSt3__110__function6__funcIZN4onnx11GetOpSchemaINS2_27RandomUniformLike_Onnx_ver1EEENS2_8OpSchemaEvE3$_4NS_9allocatorIS6_EEFvRNS2_16InferenceContextEEED0Ev', symObjAddr: 0xCEE0, symBinAddr: 0xBBBDE0, symSize: 0x4 }
  - { offsetInCU: 0x6A598, offset: 0x31B534, size: 0x8, addend: 0x0, symName: '__ZNKSt3__110__function6__funcIZN4onnx11GetOpSchemaINS2_27RandomUniformLike_Onnx_ver1EEENS2_8OpSchemaEvE3$_4NS_9allocatorIS6_EEFvRNS2_16InferenceContextEEE7__cloneEv', symObjAddr: 0xCEE4, symBinAddr: 0xBBBDE4, symSize: 0x24 }
  - { offsetInCU: 0x6A6E0, offset: 0x31B67C, size: 0x8, addend: 0x0, symName: '__ZNKSt3__110__function6__funcIZN4onnx11GetOpSchemaINS2_27RandomUniformLike_Onnx_ver1EEENS2_8OpSchemaEvE3$_4NS_9allocatorIS6_EEFvRNS2_16InferenceContextEEE7__cloneEPNS0_6__baseISB_EE', symObjAddr: 0xCF08, symBinAddr: 0xBBBE08, symSize: 0x10 }
  - { offsetInCU: 0x6A716, offset: 0x31B6B2, size: 0x8, addend: 0x0, symName: '__ZNKSt3__110__function6__funcIZN4onnx11GetOpSchemaINS2_27RandomUniformLike_Onnx_ver1EEENS2_8OpSchemaEvE3$_4NS_9allocatorIS6_EEFvRNS2_16InferenceContextEEE7__cloneEPNS0_6__baseISB_EE', symObjAddr: 0xCF08, symBinAddr: 0xBBBE08, symSize: 0x10 }
  - { offsetInCU: 0x6A732, offset: 0x31B6CE, size: 0x8, addend: 0x0, symName: '__ZNKSt3__110__function6__funcIZN4onnx11GetOpSchemaINS2_27RandomUniformLike_Onnx_ver1EEENS2_8OpSchemaEvE3$_4NS_9allocatorIS6_EEFvRNS2_16InferenceContextEEE7__cloneEPNS0_6__baseISB_EE', symObjAddr: 0xCF08, symBinAddr: 0xBBBE08, symSize: 0x10 }
  - { offsetInCU: 0x6A74E, offset: 0x31B6EA, size: 0x8, addend: 0x0, symName: '__ZNSt3__110__function6__funcIZN4onnx11GetOpSchemaINS2_27RandomUniformLike_Onnx_ver1EEENS2_8OpSchemaEvE3$_4NS_9allocatorIS6_EEFvRNS2_16InferenceContextEEE7destroyEv', symObjAddr: 0xCF18, symBinAddr: 0xBBBE18, symSize: 0x4 }
  - { offsetInCU: 0x6A79F, offset: 0x31B73B, size: 0x8, addend: 0x0, symName: '__ZNSt3__110__function6__funcIZN4onnx11GetOpSchemaINS2_27RandomUniformLike_Onnx_ver1EEENS2_8OpSchemaEvE3$_4NS_9allocatorIS6_EEFvRNS2_16InferenceContextEEE18destroy_deallocateEv', symObjAddr: 0xCF1C, symBinAddr: 0xBBBE1C, symSize: 0x4 }
  - { offsetInCU: 0x6A7D4, offset: 0x31B770, size: 0x8, addend: 0x0, symName: '__ZNSt3__110__function6__funcIZN4onnx11GetOpSchemaINS2_27RandomUniformLike_Onnx_ver1EEENS2_8OpSchemaEvE3$_4NS_9allocatorIS6_EEFvRNS2_16InferenceContextEEE18destroy_deallocateEv', symObjAddr: 0xCF1C, symBinAddr: 0xBBBE1C, symSize: 0x4 }
  - { offsetInCU: 0x6A7F6, offset: 0x31B792, size: 0x8, addend: 0x0, symName: '__ZNSt3__110__function6__funcIZN4onnx11GetOpSchemaINS2_27RandomUniformLike_Onnx_ver1EEENS2_8OpSchemaEvE3$_4NS_9allocatorIS6_EEFvRNS2_16InferenceContextEEE18destroy_deallocateEv', symObjAddr: 0xCF1C, symBinAddr: 0xBBBE1C, symSize: 0x4 }
  - { offsetInCU: 0x6A821, offset: 0x31B7BD, size: 0x8, addend: 0x0, symName: '__ZNSt3__110__function6__funcIZN4onnx11GetOpSchemaINS2_27RandomUniformLike_Onnx_ver1EEENS2_8OpSchemaEvE3$_4NS_9allocatorIS6_EEFvRNS2_16InferenceContextEEE18destroy_deallocateEv', symObjAddr: 0xCF1C, symBinAddr: 0xBBBE1C, symSize: 0x4 }
  - { offsetInCU: 0x6A847, offset: 0x31B7E3, size: 0x8, addend: 0x0, symName: '__ZNSt3__110__function6__funcIZN4onnx11GetOpSchemaINS2_27RandomUniformLike_Onnx_ver1EEENS2_8OpSchemaEvE3$_4NS_9allocatorIS6_EEFvRNS2_16InferenceContextEEE18destroy_deallocateEv', symObjAddr: 0xCF1C, symBinAddr: 0xBBBE1C, symSize: 0x4 }
  - { offsetInCU: 0x6A8F3, offset: 0x31B88F, size: 0x8, addend: 0x0, symName: '__ZNSt3__110__function6__funcIZN4onnx11GetOpSchemaINS2_27RandomUniformLike_Onnx_ver1EEENS2_8OpSchemaEvE3$_4NS_9allocatorIS6_EEFvRNS2_16InferenceContextEEEclESA_', symObjAddr: 0xCF20, symBinAddr: 0xBBBE20, symSize: 0x1E0 }
  - { offsetInCU: 0x6B14C, offset: 0x31C0E8, size: 0x8, addend: 0x0, symName: '__ZNKSt3__110__function6__funcIZN4onnx11GetOpSchemaINS2_27RandomUniformLike_Onnx_ver1EEENS2_8OpSchemaEvE3$_4NS_9allocatorIS6_EEFvRNS2_16InferenceContextEEE6targetERKSt9type_info', symObjAddr: 0xD100, symBinAddr: 0xBBC000, symSize: 0x60 }
  - { offsetInCU: 0x6B1D1, offset: 0x31C16D, size: 0x8, addend: 0x0, symName: '__ZNKSt3__110__function6__funcIZN4onnx11GetOpSchemaINS2_27RandomUniformLike_Onnx_ver1EEENS2_8OpSchemaEvE3$_4NS_9allocatorIS6_EEFvRNS2_16InferenceContextEEE11target_typeEv', symObjAddr: 0xD160, symBinAddr: 0xBBC060, symSize: 0xC }
  - { offsetInCU: 0x6B1F6, offset: 0x31C192, size: 0x8, addend: 0x0, symName: '__ZNSt3__110__function6__funcIZN4onnx11GetOpSchemaINS2_22RandomNormal_Onnx_ver1EEENS2_8OpSchemaEvE3$_5NS_9allocatorIS6_EEFvRNS2_16InferenceContextEEED1Ev', symObjAddr: 0xD16C, symBinAddr: 0xBBC06C, symSize: 0x4 }
  - { offsetInCU: 0x6B222, offset: 0x31C1BE, size: 0x8, addend: 0x0, symName: '__ZNSt3__110__function6__funcIZN4onnx11GetOpSchemaINS2_22RandomNormal_Onnx_ver1EEENS2_8OpSchemaEvE3$_5NS_9allocatorIS6_EEFvRNS2_16InferenceContextEEED0Ev', symObjAddr: 0xD170, symBinAddr: 0xBBC070, symSize: 0x4 }
  - { offsetInCU: 0x6B2DC, offset: 0x31C278, size: 0x8, addend: 0x0, symName: '__ZNKSt3__110__function6__funcIZN4onnx11GetOpSchemaINS2_22RandomNormal_Onnx_ver1EEENS2_8OpSchemaEvE3$_5NS_9allocatorIS6_EEFvRNS2_16InferenceContextEEE7__cloneEv', symObjAddr: 0xD174, symBinAddr: 0xBBC074, symSize: 0x24 }
  - { offsetInCU: 0x6B424, offset: 0x31C3C0, size: 0x8, addend: 0x0, symName: '__ZNKSt3__110__function6__funcIZN4onnx11GetOpSchemaINS2_22RandomNormal_Onnx_ver1EEENS2_8OpSchemaEvE3$_5NS_9allocatorIS6_EEFvRNS2_16InferenceContextEEE7__cloneEPNS0_6__baseISB_EE', symObjAddr: 0xD198, symBinAddr: 0xBBC098, symSize: 0x10 }
  - { offsetInCU: 0x6B45A, offset: 0x31C3F6, size: 0x8, addend: 0x0, symName: '__ZNKSt3__110__function6__funcIZN4onnx11GetOpSchemaINS2_22RandomNormal_Onnx_ver1EEENS2_8OpSchemaEvE3$_5NS_9allocatorIS6_EEFvRNS2_16InferenceContextEEE7__cloneEPNS0_6__baseISB_EE', symObjAddr: 0xD198, symBinAddr: 0xBBC098, symSize: 0x10 }
  - { offsetInCU: 0x6B476, offset: 0x31C412, size: 0x8, addend: 0x0, symName: '__ZNKSt3__110__function6__funcIZN4onnx11GetOpSchemaINS2_22RandomNormal_Onnx_ver1EEENS2_8OpSchemaEvE3$_5NS_9allocatorIS6_EEFvRNS2_16InferenceContextEEE7__cloneEPNS0_6__baseISB_EE', symObjAddr: 0xD198, symBinAddr: 0xBBC098, symSize: 0x10 }
  - { offsetInCU: 0x6B492, offset: 0x31C42E, size: 0x8, addend: 0x0, symName: '__ZNSt3__110__function6__funcIZN4onnx11GetOpSchemaINS2_22RandomNormal_Onnx_ver1EEENS2_8OpSchemaEvE3$_5NS_9allocatorIS6_EEFvRNS2_16InferenceContextEEE7destroyEv', symObjAddr: 0xD1A8, symBinAddr: 0xBBC0A8, symSize: 0x4 }
  - { offsetInCU: 0x6B4E3, offset: 0x31C47F, size: 0x8, addend: 0x0, symName: '__ZNSt3__110__function6__funcIZN4onnx11GetOpSchemaINS2_22RandomNormal_Onnx_ver1EEENS2_8OpSchemaEvE3$_5NS_9allocatorIS6_EEFvRNS2_16InferenceContextEEE18destroy_deallocateEv', symObjAddr: 0xD1AC, symBinAddr: 0xBBC0AC, symSize: 0x4 }
  - { offsetInCU: 0x6B518, offset: 0x31C4B4, size: 0x8, addend: 0x0, symName: '__ZNSt3__110__function6__funcIZN4onnx11GetOpSchemaINS2_22RandomNormal_Onnx_ver1EEENS2_8OpSchemaEvE3$_5NS_9allocatorIS6_EEFvRNS2_16InferenceContextEEE18destroy_deallocateEv', symObjAddr: 0xD1AC, symBinAddr: 0xBBC0AC, symSize: 0x4 }
  - { offsetInCU: 0x6B53A, offset: 0x31C4D6, size: 0x8, addend: 0x0, symName: '__ZNSt3__110__function6__funcIZN4onnx11GetOpSchemaINS2_22RandomNormal_Onnx_ver1EEENS2_8OpSchemaEvE3$_5NS_9allocatorIS6_EEFvRNS2_16InferenceContextEEE18destroy_deallocateEv', symObjAddr: 0xD1AC, symBinAddr: 0xBBC0AC, symSize: 0x4 }
  - { offsetInCU: 0x6B565, offset: 0x31C501, size: 0x8, addend: 0x0, symName: '__ZNSt3__110__function6__funcIZN4onnx11GetOpSchemaINS2_22RandomNormal_Onnx_ver1EEENS2_8OpSchemaEvE3$_5NS_9allocatorIS6_EEFvRNS2_16InferenceContextEEE18destroy_deallocateEv', symObjAddr: 0xD1AC, symBinAddr: 0xBBC0AC, symSize: 0x4 }
  - { offsetInCU: 0x6B58B, offset: 0x31C527, size: 0x8, addend: 0x0, symName: '__ZNSt3__110__function6__funcIZN4onnx11GetOpSchemaINS2_22RandomNormal_Onnx_ver1EEENS2_8OpSchemaEvE3$_5NS_9allocatorIS6_EEFvRNS2_16InferenceContextEEE18destroy_deallocateEv', symObjAddr: 0xD1AC, symBinAddr: 0xBBC0AC, symSize: 0x4 }
  - { offsetInCU: 0x6B639, offset: 0x31C5D5, size: 0x8, addend: 0x0, symName: '__ZNSt3__110__function6__funcIZN4onnx11GetOpSchemaINS2_22RandomNormal_Onnx_ver1EEENS2_8OpSchemaEvE3$_5NS_9allocatorIS6_EEFvRNS2_16InferenceContextEEEclESA_', symObjAddr: 0xD1B0, symBinAddr: 0xBBC0B0, symSize: 0xF4 }
  - { offsetInCU: 0x6BD10, offset: 0x31CCAC, size: 0x8, addend: 0x0, symName: '__ZNKSt3__110__function6__funcIZN4onnx11GetOpSchemaINS2_22RandomNormal_Onnx_ver1EEENS2_8OpSchemaEvE3$_5NS_9allocatorIS6_EEFvRNS2_16InferenceContextEEE6targetERKSt9type_info', symObjAddr: 0xD2A4, symBinAddr: 0xBBC1A4, symSize: 0x60 }
  - { offsetInCU: 0x6BD95, offset: 0x31CD31, size: 0x8, addend: 0x0, symName: '__ZNKSt3__110__function6__funcIZN4onnx11GetOpSchemaINS2_22RandomNormal_Onnx_ver1EEENS2_8OpSchemaEvE3$_5NS_9allocatorIS6_EEFvRNS2_16InferenceContextEEE11target_typeEv', symObjAddr: 0xD304, symBinAddr: 0xBBC204, symSize: 0xC }
  - { offsetInCU: 0x6BE9C, offset: 0x31CE38, size: 0x8, addend: 0x0, symName: '__ZNSt3__110__function6__funcIZN4onnx11GetOpSchemaINS2_23RandomUniform_Onnx_ver1EEENS2_8OpSchemaEvE3$_6NS_9allocatorIS6_EEFvRNS2_16InferenceContextEEED1Ev', symObjAddr: 0xDB00, symBinAddr: 0xBBC210, symSize: 0x4 }
  - { offsetInCU: 0x6BEC8, offset: 0x31CE64, size: 0x8, addend: 0x0, symName: '__ZNSt3__110__function6__funcIZN4onnx11GetOpSchemaINS2_23RandomUniform_Onnx_ver1EEENS2_8OpSchemaEvE3$_6NS_9allocatorIS6_EEFvRNS2_16InferenceContextEEED0Ev', symObjAddr: 0xDB04, symBinAddr: 0xBBC214, symSize: 0x4 }
  - { offsetInCU: 0x6BF82, offset: 0x31CF1E, size: 0x8, addend: 0x0, symName: '__ZNKSt3__110__function6__funcIZN4onnx11GetOpSchemaINS2_23RandomUniform_Onnx_ver1EEENS2_8OpSchemaEvE3$_6NS_9allocatorIS6_EEFvRNS2_16InferenceContextEEE7__cloneEv', symObjAddr: 0xDB08, symBinAddr: 0xBBC218, symSize: 0x24 }
  - { offsetInCU: 0x6C0CA, offset: 0x31D066, size: 0x8, addend: 0x0, symName: '__ZNKSt3__110__function6__funcIZN4onnx11GetOpSchemaINS2_23RandomUniform_Onnx_ver1EEENS2_8OpSchemaEvE3$_6NS_9allocatorIS6_EEFvRNS2_16InferenceContextEEE7__cloneEPNS0_6__baseISB_EE', symObjAddr: 0xDB2C, symBinAddr: 0xBBC23C, symSize: 0x10 }
  - { offsetInCU: 0x6C100, offset: 0x31D09C, size: 0x8, addend: 0x0, symName: '__ZNKSt3__110__function6__funcIZN4onnx11GetOpSchemaINS2_23RandomUniform_Onnx_ver1EEENS2_8OpSchemaEvE3$_6NS_9allocatorIS6_EEFvRNS2_16InferenceContextEEE7__cloneEPNS0_6__baseISB_EE', symObjAddr: 0xDB2C, symBinAddr: 0xBBC23C, symSize: 0x10 }
  - { offsetInCU: 0x6C11C, offset: 0x31D0B8, size: 0x8, addend: 0x0, symName: '__ZNKSt3__110__function6__funcIZN4onnx11GetOpSchemaINS2_23RandomUniform_Onnx_ver1EEENS2_8OpSchemaEvE3$_6NS_9allocatorIS6_EEFvRNS2_16InferenceContextEEE7__cloneEPNS0_6__baseISB_EE', symObjAddr: 0xDB2C, symBinAddr: 0xBBC23C, symSize: 0x10 }
  - { offsetInCU: 0x6C138, offset: 0x31D0D4, size: 0x8, addend: 0x0, symName: '__ZNSt3__110__function6__funcIZN4onnx11GetOpSchemaINS2_23RandomUniform_Onnx_ver1EEENS2_8OpSchemaEvE3$_6NS_9allocatorIS6_EEFvRNS2_16InferenceContextEEE7destroyEv', symObjAddr: 0xDB3C, symBinAddr: 0xBBC24C, symSize: 0x4 }
  - { offsetInCU: 0x6C189, offset: 0x31D125, size: 0x8, addend: 0x0, symName: '__ZNSt3__110__function6__funcIZN4onnx11GetOpSchemaINS2_23RandomUniform_Onnx_ver1EEENS2_8OpSchemaEvE3$_6NS_9allocatorIS6_EEFvRNS2_16InferenceContextEEE18destroy_deallocateEv', symObjAddr: 0xDB40, symBinAddr: 0xBBC250, symSize: 0x4 }
  - { offsetInCU: 0x6C1BE, offset: 0x31D15A, size: 0x8, addend: 0x0, symName: '__ZNSt3__110__function6__funcIZN4onnx11GetOpSchemaINS2_23RandomUniform_Onnx_ver1EEENS2_8OpSchemaEvE3$_6NS_9allocatorIS6_EEFvRNS2_16InferenceContextEEE18destroy_deallocateEv', symObjAddr: 0xDB40, symBinAddr: 0xBBC250, symSize: 0x4 }
  - { offsetInCU: 0x6C1E0, offset: 0x31D17C, size: 0x8, addend: 0x0, symName: '__ZNSt3__110__function6__funcIZN4onnx11GetOpSchemaINS2_23RandomUniform_Onnx_ver1EEENS2_8OpSchemaEvE3$_6NS_9allocatorIS6_EEFvRNS2_16InferenceContextEEE18destroy_deallocateEv', symObjAddr: 0xDB40, symBinAddr: 0xBBC250, symSize: 0x4 }
  - { offsetInCU: 0x6C20B, offset: 0x31D1A7, size: 0x8, addend: 0x0, symName: '__ZNSt3__110__function6__funcIZN4onnx11GetOpSchemaINS2_23RandomUniform_Onnx_ver1EEENS2_8OpSchemaEvE3$_6NS_9allocatorIS6_EEFvRNS2_16InferenceContextEEE18destroy_deallocateEv', symObjAddr: 0xDB40, symBinAddr: 0xBBC250, symSize: 0x4 }
  - { offsetInCU: 0x6C231, offset: 0x31D1CD, size: 0x8, addend: 0x0, symName: '__ZNSt3__110__function6__funcIZN4onnx11GetOpSchemaINS2_23RandomUniform_Onnx_ver1EEENS2_8OpSchemaEvE3$_6NS_9allocatorIS6_EEFvRNS2_16InferenceContextEEE18destroy_deallocateEv', symObjAddr: 0xDB40, symBinAddr: 0xBBC250, symSize: 0x4 }
  - { offsetInCU: 0x6C2DF, offset: 0x31D27B, size: 0x8, addend: 0x0, symName: '__ZNSt3__110__function6__funcIZN4onnx11GetOpSchemaINS2_23RandomUniform_Onnx_ver1EEENS2_8OpSchemaEvE3$_6NS_9allocatorIS6_EEFvRNS2_16InferenceContextEEEclESA_', symObjAddr: 0xDB44, symBinAddr: 0xBBC254, symSize: 0xF4 }
  - { offsetInCU: 0x6C9B6, offset: 0x31D952, size: 0x8, addend: 0x0, symName: '__ZNKSt3__110__function6__funcIZN4onnx11GetOpSchemaINS2_23RandomUniform_Onnx_ver1EEENS2_8OpSchemaEvE3$_6NS_9allocatorIS6_EEFvRNS2_16InferenceContextEEE6targetERKSt9type_info', symObjAddr: 0xDC38, symBinAddr: 0xBBC348, symSize: 0x60 }
  - { offsetInCU: 0x6CA3B, offset: 0x31D9D7, size: 0x8, addend: 0x0, symName: '__ZNKSt3__110__function6__funcIZN4onnx11GetOpSchemaINS2_23RandomUniform_Onnx_ver1EEENS2_8OpSchemaEvE3$_6NS_9allocatorIS6_EEFvRNS2_16InferenceContextEEE11target_typeEv', symObjAddr: 0xDC98, symBinAddr: 0xBBC3A8, symSize: 0xC }
  - { offsetInCU: 0x6CA60, offset: 0x31D9FC, size: 0x8, addend: 0x0, symName: '__ZNSt3__110__function6__funcIZN4onnx11GetOpSchemaINS2_17EyeLike_Onnx_ver9EEENS2_8OpSchemaEvE3$_7NS_9allocatorIS6_EEFvRNS2_16InferenceContextEEED1Ev', symObjAddr: 0xDCA4, symBinAddr: 0xBBC3B4, symSize: 0x4 }
  - { offsetInCU: 0x6CA8C, offset: 0x31DA28, size: 0x8, addend: 0x0, symName: '__ZNSt3__110__function6__funcIZN4onnx11GetOpSchemaINS2_17EyeLike_Onnx_ver9EEENS2_8OpSchemaEvE3$_7NS_9allocatorIS6_EEFvRNS2_16InferenceContextEEED0Ev', symObjAddr: 0xDCA8, symBinAddr: 0xBBC3B8, symSize: 0x4 }
  - { offsetInCU: 0x6CB46, offset: 0x31DAE2, size: 0x8, addend: 0x0, symName: '__ZNKSt3__110__function6__funcIZN4onnx11GetOpSchemaINS2_17EyeLike_Onnx_ver9EEENS2_8OpSchemaEvE3$_7NS_9allocatorIS6_EEFvRNS2_16InferenceContextEEE7__cloneEv', symObjAddr: 0xDCAC, symBinAddr: 0xBBC3BC, symSize: 0x24 }
  - { offsetInCU: 0x6CC8E, offset: 0x31DC2A, size: 0x8, addend: 0x0, symName: '__ZNKSt3__110__function6__funcIZN4onnx11GetOpSchemaINS2_17EyeLike_Onnx_ver9EEENS2_8OpSchemaEvE3$_7NS_9allocatorIS6_EEFvRNS2_16InferenceContextEEE7__cloneEPNS0_6__baseISB_EE', symObjAddr: 0xDCD0, symBinAddr: 0xBBC3E0, symSize: 0x10 }
  - { offsetInCU: 0x6CCC4, offset: 0x31DC60, size: 0x8, addend: 0x0, symName: '__ZNKSt3__110__function6__funcIZN4onnx11GetOpSchemaINS2_17EyeLike_Onnx_ver9EEENS2_8OpSchemaEvE3$_7NS_9allocatorIS6_EEFvRNS2_16InferenceContextEEE7__cloneEPNS0_6__baseISB_EE', symObjAddr: 0xDCD0, symBinAddr: 0xBBC3E0, symSize: 0x10 }
  - { offsetInCU: 0x6CCE0, offset: 0x31DC7C, size: 0x8, addend: 0x0, symName: '__ZNKSt3__110__function6__funcIZN4onnx11GetOpSchemaINS2_17EyeLike_Onnx_ver9EEENS2_8OpSchemaEvE3$_7NS_9allocatorIS6_EEFvRNS2_16InferenceContextEEE7__cloneEPNS0_6__baseISB_EE', symObjAddr: 0xDCD0, symBinAddr: 0xBBC3E0, symSize: 0x10 }
  - { offsetInCU: 0x6CCFC, offset: 0x31DC98, size: 0x8, addend: 0x0, symName: '__ZNSt3__110__function6__funcIZN4onnx11GetOpSchemaINS2_17EyeLike_Onnx_ver9EEENS2_8OpSchemaEvE3$_7NS_9allocatorIS6_EEFvRNS2_16InferenceContextEEE7destroyEv', symObjAddr: 0xDCE0, symBinAddr: 0xBBC3F0, symSize: 0x4 }
  - { offsetInCU: 0x6CD4D, offset: 0x31DCE9, size: 0x8, addend: 0x0, symName: '__ZNSt3__110__function6__funcIZN4onnx11GetOpSchemaINS2_17EyeLike_Onnx_ver9EEENS2_8OpSchemaEvE3$_7NS_9allocatorIS6_EEFvRNS2_16InferenceContextEEE18destroy_deallocateEv', symObjAddr: 0xDCE4, symBinAddr: 0xBBC3F4, symSize: 0x4 }
  - { offsetInCU: 0x6CD82, offset: 0x31DD1E, size: 0x8, addend: 0x0, symName: '__ZNSt3__110__function6__funcIZN4onnx11GetOpSchemaINS2_17EyeLike_Onnx_ver9EEENS2_8OpSchemaEvE3$_7NS_9allocatorIS6_EEFvRNS2_16InferenceContextEEE18destroy_deallocateEv', symObjAddr: 0xDCE4, symBinAddr: 0xBBC3F4, symSize: 0x4 }
  - { offsetInCU: 0x6CDA4, offset: 0x31DD40, size: 0x8, addend: 0x0, symName: '__ZNSt3__110__function6__funcIZN4onnx11GetOpSchemaINS2_17EyeLike_Onnx_ver9EEENS2_8OpSchemaEvE3$_7NS_9allocatorIS6_EEFvRNS2_16InferenceContextEEE18destroy_deallocateEv', symObjAddr: 0xDCE4, symBinAddr: 0xBBC3F4, symSize: 0x4 }
  - { offsetInCU: 0x6CDCF, offset: 0x31DD6B, size: 0x8, addend: 0x0, symName: '__ZNSt3__110__function6__funcIZN4onnx11GetOpSchemaINS2_17EyeLike_Onnx_ver9EEENS2_8OpSchemaEvE3$_7NS_9allocatorIS6_EEFvRNS2_16InferenceContextEEE18destroy_deallocateEv', symObjAddr: 0xDCE4, symBinAddr: 0xBBC3F4, symSize: 0x4 }
  - { offsetInCU: 0x6CDF5, offset: 0x31DD91, size: 0x8, addend: 0x0, symName: '__ZNSt3__110__function6__funcIZN4onnx11GetOpSchemaINS2_17EyeLike_Onnx_ver9EEENS2_8OpSchemaEvE3$_7NS_9allocatorIS6_EEFvRNS2_16InferenceContextEEE18destroy_deallocateEv', symObjAddr: 0xDCE4, symBinAddr: 0xBBC3F4, symSize: 0x4 }
  - { offsetInCU: 0x6CEB1, offset: 0x31DE4D, size: 0x8, addend: 0x0, symName: '__ZNSt3__110__function6__funcIZN4onnx11GetOpSchemaINS2_17EyeLike_Onnx_ver9EEENS2_8OpSchemaEvE3$_7NS_9allocatorIS6_EEFvRNS2_16InferenceContextEEEclESA_', symObjAddr: 0xDCE8, symBinAddr: 0xBBC3F8, symSize: 0x2C8 }
  - { offsetInCU: 0x6D954, offset: 0x31E8F0, size: 0x8, addend: 0x0, symName: '__ZNKSt3__110__function6__funcIZN4onnx11GetOpSchemaINS2_17EyeLike_Onnx_ver9EEENS2_8OpSchemaEvE3$_7NS_9allocatorIS6_EEFvRNS2_16InferenceContextEEE6targetERKSt9type_info', symObjAddr: 0xDFB0, symBinAddr: 0xBBC6C0, symSize: 0x60 }
  - { offsetInCU: 0x6D9D9, offset: 0x31E975, size: 0x8, addend: 0x0, symName: '__ZNKSt3__110__function6__funcIZN4onnx11GetOpSchemaINS2_17EyeLike_Onnx_ver9EEENS2_8OpSchemaEvE3$_7NS_9allocatorIS6_EEFvRNS2_16InferenceContextEEE11target_typeEv', symObjAddr: 0xE010, symBinAddr: 0xBBC720, symSize: 0xC }
  - { offsetInCU: 0x6D9FE, offset: 0x31E99A, size: 0x8, addend: 0x0, symName: '__ZNSt3__110__function6__funcIZN4onnx11GetOpSchemaINS2_18Constant_Onnx_ver1EEENS2_8OpSchemaEvE3$_8NS_9allocatorIS6_EEFvRNS2_16InferenceContextEEED1Ev', symObjAddr: 0xE1F4, symBinAddr: 0xBBC72C, symSize: 0x4 }
  - { offsetInCU: 0x6DA2A, offset: 0x31E9C6, size: 0x8, addend: 0x0, symName: '__ZNSt3__110__function6__funcIZN4onnx11GetOpSchemaINS2_18Constant_Onnx_ver1EEENS2_8OpSchemaEvE3$_8NS_9allocatorIS6_EEFvRNS2_16InferenceContextEEED0Ev', symObjAddr: 0xE1F8, symBinAddr: 0xBBC730, symSize: 0x4 }
  - { offsetInCU: 0x6DAE4, offset: 0x31EA80, size: 0x8, addend: 0x0, symName: '__ZNKSt3__110__function6__funcIZN4onnx11GetOpSchemaINS2_18Constant_Onnx_ver1EEENS2_8OpSchemaEvE3$_8NS_9allocatorIS6_EEFvRNS2_16InferenceContextEEE7__cloneEv', symObjAddr: 0xE1FC, symBinAddr: 0xBBC734, symSize: 0x24 }
  - { offsetInCU: 0x6DC2C, offset: 0x31EBC8, size: 0x8, addend: 0x0, symName: '__ZNKSt3__110__function6__funcIZN4onnx11GetOpSchemaINS2_18Constant_Onnx_ver1EEENS2_8OpSchemaEvE3$_8NS_9allocatorIS6_EEFvRNS2_16InferenceContextEEE7__cloneEPNS0_6__baseISB_EE', symObjAddr: 0xE220, symBinAddr: 0xBBC758, symSize: 0x10 }
  - { offsetInCU: 0x6DC62, offset: 0x31EBFE, size: 0x8, addend: 0x0, symName: '__ZNKSt3__110__function6__funcIZN4onnx11GetOpSchemaINS2_18Constant_Onnx_ver1EEENS2_8OpSchemaEvE3$_8NS_9allocatorIS6_EEFvRNS2_16InferenceContextEEE7__cloneEPNS0_6__baseISB_EE', symObjAddr: 0xE220, symBinAddr: 0xBBC758, symSize: 0x10 }
  - { offsetInCU: 0x6DC7E, offset: 0x31EC1A, size: 0x8, addend: 0x0, symName: '__ZNKSt3__110__function6__funcIZN4onnx11GetOpSchemaINS2_18Constant_Onnx_ver1EEENS2_8OpSchemaEvE3$_8NS_9allocatorIS6_EEFvRNS2_16InferenceContextEEE7__cloneEPNS0_6__baseISB_EE', symObjAddr: 0xE220, symBinAddr: 0xBBC758, symSize: 0x10 }
  - { offsetInCU: 0x6DC9A, offset: 0x31EC36, size: 0x8, addend: 0x0, symName: '__ZNSt3__110__function6__funcIZN4onnx11GetOpSchemaINS2_18Constant_Onnx_ver1EEENS2_8OpSchemaEvE3$_8NS_9allocatorIS6_EEFvRNS2_16InferenceContextEEE7destroyEv', symObjAddr: 0xE230, symBinAddr: 0xBBC768, symSize: 0x4 }
  - { offsetInCU: 0x6DCEB, offset: 0x31EC87, size: 0x8, addend: 0x0, symName: '__ZNSt3__110__function6__funcIZN4onnx11GetOpSchemaINS2_18Constant_Onnx_ver1EEENS2_8OpSchemaEvE3$_8NS_9allocatorIS6_EEFvRNS2_16InferenceContextEEE18destroy_deallocateEv', symObjAddr: 0xE234, symBinAddr: 0xBBC76C, symSize: 0x4 }
  - { offsetInCU: 0x6DD20, offset: 0x31ECBC, size: 0x8, addend: 0x0, symName: '__ZNSt3__110__function6__funcIZN4onnx11GetOpSchemaINS2_18Constant_Onnx_ver1EEENS2_8OpSchemaEvE3$_8NS_9allocatorIS6_EEFvRNS2_16InferenceContextEEE18destroy_deallocateEv', symObjAddr: 0xE234, symBinAddr: 0xBBC76C, symSize: 0x4 }
  - { offsetInCU: 0x6DD42, offset: 0x31ECDE, size: 0x8, addend: 0x0, symName: '__ZNSt3__110__function6__funcIZN4onnx11GetOpSchemaINS2_18Constant_Onnx_ver1EEENS2_8OpSchemaEvE3$_8NS_9allocatorIS6_EEFvRNS2_16InferenceContextEEE18destroy_deallocateEv', symObjAddr: 0xE234, symBinAddr: 0xBBC76C, symSize: 0x4 }
  - { offsetInCU: 0x6DD6D, offset: 0x31ED09, size: 0x8, addend: 0x0, symName: '__ZNSt3__110__function6__funcIZN4onnx11GetOpSchemaINS2_18Constant_Onnx_ver1EEENS2_8OpSchemaEvE3$_8NS_9allocatorIS6_EEFvRNS2_16InferenceContextEEE18destroy_deallocateEv', symObjAddr: 0xE234, symBinAddr: 0xBBC76C, symSize: 0x4 }
  - { offsetInCU: 0x6DD93, offset: 0x31ED2F, size: 0x8, addend: 0x0, symName: '__ZNSt3__110__function6__funcIZN4onnx11GetOpSchemaINS2_18Constant_Onnx_ver1EEENS2_8OpSchemaEvE3$_8NS_9allocatorIS6_EEFvRNS2_16InferenceContextEEE18destroy_deallocateEv', symObjAddr: 0xE234, symBinAddr: 0xBBC76C, symSize: 0x4 }
  - { offsetInCU: 0x6DEC5, offset: 0x31EE61, size: 0x8, addend: 0x0, symName: '__ZNSt3__110__function6__funcIZN4onnx11GetOpSchemaINS2_18Constant_Onnx_ver1EEENS2_8OpSchemaEvE3$_8NS_9allocatorIS6_EEFvRNS2_16InferenceContextEEEclESA_', symObjAddr: 0xE238, symBinAddr: 0xBBC770, symSize: 0x19C }
  - { offsetInCU: 0x6E661, offset: 0x31F5FD, size: 0x8, addend: 0x0, symName: '__ZNKSt3__110__function6__funcIZN4onnx11GetOpSchemaINS2_18Constant_Onnx_ver1EEENS2_8OpSchemaEvE3$_8NS_9allocatorIS6_EEFvRNS2_16InferenceContextEEE6targetERKSt9type_info', symObjAddr: 0xE3D4, symBinAddr: 0xBBC90C, symSize: 0x60 }
  - { offsetInCU: 0x6E6E6, offset: 0x31F682, size: 0x8, addend: 0x0, symName: '__ZNKSt3__110__function6__funcIZN4onnx11GetOpSchemaINS2_18Constant_Onnx_ver1EEENS2_8OpSchemaEvE3$_8NS_9allocatorIS6_EEFvRNS2_16InferenceContextEEE11target_typeEv', symObjAddr: 0xE434, symBinAddr: 0xBBC96C, symSize: 0xC }
  - { offsetInCU: 0x6E70B, offset: 0x31F6A7, size: 0x8, addend: 0x0, symName: '__ZNSt3__110__function6__funcIZN4onnx11GetOpSchemaINS2_18Constant_Onnx_ver9EEENS2_8OpSchemaEvE3$_9NS_9allocatorIS6_EEFvRNS2_16InferenceContextEEED1Ev', symObjAddr: 0xE440, symBinAddr: 0xBBC978, symSize: 0x4 }
  - { offsetInCU: 0x6E737, offset: 0x31F6D3, size: 0x8, addend: 0x0, symName: '__ZNSt3__110__function6__funcIZN4onnx11GetOpSchemaINS2_18Constant_Onnx_ver9EEENS2_8OpSchemaEvE3$_9NS_9allocatorIS6_EEFvRNS2_16InferenceContextEEED0Ev', symObjAddr: 0xE444, symBinAddr: 0xBBC97C, symSize: 0x4 }
  - { offsetInCU: 0x6E7F1, offset: 0x31F78D, size: 0x8, addend: 0x0, symName: '__ZNKSt3__110__function6__funcIZN4onnx11GetOpSchemaINS2_18Constant_Onnx_ver9EEENS2_8OpSchemaEvE3$_9NS_9allocatorIS6_EEFvRNS2_16InferenceContextEEE7__cloneEv', symObjAddr: 0xE448, symBinAddr: 0xBBC980, symSize: 0x24 }
  - { offsetInCU: 0x6E939, offset: 0x31F8D5, size: 0x8, addend: 0x0, symName: '__ZNKSt3__110__function6__funcIZN4onnx11GetOpSchemaINS2_18Constant_Onnx_ver9EEENS2_8OpSchemaEvE3$_9NS_9allocatorIS6_EEFvRNS2_16InferenceContextEEE7__cloneEPNS0_6__baseISB_EE', symObjAddr: 0xE46C, symBinAddr: 0xBBC9A4, symSize: 0x10 }
  - { offsetInCU: 0x6E96F, offset: 0x31F90B, size: 0x8, addend: 0x0, symName: '__ZNKSt3__110__function6__funcIZN4onnx11GetOpSchemaINS2_18Constant_Onnx_ver9EEENS2_8OpSchemaEvE3$_9NS_9allocatorIS6_EEFvRNS2_16InferenceContextEEE7__cloneEPNS0_6__baseISB_EE', symObjAddr: 0xE46C, symBinAddr: 0xBBC9A4, symSize: 0x10 }
  - { offsetInCU: 0x6E98B, offset: 0x31F927, size: 0x8, addend: 0x0, symName: '__ZNKSt3__110__function6__funcIZN4onnx11GetOpSchemaINS2_18Constant_Onnx_ver9EEENS2_8OpSchemaEvE3$_9NS_9allocatorIS6_EEFvRNS2_16InferenceContextEEE7__cloneEPNS0_6__baseISB_EE', symObjAddr: 0xE46C, symBinAddr: 0xBBC9A4, symSize: 0x10 }
  - { offsetInCU: 0x6E9A7, offset: 0x31F943, size: 0x8, addend: 0x0, symName: '__ZNSt3__110__function6__funcIZN4onnx11GetOpSchemaINS2_18Constant_Onnx_ver9EEENS2_8OpSchemaEvE3$_9NS_9allocatorIS6_EEFvRNS2_16InferenceContextEEE7destroyEv', symObjAddr: 0xE47C, symBinAddr: 0xBBC9B4, symSize: 0x4 }
  - { offsetInCU: 0x6E9F8, offset: 0x31F994, size: 0x8, addend: 0x0, symName: '__ZNSt3__110__function6__funcIZN4onnx11GetOpSchemaINS2_18Constant_Onnx_ver9EEENS2_8OpSchemaEvE3$_9NS_9allocatorIS6_EEFvRNS2_16InferenceContextEEE18destroy_deallocateEv', symObjAddr: 0xE480, symBinAddr: 0xBBC9B8, symSize: 0x4 }
  - { offsetInCU: 0x6EA2D, offset: 0x31F9C9, size: 0x8, addend: 0x0, symName: '__ZNSt3__110__function6__funcIZN4onnx11GetOpSchemaINS2_18Constant_Onnx_ver9EEENS2_8OpSchemaEvE3$_9NS_9allocatorIS6_EEFvRNS2_16InferenceContextEEE18destroy_deallocateEv', symObjAddr: 0xE480, symBinAddr: 0xBBC9B8, symSize: 0x4 }
  - { offsetInCU: 0x6EA4F, offset: 0x31F9EB, size: 0x8, addend: 0x0, symName: '__ZNSt3__110__function6__funcIZN4onnx11GetOpSchemaINS2_18Constant_Onnx_ver9EEENS2_8OpSchemaEvE3$_9NS_9allocatorIS6_EEFvRNS2_16InferenceContextEEE18destroy_deallocateEv', symObjAddr: 0xE480, symBinAddr: 0xBBC9B8, symSize: 0x4 }
  - { offsetInCU: 0x6EA7A, offset: 0x31FA16, size: 0x8, addend: 0x0, symName: '__ZNSt3__110__function6__funcIZN4onnx11GetOpSchemaINS2_18Constant_Onnx_ver9EEENS2_8OpSchemaEvE3$_9NS_9allocatorIS6_EEFvRNS2_16InferenceContextEEE18destroy_deallocateEv', symObjAddr: 0xE480, symBinAddr: 0xBBC9B8, symSize: 0x4 }
  - { offsetInCU: 0x6EAA0, offset: 0x31FA3C, size: 0x8, addend: 0x0, symName: '__ZNSt3__110__function6__funcIZN4onnx11GetOpSchemaINS2_18Constant_Onnx_ver9EEENS2_8OpSchemaEvE3$_9NS_9allocatorIS6_EEFvRNS2_16InferenceContextEEE18destroy_deallocateEv', symObjAddr: 0xE480, symBinAddr: 0xBBC9B8, symSize: 0x4 }
  - { offsetInCU: 0x6EB66, offset: 0x31FB02, size: 0x8, addend: 0x0, symName: '__ZNSt3__110__function6__funcIZN4onnx11GetOpSchemaINS2_18Constant_Onnx_ver9EEENS2_8OpSchemaEvE3$_9NS_9allocatorIS6_EEFvRNS2_16InferenceContextEEEclESA_', symObjAddr: 0xE484, symBinAddr: 0xBBC9BC, symSize: 0x23C }
  - { offsetInCU: 0x6F4D1, offset: 0x32046D, size: 0x8, addend: 0x0, symName: '__ZNKSt3__110__function6__funcIZN4onnx11GetOpSchemaINS2_18Constant_Onnx_ver9EEENS2_8OpSchemaEvE3$_9NS_9allocatorIS6_EEFvRNS2_16InferenceContextEEE6targetERKSt9type_info', symObjAddr: 0xE6C0, symBinAddr: 0xBBCBF8, symSize: 0x60 }
  - { offsetInCU: 0x6F556, offset: 0x3204F2, size: 0x8, addend: 0x0, symName: '__ZNKSt3__110__function6__funcIZN4onnx11GetOpSchemaINS2_18Constant_Onnx_ver9EEENS2_8OpSchemaEvE3$_9NS_9allocatorIS6_EEFvRNS2_16InferenceContextEEE11target_typeEv', symObjAddr: 0xE720, symBinAddr: 0xBBCC58, symSize: 0xC }
  - { offsetInCU: 0x6F594, offset: 0x320530, size: 0x8, addend: 0x0, symName: '__ZNSt3__110__function6__funcIZN4onnx11GetOpSchemaINS2_19Constant_Onnx_ver11EEENS2_8OpSchemaEvE4$_10NS_9allocatorIS6_EEFvRNS2_16InferenceContextEEED1Ev', symObjAddr: 0xE904, symBinAddr: 0xBBCE3C, symSize: 0x4 }
  - { offsetInCU: 0x6F5C0, offset: 0x32055C, size: 0x8, addend: 0x0, symName: '__ZNSt3__110__function6__funcIZN4onnx11GetOpSchemaINS2_19Constant_Onnx_ver11EEENS2_8OpSchemaEvE4$_10NS_9allocatorIS6_EEFvRNS2_16InferenceContextEEED0Ev', symObjAddr: 0xE908, symBinAddr: 0xBBCE40, symSize: 0x4 }
  - { offsetInCU: 0x6F67A, offset: 0x320616, size: 0x8, addend: 0x0, symName: '__ZNKSt3__110__function6__funcIZN4onnx11GetOpSchemaINS2_19Constant_Onnx_ver11EEENS2_8OpSchemaEvE4$_10NS_9allocatorIS6_EEFvRNS2_16InferenceContextEEE7__cloneEv', symObjAddr: 0xE90C, symBinAddr: 0xBBCE44, symSize: 0x24 }
  - { offsetInCU: 0x6F7C2, offset: 0x32075E, size: 0x8, addend: 0x0, symName: '__ZNKSt3__110__function6__funcIZN4onnx11GetOpSchemaINS2_19Constant_Onnx_ver11EEENS2_8OpSchemaEvE4$_10NS_9allocatorIS6_EEFvRNS2_16InferenceContextEEE7__cloneEPNS0_6__baseISB_EE', symObjAddr: 0xE930, symBinAddr: 0xBBCE68, symSize: 0x10 }
  - { offsetInCU: 0x6F7F8, offset: 0x320794, size: 0x8, addend: 0x0, symName: '__ZNKSt3__110__function6__funcIZN4onnx11GetOpSchemaINS2_19Constant_Onnx_ver11EEENS2_8OpSchemaEvE4$_10NS_9allocatorIS6_EEFvRNS2_16InferenceContextEEE7__cloneEPNS0_6__baseISB_EE', symObjAddr: 0xE930, symBinAddr: 0xBBCE68, symSize: 0x10 }
  - { offsetInCU: 0x6F814, offset: 0x3207B0, size: 0x8, addend: 0x0, symName: '__ZNKSt3__110__function6__funcIZN4onnx11GetOpSchemaINS2_19Constant_Onnx_ver11EEENS2_8OpSchemaEvE4$_10NS_9allocatorIS6_EEFvRNS2_16InferenceContextEEE7__cloneEPNS0_6__baseISB_EE', symObjAddr: 0xE930, symBinAddr: 0xBBCE68, symSize: 0x10 }
  - { offsetInCU: 0x6F830, offset: 0x3207CC, size: 0x8, addend: 0x0, symName: '__ZNSt3__110__function6__funcIZN4onnx11GetOpSchemaINS2_19Constant_Onnx_ver11EEENS2_8OpSchemaEvE4$_10NS_9allocatorIS6_EEFvRNS2_16InferenceContextEEE7destroyEv', symObjAddr: 0xE940, symBinAddr: 0xBBCE78, symSize: 0x4 }
  - { offsetInCU: 0x6F881, offset: 0x32081D, size: 0x8, addend: 0x0, symName: '__ZNSt3__110__function6__funcIZN4onnx11GetOpSchemaINS2_19Constant_Onnx_ver11EEENS2_8OpSchemaEvE4$_10NS_9allocatorIS6_EEFvRNS2_16InferenceContextEEE18destroy_deallocateEv', symObjAddr: 0xE944, symBinAddr: 0xBBCE7C, symSize: 0x4 }
  - { offsetInCU: 0x6F8B6, offset: 0x320852, size: 0x8, addend: 0x0, symName: '__ZNSt3__110__function6__funcIZN4onnx11GetOpSchemaINS2_19Constant_Onnx_ver11EEENS2_8OpSchemaEvE4$_10NS_9allocatorIS6_EEFvRNS2_16InferenceContextEEE18destroy_deallocateEv', symObjAddr: 0xE944, symBinAddr: 0xBBCE7C, symSize: 0x4 }
  - { offsetInCU: 0x6F8D8, offset: 0x320874, size: 0x8, addend: 0x0, symName: '__ZNSt3__110__function6__funcIZN4onnx11GetOpSchemaINS2_19Constant_Onnx_ver11EEENS2_8OpSchemaEvE4$_10NS_9allocatorIS6_EEFvRNS2_16InferenceContextEEE18destroy_deallocateEv', symObjAddr: 0xE944, symBinAddr: 0xBBCE7C, symSize: 0x4 }
  - { offsetInCU: 0x6F903, offset: 0x32089F, size: 0x8, addend: 0x0, symName: '__ZNSt3__110__function6__funcIZN4onnx11GetOpSchemaINS2_19Constant_Onnx_ver11EEENS2_8OpSchemaEvE4$_10NS_9allocatorIS6_EEFvRNS2_16InferenceContextEEE18destroy_deallocateEv', symObjAddr: 0xE944, symBinAddr: 0xBBCE7C, symSize: 0x4 }
  - { offsetInCU: 0x6F929, offset: 0x3208C5, size: 0x8, addend: 0x0, symName: '__ZNSt3__110__function6__funcIZN4onnx11GetOpSchemaINS2_19Constant_Onnx_ver11EEENS2_8OpSchemaEvE4$_10NS_9allocatorIS6_EEFvRNS2_16InferenceContextEEE18destroy_deallocateEv', symObjAddr: 0xE944, symBinAddr: 0xBBCE7C, symSize: 0x4 }
  - { offsetInCU: 0x6FBBA, offset: 0x320B56, size: 0x8, addend: 0x0, symName: '__ZNSt3__110__function6__funcIZN4onnx11GetOpSchemaINS2_19Constant_Onnx_ver11EEENS2_8OpSchemaEvE4$_10NS_9allocatorIS6_EEFvRNS2_16InferenceContextEEEclESA_', symObjAddr: 0xE948, symBinAddr: 0xBBCE80, symSize: 0x410 }
  - { offsetInCU: 0x70BB1, offset: 0x321B4D, size: 0x8, addend: 0x0, symName: '__ZNKSt3__110__function6__funcIZN4onnx11GetOpSchemaINS2_19Constant_Onnx_ver11EEENS2_8OpSchemaEvE4$_10NS_9allocatorIS6_EEFvRNS2_16InferenceContextEEE6targetERKSt9type_info', symObjAddr: 0xED58, symBinAddr: 0xBBD290, symSize: 0x60 }
  - { offsetInCU: 0x70C36, offset: 0x321BD2, size: 0x8, addend: 0x0, symName: '__ZNKSt3__110__function6__funcIZN4onnx11GetOpSchemaINS2_19Constant_Onnx_ver11EEENS2_8OpSchemaEvE4$_10NS_9allocatorIS6_EEFvRNS2_16InferenceContextEEE11target_typeEv', symObjAddr: 0xEDB8, symBinAddr: 0xBBD2F0, symSize: 0xC }
  - { offsetInCU: 0x70C8D, offset: 0x321C29, size: 0x8, addend: 0x0, symName: '__ZNSt3__110__function6__funcIZN4onnx11GetOpSchemaINS2_26ConstantOfShape_Onnx_ver20EEENS2_8OpSchemaEvE4$_11NS_9allocatorIS6_EEFvRNS2_16InferenceContextEEED1Ev', symObjAddr: 0xF174, symBinAddr: 0xBBD4D4, symSize: 0x4 }
  - { offsetInCU: 0x70CB9, offset: 0x321C55, size: 0x8, addend: 0x0, symName: '__ZNSt3__110__function6__funcIZN4onnx11GetOpSchemaINS2_26ConstantOfShape_Onnx_ver20EEENS2_8OpSchemaEvE4$_11NS_9allocatorIS6_EEFvRNS2_16InferenceContextEEED0Ev', symObjAddr: 0xF178, symBinAddr: 0xBBD4D8, symSize: 0x4 }
  - { offsetInCU: 0x70D73, offset: 0x321D0F, size: 0x8, addend: 0x0, symName: '__ZNKSt3__110__function6__funcIZN4onnx11GetOpSchemaINS2_26ConstantOfShape_Onnx_ver20EEENS2_8OpSchemaEvE4$_11NS_9allocatorIS6_EEFvRNS2_16InferenceContextEEE7__cloneEv', symObjAddr: 0xF17C, symBinAddr: 0xBBD4DC, symSize: 0x24 }
  - { offsetInCU: 0x70EBB, offset: 0x321E57, size: 0x8, addend: 0x0, symName: '__ZNKSt3__110__function6__funcIZN4onnx11GetOpSchemaINS2_26ConstantOfShape_Onnx_ver20EEENS2_8OpSchemaEvE4$_11NS_9allocatorIS6_EEFvRNS2_16InferenceContextEEE7__cloneEPNS0_6__baseISB_EE', symObjAddr: 0xF1A0, symBinAddr: 0xBBD500, symSize: 0x10 }
  - { offsetInCU: 0x70EF1, offset: 0x321E8D, size: 0x8, addend: 0x0, symName: '__ZNKSt3__110__function6__funcIZN4onnx11GetOpSchemaINS2_26ConstantOfShape_Onnx_ver20EEENS2_8OpSchemaEvE4$_11NS_9allocatorIS6_EEFvRNS2_16InferenceContextEEE7__cloneEPNS0_6__baseISB_EE', symObjAddr: 0xF1A0, symBinAddr: 0xBBD500, symSize: 0x10 }
  - { offsetInCU: 0x70F0D, offset: 0x321EA9, size: 0x8, addend: 0x0, symName: '__ZNKSt3__110__function6__funcIZN4onnx11GetOpSchemaINS2_26ConstantOfShape_Onnx_ver20EEENS2_8OpSchemaEvE4$_11NS_9allocatorIS6_EEFvRNS2_16InferenceContextEEE7__cloneEPNS0_6__baseISB_EE', symObjAddr: 0xF1A0, symBinAddr: 0xBBD500, symSize: 0x10 }
  - { offsetInCU: 0x70F29, offset: 0x321EC5, size: 0x8, addend: 0x0, symName: '__ZNSt3__110__function6__funcIZN4onnx11GetOpSchemaINS2_26ConstantOfShape_Onnx_ver20EEENS2_8OpSchemaEvE4$_11NS_9allocatorIS6_EEFvRNS2_16InferenceContextEEE7destroyEv', symObjAddr: 0xF1B0, symBinAddr: 0xBBD510, symSize: 0x4 }
  - { offsetInCU: 0x70F7A, offset: 0x321F16, size: 0x8, addend: 0x0, symName: '__ZNSt3__110__function6__funcIZN4onnx11GetOpSchemaINS2_26ConstantOfShape_Onnx_ver20EEENS2_8OpSchemaEvE4$_11NS_9allocatorIS6_EEFvRNS2_16InferenceContextEEE18destroy_deallocateEv', symObjAddr: 0xF1B4, symBinAddr: 0xBBD514, symSize: 0x4 }
  - { offsetInCU: 0x70FAF, offset: 0x321F4B, size: 0x8, addend: 0x0, symName: '__ZNSt3__110__function6__funcIZN4onnx11GetOpSchemaINS2_26ConstantOfShape_Onnx_ver20EEENS2_8OpSchemaEvE4$_11NS_9allocatorIS6_EEFvRNS2_16InferenceContextEEE18destroy_deallocateEv', symObjAddr: 0xF1B4, symBinAddr: 0xBBD514, symSize: 0x4 }
  - { offsetInCU: 0x70FD1, offset: 0x321F6D, size: 0x8, addend: 0x0, symName: '__ZNSt3__110__function6__funcIZN4onnx11GetOpSchemaINS2_26ConstantOfShape_Onnx_ver20EEENS2_8OpSchemaEvE4$_11NS_9allocatorIS6_EEFvRNS2_16InferenceContextEEE18destroy_deallocateEv', symObjAddr: 0xF1B4, symBinAddr: 0xBBD514, symSize: 0x4 }
  - { offsetInCU: 0x70FFC, offset: 0x321F98, size: 0x8, addend: 0x0, symName: '__ZNSt3__110__function6__funcIZN4onnx11GetOpSchemaINS2_26ConstantOfShape_Onnx_ver20EEENS2_8OpSchemaEvE4$_11NS_9allocatorIS6_EEFvRNS2_16InferenceContextEEE18destroy_deallocateEv', symObjAddr: 0xF1B4, symBinAddr: 0xBBD514, symSize: 0x4 }
  - { offsetInCU: 0x71022, offset: 0x321FBE, size: 0x8, addend: 0x0, symName: '__ZNSt3__110__function6__funcIZN4onnx11GetOpSchemaINS2_26ConstantOfShape_Onnx_ver20EEENS2_8OpSchemaEvE4$_11NS_9allocatorIS6_EEFvRNS2_16InferenceContextEEE18destroy_deallocateEv', symObjAddr: 0xF1B4, symBinAddr: 0xBBD514, symSize: 0x4 }
  - { offsetInCU: 0x710E8, offset: 0x322084, size: 0x8, addend: 0x0, symName: '__ZNSt3__110__function6__funcIZN4onnx11GetOpSchemaINS2_26ConstantOfShape_Onnx_ver20EEENS2_8OpSchemaEvE4$_11NS_9allocatorIS6_EEFvRNS2_16InferenceContextEEEclESA_', symObjAddr: 0xF1B8, symBinAddr: 0xBBD518, symSize: 0x208 }
  - { offsetInCU: 0x71A7A, offset: 0x322A16, size: 0x8, addend: 0x0, symName: '__ZNKSt3__110__function6__funcIZN4onnx11GetOpSchemaINS2_26ConstantOfShape_Onnx_ver20EEENS2_8OpSchemaEvE4$_11NS_9allocatorIS6_EEFvRNS2_16InferenceContextEEE6targetERKSt9type_info', symObjAddr: 0xF3C0, symBinAddr: 0xBBD720, symSize: 0x60 }
  - { offsetInCU: 0x71AFF, offset: 0x322A9B, size: 0x8, addend: 0x0, symName: '__ZNKSt3__110__function6__funcIZN4onnx11GetOpSchemaINS2_26ConstantOfShape_Onnx_ver20EEENS2_8OpSchemaEvE4$_11NS_9allocatorIS6_EEFvRNS2_16InferenceContextEEE11target_typeEv', symObjAddr: 0xF420, symBinAddr: 0xBBD780, symSize: 0xC }
  - { offsetInCU: 0x71B6F, offset: 0x322B0B, size: 0x8, addend: 0x0, symName: '__ZNSt3__110__function6__funcIZN4onnx11GetOpSchemaINS2_25ConstantOfShape_Onnx_ver9EEENS2_8OpSchemaEvE4$_12NS_9allocatorIS6_EEFvRNS2_16InferenceContextEEED1Ev', symObjAddr: 0x102EC, symBinAddr: 0xBBD78C, symSize: 0x4 }
  - { offsetInCU: 0x71B9B, offset: 0x322B37, size: 0x8, addend: 0x0, symName: '__ZNSt3__110__function6__funcIZN4onnx11GetOpSchemaINS2_25ConstantOfShape_Onnx_ver9EEENS2_8OpSchemaEvE4$_12NS_9allocatorIS6_EEFvRNS2_16InferenceContextEEED0Ev', symObjAddr: 0x102F0, symBinAddr: 0xBBD790, symSize: 0x4 }
  - { offsetInCU: 0x71C55, offset: 0x322BF1, size: 0x8, addend: 0x0, symName: '__ZNKSt3__110__function6__funcIZN4onnx11GetOpSchemaINS2_25ConstantOfShape_Onnx_ver9EEENS2_8OpSchemaEvE4$_12NS_9allocatorIS6_EEFvRNS2_16InferenceContextEEE7__cloneEv', symObjAddr: 0x102F4, symBinAddr: 0xBBD794, symSize: 0x24 }
  - { offsetInCU: 0x71D9D, offset: 0x322D39, size: 0x8, addend: 0x0, symName: '__ZNKSt3__110__function6__funcIZN4onnx11GetOpSchemaINS2_25ConstantOfShape_Onnx_ver9EEENS2_8OpSchemaEvE4$_12NS_9allocatorIS6_EEFvRNS2_16InferenceContextEEE7__cloneEPNS0_6__baseISB_EE', symObjAddr: 0x10318, symBinAddr: 0xBBD7B8, symSize: 0x10 }
  - { offsetInCU: 0x71DD3, offset: 0x322D6F, size: 0x8, addend: 0x0, symName: '__ZNKSt3__110__function6__funcIZN4onnx11GetOpSchemaINS2_25ConstantOfShape_Onnx_ver9EEENS2_8OpSchemaEvE4$_12NS_9allocatorIS6_EEFvRNS2_16InferenceContextEEE7__cloneEPNS0_6__baseISB_EE', symObjAddr: 0x10318, symBinAddr: 0xBBD7B8, symSize: 0x10 }
  - { offsetInCU: 0x71DEF, offset: 0x322D8B, size: 0x8, addend: 0x0, symName: '__ZNKSt3__110__function6__funcIZN4onnx11GetOpSchemaINS2_25ConstantOfShape_Onnx_ver9EEENS2_8OpSchemaEvE4$_12NS_9allocatorIS6_EEFvRNS2_16InferenceContextEEE7__cloneEPNS0_6__baseISB_EE', symObjAddr: 0x10318, symBinAddr: 0xBBD7B8, symSize: 0x10 }
  - { offsetInCU: 0x71E0B, offset: 0x322DA7, size: 0x8, addend: 0x0, symName: '__ZNSt3__110__function6__funcIZN4onnx11GetOpSchemaINS2_25ConstantOfShape_Onnx_ver9EEENS2_8OpSchemaEvE4$_12NS_9allocatorIS6_EEFvRNS2_16InferenceContextEEE7destroyEv', symObjAddr: 0x10328, symBinAddr: 0xBBD7C8, symSize: 0x4 }
  - { offsetInCU: 0x71E5C, offset: 0x322DF8, size: 0x8, addend: 0x0, symName: '__ZNSt3__110__function6__funcIZN4onnx11GetOpSchemaINS2_25ConstantOfShape_Onnx_ver9EEENS2_8OpSchemaEvE4$_12NS_9allocatorIS6_EEFvRNS2_16InferenceContextEEE18destroy_deallocateEv', symObjAddr: 0x1032C, symBinAddr: 0xBBD7CC, symSize: 0x4 }
  - { offsetInCU: 0x71E91, offset: 0x322E2D, size: 0x8, addend: 0x0, symName: '__ZNSt3__110__function6__funcIZN4onnx11GetOpSchemaINS2_25ConstantOfShape_Onnx_ver9EEENS2_8OpSchemaEvE4$_12NS_9allocatorIS6_EEFvRNS2_16InferenceContextEEE18destroy_deallocateEv', symObjAddr: 0x1032C, symBinAddr: 0xBBD7CC, symSize: 0x4 }
  - { offsetInCU: 0x71EB3, offset: 0x322E4F, size: 0x8, addend: 0x0, symName: '__ZNSt3__110__function6__funcIZN4onnx11GetOpSchemaINS2_25ConstantOfShape_Onnx_ver9EEENS2_8OpSchemaEvE4$_12NS_9allocatorIS6_EEFvRNS2_16InferenceContextEEE18destroy_deallocateEv', symObjAddr: 0x1032C, symBinAddr: 0xBBD7CC, symSize: 0x4 }
  - { offsetInCU: 0x71EDE, offset: 0x322E7A, size: 0x8, addend: 0x0, symName: '__ZNSt3__110__function6__funcIZN4onnx11GetOpSchemaINS2_25ConstantOfShape_Onnx_ver9EEENS2_8OpSchemaEvE4$_12NS_9allocatorIS6_EEFvRNS2_16InferenceContextEEE18destroy_deallocateEv', symObjAddr: 0x1032C, symBinAddr: 0xBBD7CC, symSize: 0x4 }
  - { offsetInCU: 0x71F04, offset: 0x322EA0, size: 0x8, addend: 0x0, symName: '__ZNSt3__110__function6__funcIZN4onnx11GetOpSchemaINS2_25ConstantOfShape_Onnx_ver9EEENS2_8OpSchemaEvE4$_12NS_9allocatorIS6_EEFvRNS2_16InferenceContextEEE18destroy_deallocateEv', symObjAddr: 0x1032C, symBinAddr: 0xBBD7CC, symSize: 0x4 }
  - { offsetInCU: 0x71FCA, offset: 0x322F66, size: 0x8, addend: 0x0, symName: '__ZNSt3__110__function6__funcIZN4onnx11GetOpSchemaINS2_25ConstantOfShape_Onnx_ver9EEENS2_8OpSchemaEvE4$_12NS_9allocatorIS6_EEFvRNS2_16InferenceContextEEEclESA_', symObjAddr: 0x10330, symBinAddr: 0xBBD7D0, symSize: 0x208 }
  - { offsetInCU: 0x7295C, offset: 0x3238F8, size: 0x8, addend: 0x0, symName: '__ZNKSt3__110__function6__funcIZN4onnx11GetOpSchemaINS2_25ConstantOfShape_Onnx_ver9EEENS2_8OpSchemaEvE4$_12NS_9allocatorIS6_EEFvRNS2_16InferenceContextEEE6targetERKSt9type_info', symObjAddr: 0x10538, symBinAddr: 0xBBD9D8, symSize: 0x60 }
  - { offsetInCU: 0x729E1, offset: 0x32397D, size: 0x8, addend: 0x0, symName: '__ZNKSt3__110__function6__funcIZN4onnx11GetOpSchemaINS2_25ConstantOfShape_Onnx_ver9EEENS2_8OpSchemaEvE4$_12NS_9allocatorIS6_EEFvRNS2_16InferenceContextEEE11target_typeEv', symObjAddr: 0x10598, symBinAddr: 0xBBDA38, symSize: 0xC }
  - { offsetInCU: 0x17AE7, offset: 0x33BD71, size: 0x8, addend: 0x0, symName: __ZN4onnx19ConstantOpInferenceERNS_16InferenceContextE, symObjAddr: 0x0, symBinAddr: 0xBBDA44, symSize: 0x9E8 }
  - { offsetInCU: 0x1B325, offset: 0x33F5AF, size: 0x8, addend: 0x0, symName: __ZN4onnx9appendDimEPNS_16TensorShapeProtoEx, symObjAddr: 0xDD8, symBinAddr: 0xBBE604, symSize: 0x90 }
  - { offsetInCU: 0x1B492, offset: 0x33F71C, size: 0x8, addend: 0x0, symName: __ZN4onnx10MakeStringIJA23_cA111_cEEENSt3__112basic_stringIcNS3_11char_traitsIcEENS3_9allocatorIcEEEEDpRKT_, symObjAddr: 0x9E8, symBinAddr: 0xBBE42C, symSize: 0x1D8 }
  - { offsetInCU: 0x9CB6, offset: 0x3509F1, size: 0x8, addend: 0x0, symName: __ZN4onnx11GetOpSchemaINS_23ImageDecoder_Onnx_ver20EEENS_8OpSchemaEv, symObjAddr: 0x0, symBinAddr: 0xBBE694, symSize: 0x350 }
  - { offsetInCU: 0x3EE93, offset: 0x385BCE, size: 0x8, addend: 0x0, symName: '__ZNSt3__110__function6__funcIZN4onnx11GetOpSchemaINS2_23ImageDecoder_Onnx_ver20EEENS2_8OpSchemaEvE3$_0NS_9allocatorIS6_EEFvRNS2_16InferenceContextEEED1Ev', symObjAddr: 0x41BC, symBinAddr: 0xBBE9E4, symSize: 0x4 }
  - { offsetInCU: 0x3EEBF, offset: 0x385BFA, size: 0x8, addend: 0x0, symName: '__ZNSt3__110__function6__funcIZN4onnx11GetOpSchemaINS2_23ImageDecoder_Onnx_ver20EEENS2_8OpSchemaEvE3$_0NS_9allocatorIS6_EEFvRNS2_16InferenceContextEEED0Ev', symObjAddr: 0x41C0, symBinAddr: 0xBBE9E8, symSize: 0x4 }
  - { offsetInCU: 0x3EF79, offset: 0x385CB4, size: 0x8, addend: 0x0, symName: '__ZNKSt3__110__function6__funcIZN4onnx11GetOpSchemaINS2_23ImageDecoder_Onnx_ver20EEENS2_8OpSchemaEvE3$_0NS_9allocatorIS6_EEFvRNS2_16InferenceContextEEE7__cloneEv', symObjAddr: 0x41C4, symBinAddr: 0xBBE9EC, symSize: 0x24 }
  - { offsetInCU: 0x3F0C1, offset: 0x385DFC, size: 0x8, addend: 0x0, symName: '__ZNKSt3__110__function6__funcIZN4onnx11GetOpSchemaINS2_23ImageDecoder_Onnx_ver20EEENS2_8OpSchemaEvE3$_0NS_9allocatorIS6_EEFvRNS2_16InferenceContextEEE7__cloneEPNS0_6__baseISB_EE', symObjAddr: 0x41E8, symBinAddr: 0xBBEA10, symSize: 0x10 }
  - { offsetInCU: 0x3F0F7, offset: 0x385E32, size: 0x8, addend: 0x0, symName: '__ZNKSt3__110__function6__funcIZN4onnx11GetOpSchemaINS2_23ImageDecoder_Onnx_ver20EEENS2_8OpSchemaEvE3$_0NS_9allocatorIS6_EEFvRNS2_16InferenceContextEEE7__cloneEPNS0_6__baseISB_EE', symObjAddr: 0x41E8, symBinAddr: 0xBBEA10, symSize: 0x10 }
  - { offsetInCU: 0x3F113, offset: 0x385E4E, size: 0x8, addend: 0x0, symName: '__ZNKSt3__110__function6__funcIZN4onnx11GetOpSchemaINS2_23ImageDecoder_Onnx_ver20EEENS2_8OpSchemaEvE3$_0NS_9allocatorIS6_EEFvRNS2_16InferenceContextEEE7__cloneEPNS0_6__baseISB_EE', symObjAddr: 0x41E8, symBinAddr: 0xBBEA10, symSize: 0x10 }
  - { offsetInCU: 0x3F12F, offset: 0x385E6A, size: 0x8, addend: 0x0, symName: '__ZNSt3__110__function6__funcIZN4onnx11GetOpSchemaINS2_23ImageDecoder_Onnx_ver20EEENS2_8OpSchemaEvE3$_0NS_9allocatorIS6_EEFvRNS2_16InferenceContextEEE7destroyEv', symObjAddr: 0x41F8, symBinAddr: 0xBBEA20, symSize: 0x4 }
  - { offsetInCU: 0x3F180, offset: 0x385EBB, size: 0x8, addend: 0x0, symName: '__ZNSt3__110__function6__funcIZN4onnx11GetOpSchemaINS2_23ImageDecoder_Onnx_ver20EEENS2_8OpSchemaEvE3$_0NS_9allocatorIS6_EEFvRNS2_16InferenceContextEEE18destroy_deallocateEv', symObjAddr: 0x41FC, symBinAddr: 0xBBEA24, symSize: 0x4 }
  - { offsetInCU: 0x3F1B5, offset: 0x385EF0, size: 0x8, addend: 0x0, symName: '__ZNSt3__110__function6__funcIZN4onnx11GetOpSchemaINS2_23ImageDecoder_Onnx_ver20EEENS2_8OpSchemaEvE3$_0NS_9allocatorIS6_EEFvRNS2_16InferenceContextEEE18destroy_deallocateEv', symObjAddr: 0x41FC, symBinAddr: 0xBBEA24, symSize: 0x4 }
  - { offsetInCU: 0x3F1D7, offset: 0x385F12, size: 0x8, addend: 0x0, symName: '__ZNSt3__110__function6__funcIZN4onnx11GetOpSchemaINS2_23ImageDecoder_Onnx_ver20EEENS2_8OpSchemaEvE3$_0NS_9allocatorIS6_EEFvRNS2_16InferenceContextEEE18destroy_deallocateEv', symObjAddr: 0x41FC, symBinAddr: 0xBBEA24, symSize: 0x4 }
  - { offsetInCU: 0x3F202, offset: 0x385F3D, size: 0x8, addend: 0x0, symName: '__ZNSt3__110__function6__funcIZN4onnx11GetOpSchemaINS2_23ImageDecoder_Onnx_ver20EEENS2_8OpSchemaEvE3$_0NS_9allocatorIS6_EEFvRNS2_16InferenceContextEEE18destroy_deallocateEv', symObjAddr: 0x41FC, symBinAddr: 0xBBEA24, symSize: 0x4 }
  - { offsetInCU: 0x3F228, offset: 0x385F63, size: 0x8, addend: 0x0, symName: '__ZNSt3__110__function6__funcIZN4onnx11GetOpSchemaINS2_23ImageDecoder_Onnx_ver20EEENS2_8OpSchemaEvE3$_0NS_9allocatorIS6_EEFvRNS2_16InferenceContextEEE18destroy_deallocateEv', symObjAddr: 0x41FC, symBinAddr: 0xBBEA24, symSize: 0x4 }
  - { offsetInCU: 0x3F6CD, offset: 0x386408, size: 0x8, addend: 0x0, symName: '__ZNSt3__110__function6__funcIZN4onnx11GetOpSchemaINS2_23ImageDecoder_Onnx_ver20EEENS2_8OpSchemaEvE3$_0NS_9allocatorIS6_EEFvRNS2_16InferenceContextEEEclESA_', symObjAddr: 0x4200, symBinAddr: 0xBBEA28, symSize: 0x37C }
  - { offsetInCU: 0x3FFA7, offset: 0x386CE2, size: 0x8, addend: 0x0, symName: '__ZNKSt3__110__function6__funcIZN4onnx11GetOpSchemaINS2_23ImageDecoder_Onnx_ver20EEENS2_8OpSchemaEvE3$_0NS_9allocatorIS6_EEFvRNS2_16InferenceContextEEE6targetERKSt9type_info', symObjAddr: 0x457C, symBinAddr: 0xBBEDA4, symSize: 0x60 }
  - { offsetInCU: 0x4002C, offset: 0x386D67, size: 0x8, addend: 0x0, symName: '__ZNKSt3__110__function6__funcIZN4onnx11GetOpSchemaINS2_23ImageDecoder_Onnx_ver20EEENS2_8OpSchemaEvE3$_0NS_9allocatorIS6_EEFvRNS2_16InferenceContextEEE11target_typeEv', symObjAddr: 0x45DC, symBinAddr: 0xBBEE04, symSize: 0xC }
  - { offsetInCU: 0x9D33, offset: 0x3914F6, size: 0x8, addend: 0x0, symName: __ZN4onnx23BinaryLogicDocGeneratorEPKc, symObjAddr: 0x0, symBinAddr: 0xBBEE10, symSize: 0x14 }
  - { offsetInCU: 0x9D79, offset: 0x39153C, size: 0x8, addend: 0x0, symName: __ZN4onnx23BinaryLogicDocGeneratorEPKc, symObjAddr: 0x0, symBinAddr: 0xBBEE10, symSize: 0x14 }
  - { offsetInCU: 0x9D9B, offset: 0x39155E, size: 0x8, addend: 0x0, symName: __ZN4onnx23BinaryLogicDocGeneratorEPKc, symObjAddr: 0x0, symBinAddr: 0xBBEE10, symSize: 0x14 }
  - { offsetInCU: 0x9DBE, offset: 0x391581, size: 0x8, addend: 0x0, symName: __ZN4onnx23BinaryLogicDocGeneratorEPKc, symObjAddr: 0x0, symBinAddr: 0xBBEE10, symSize: 0x14 }
  - { offsetInCU: 0x9DDA, offset: 0x39159D, size: 0x8, addend: 0x0, symName: __ZN4onnx23BinaryLogicDocGeneratorEPKc, symObjAddr: 0x0, symBinAddr: 0xBBEE10, symSize: 0x14 }
  - { offsetInCU: 0x9DF6, offset: 0x3915B9, size: 0x8, addend: 0x0, symName: __ZN4onnx23BinaryLogicDocGeneratorEPKc, symObjAddr: 0x0, symBinAddr: 0xBBEE10, symSize: 0x14 }
  - { offsetInCU: 0x9E12, offset: 0x3915D5, size: 0x8, addend: 0x0, symName: __ZN4onnx23BinaryLogicDocGeneratorEPKc, symObjAddr: 0x0, symBinAddr: 0xBBEE10, symSize: 0x14 }
  - { offsetInCU: 0x9E2E, offset: 0x3915F1, size: 0x8, addend: 0x0, symName: __ZN4onnx23BinaryLogicDocGeneratorEPKc, symObjAddr: 0x0, symBinAddr: 0xBBEE10, symSize: 0x14 }
  - { offsetInCU: 0x9E4E, offset: 0x391611, size: 0x8, addend: 0x0, symName: __ZN4onnx11GetOpSchemaINS_19BitShift_Onnx_ver11EEENS_8OpSchemaEv, symObjAddr: 0x1A90, symBinAddr: 0xBC0680, symSize: 0x42C }
  - { offsetInCU: 0xB51E, offset: 0x392CE1, size: 0x8, addend: 0x0, symName: __ZN4onnx11GetOpSchemaINS_13And_Onnx_ver7EEENS_8OpSchemaEv, symObjAddr: 0x14, symBinAddr: 0xBBEE24, symSize: 0x254 }
  - { offsetInCU: 0xBFBB, offset: 0x39377E, size: 0x8, addend: 0x0, symName: __ZN4onnx11GetOpSchemaINS_12Or_Onnx_ver7EEENS_8OpSchemaEv, symObjAddr: 0x268, symBinAddr: 0xBBF078, symSize: 0x254 }
  - { offsetInCU: 0xCA58, offset: 0x39421B, size: 0x8, addend: 0x0, symName: __ZN4onnx11GetOpSchemaINS_13Xor_Onnx_ver7EEENS_8OpSchemaEv, symObjAddr: 0x4BC, symBinAddr: 0xBBF2CC, symSize: 0x254 }
  - { offsetInCU: 0xD4F5, offset: 0x394CB8, size: 0x8, addend: 0x0, symName: __ZN4onnx11GetOpSchemaINS_18Greater_Onnx_ver13EEENS_8OpSchemaEv, symObjAddr: 0x710, symBinAddr: 0xBBF520, symSize: 0x374 }
  - { offsetInCU: 0xEBD3, offset: 0x396396, size: 0x8, addend: 0x0, symName: __ZN4onnx11GetOpSchemaINS_15Less_Onnx_ver13EEENS_8OpSchemaEv, symObjAddr: 0xFE8, symBinAddr: 0xBBFCE4, symSize: 0x374 }
  - { offsetInCU: 0x102B1, offset: 0x397A74, size: 0x8, addend: 0x0, symName: __ZN4onnx11GetOpSchemaINS_16Equal_Onnx_ver19EEENS_8OpSchemaEv, symObjAddr: 0x135C, symBinAddr: 0xBC0058, symSize: 0x290 }
  - { offsetInCU: 0x10D12, offset: 0x3984D5, size: 0x8, addend: 0x0, symName: __ZN4onnx11GetOpSchemaINS_13Not_Onnx_ver1EEENS_8OpSchemaEv, symObjAddr: 0x15EC, symBinAddr: 0xBC02E8, symSize: 0x298 }
  - { offsetInCU: 0x1189C, offset: 0x39905F, size: 0x8, addend: 0x0, symName: __ZN4onnx23unaryLogicalOpInferenceERNS_16InferenceContextE, symObjAddr: 0x1990, symBinAddr: 0xBC0580, symSize: 0x100 }
  - { offsetInCU: 0x12218, offset: 0x3999DB, size: 0x8, addend: 0x0, symName: __ZN4onnx11GetOpSchemaINS_22LessOrEqual_Onnx_ver16EEENS_8OpSchemaEv, symObjAddr: 0x1EBC, symBinAddr: 0xBC0AAC, symSize: 0x400 }
  - { offsetInCU: 0x13A8B, offset: 0x39B24E, size: 0x8, addend: 0x0, symName: __ZN4onnx11GetOpSchemaINS_25GreaterOrEqual_Onnx_ver16EEENS_8OpSchemaEv, symObjAddr: 0x22BC, symBinAddr: 0xBC0EAC, symSize: 0x400 }
  - { offsetInCU: 0x152FE, offset: 0x39CAC1, size: 0x8, addend: 0x0, symName: __ZN4onnx11GetOpSchemaINS_21BitwiseNot_Onnx_ver18EEENS_8OpSchemaEv, symObjAddr: 0x26BC, symBinAddr: 0xBC12AC, symSize: 0x2B0 }
  - { offsetInCU: 0x15DEE, offset: 0x39D5B1, size: 0x8, addend: 0x0, symName: __ZN4onnx11GetOpSchemaINS_21BitwiseAnd_Onnx_ver18EEENS_8OpSchemaEv, symObjAddr: 0x2A7C, symBinAddr: 0xBC155C, symSize: 0x22C }
  - { offsetInCU: 0x1688D, offset: 0x39E050, size: 0x8, addend: 0x0, symName: __ZN4onnx11GetOpSchemaINS_20BitwiseOr_Onnx_ver18EEENS_8OpSchemaEv, symObjAddr: 0x2CA8, symBinAddr: 0xBC1788, symSize: 0x22C }
  - { offsetInCU: 0x1732C, offset: 0x39EAEF, size: 0x8, addend: 0x0, symName: __ZN4onnx11GetOpSchemaINS_21BitwiseXor_Onnx_ver18EEENS_8OpSchemaEv, symObjAddr: 0x2ED4, symBinAddr: 0xBC19B4, symSize: 0x22C }
  - { offsetInCU: 0x4227C, offset: 0x3C9A3F, size: 0x8, addend: 0x0, symName: __ZN4onnx8OpSchema21all_numeric_types_ir4Ev, symObjAddr: 0xB24, symBinAddr: 0xBBF894, symSize: 0x450 }
  - { offsetInCU: 0x4229D, offset: 0x3C9A60, size: 0x8, addend: 0x0, symName: __ZZN4onnx8OpSchema21all_numeric_types_ir4EvE21all_numeric_types_ir4, symObjAddr: 0xC0C8, symBinAddr: 0x14F8E38, symSize: 0x0 }
  - { offsetInCU: 0x47EA4, offset: 0x3CF667, size: 0x8, addend: 0x0, symName: __ZN4onnx8OpSchema21all_numeric_types_ir4Ev, symObjAddr: 0xB24, symBinAddr: 0xBBF894, symSize: 0x450 }
  - { offsetInCU: 0x546BB, offset: 0x3DBE7E, size: 0x8, addend: 0x0, symName: '__ZNSt3__110__function6__funcIZN4onnx23BinaryLogicDocGeneratorEPKcE3$_0NS_9allocatorIS5_EEFvRNS2_8OpSchemaEEED1Ev', symObjAddr: 0x8624, symBinAddr: 0xBC1BE0, symSize: 0x4 }
  - { offsetInCU: 0x546E7, offset: 0x3DBEAA, size: 0x8, addend: 0x0, symName: '__ZNSt3__110__function6__funcIZN4onnx23BinaryLogicDocGeneratorEPKcE3$_0NS_9allocatorIS5_EEFvRNS2_8OpSchemaEEED0Ev', symObjAddr: 0x8628, symBinAddr: 0xBC1BE4, symSize: 0x4 }
  - { offsetInCU: 0x547A1, offset: 0x3DBF64, size: 0x8, addend: 0x0, symName: '__ZNKSt3__110__function6__funcIZN4onnx23BinaryLogicDocGeneratorEPKcE3$_0NS_9allocatorIS5_EEFvRNS2_8OpSchemaEEE7__cloneEv', symObjAddr: 0x862C, symBinAddr: 0xBC1BE8, symSize: 0x34 }
  - { offsetInCU: 0x548ED, offset: 0x3DC0B0, size: 0x8, addend: 0x0, symName: '__ZNKSt3__110__function6__funcIZN4onnx23BinaryLogicDocGeneratorEPKcE3$_0NS_9allocatorIS5_EEFvRNS2_8OpSchemaEEE7__cloneEPNS0_6__baseISA_EE', symObjAddr: 0x8660, symBinAddr: 0xBC1C1C, symSize: 0x14 }
  - { offsetInCU: 0x5495D, offset: 0x3DC120, size: 0x8, addend: 0x0, symName: '__ZNSt3__110__function6__funcIZN4onnx23BinaryLogicDocGeneratorEPKcE3$_0NS_9allocatorIS5_EEFvRNS2_8OpSchemaEEE7destroyEv', symObjAddr: 0x8674, symBinAddr: 0xBC1C30, symSize: 0x4 }
  - { offsetInCU: 0x549AE, offset: 0x3DC171, size: 0x8, addend: 0x0, symName: '__ZNSt3__110__function6__funcIZN4onnx23BinaryLogicDocGeneratorEPKcE3$_0NS_9allocatorIS5_EEFvRNS2_8OpSchemaEEE18destroy_deallocateEv', symObjAddr: 0x8678, symBinAddr: 0xBC1C34, symSize: 0x4 }
  - { offsetInCU: 0x549E3, offset: 0x3DC1A6, size: 0x8, addend: 0x0, symName: '__ZNSt3__110__function6__funcIZN4onnx23BinaryLogicDocGeneratorEPKcE3$_0NS_9allocatorIS5_EEFvRNS2_8OpSchemaEEE18destroy_deallocateEv', symObjAddr: 0x8678, symBinAddr: 0xBC1C34, symSize: 0x4 }
  - { offsetInCU: 0x54A05, offset: 0x3DC1C8, size: 0x8, addend: 0x0, symName: '__ZNSt3__110__function6__funcIZN4onnx23BinaryLogicDocGeneratorEPKcE3$_0NS_9allocatorIS5_EEFvRNS2_8OpSchemaEEE18destroy_deallocateEv', symObjAddr: 0x8678, symBinAddr: 0xBC1C34, symSize: 0x4 }
  - { offsetInCU: 0x54A30, offset: 0x3DC1F3, size: 0x8, addend: 0x0, symName: '__ZNSt3__110__function6__funcIZN4onnx23BinaryLogicDocGeneratorEPKcE3$_0NS_9allocatorIS5_EEFvRNS2_8OpSchemaEEE18destroy_deallocateEv', symObjAddr: 0x8678, symBinAddr: 0xBC1C34, symSize: 0x4 }
  - { offsetInCU: 0x54A56, offset: 0x3DC219, size: 0x8, addend: 0x0, symName: '__ZNSt3__110__function6__funcIZN4onnx23BinaryLogicDocGeneratorEPKcE3$_0NS_9allocatorIS5_EEFvRNS2_8OpSchemaEEE18destroy_deallocateEv', symObjAddr: 0x8678, symBinAddr: 0xBC1C34, symSize: 0x4 }
  - { offsetInCU: 0x54E20, offset: 0x3DC5E3, size: 0x8, addend: 0x0, symName: '__ZNSt3__110__function6__funcIZN4onnx23BinaryLogicDocGeneratorEPKcE3$_0NS_9allocatorIS5_EEFvRNS2_8OpSchemaEEEclES9_', symObjAddr: 0x867C, symBinAddr: 0xBC1C38, symSize: 0x2C8 }
  - { offsetInCU: 0x55A4D, offset: 0x3DD210, size: 0x8, addend: 0x0, symName: '__ZNKSt3__110__function6__funcIZN4onnx23BinaryLogicDocGeneratorEPKcE3$_0NS_9allocatorIS5_EEFvRNS2_8OpSchemaEEE6targetERKSt9type_info', symObjAddr: 0x8944, symBinAddr: 0xBC1F00, symSize: 0x60 }
  - { offsetInCU: 0x55AD2, offset: 0x3DD295, size: 0x8, addend: 0x0, symName: '__ZNKSt3__110__function6__funcIZN4onnx23BinaryLogicDocGeneratorEPKcE3$_0NS_9allocatorIS5_EEFvRNS2_8OpSchemaEEE11target_typeEv', symObjAddr: 0x89A4, symBinAddr: 0xBC1F60, symSize: 0xC }
  - { offsetInCU: 0x55AF7, offset: 0x3DD2BA, size: 0x8, addend: 0x0, symName: '__ZNSt3__110__function6__funcIZZN4onnx23BinaryLogicDocGeneratorEPKcENK3$_0clERNS2_8OpSchemaEEUlRNS2_16InferenceContextEE_NS_9allocatorISA_EEFvS9_EED1Ev', symObjAddr: 0x89B0, symBinAddr: 0xBC1F6C, symSize: 0x4 }
  - { offsetInCU: 0x55B23, offset: 0x3DD2E6, size: 0x8, addend: 0x0, symName: '__ZNSt3__110__function6__funcIZZN4onnx23BinaryLogicDocGeneratorEPKcENK3$_0clERNS2_8OpSchemaEEUlRNS2_16InferenceContextEE_NS_9allocatorISA_EEFvS9_EED0Ev', symObjAddr: 0x89B4, symBinAddr: 0xBC1F70, symSize: 0x4 }
  - { offsetInCU: 0x55BDD, offset: 0x3DD3A0, size: 0x8, addend: 0x0, symName: '__ZNKSt3__110__function6__funcIZZN4onnx23BinaryLogicDocGeneratorEPKcENK3$_0clERNS2_8OpSchemaEEUlRNS2_16InferenceContextEE_NS_9allocatorISA_EEFvS9_EE7__cloneEv', symObjAddr: 0x89B8, symBinAddr: 0xBC1F74, symSize: 0x24 }
  - { offsetInCU: 0x55D25, offset: 0x3DD4E8, size: 0x8, addend: 0x0, symName: '__ZNKSt3__110__function6__funcIZZN4onnx23BinaryLogicDocGeneratorEPKcENK3$_0clERNS2_8OpSchemaEEUlRNS2_16InferenceContextEE_NS_9allocatorISA_EEFvS9_EE7__cloneEPNS0_6__baseISD_EE', symObjAddr: 0x89DC, symBinAddr: 0xBC1F98, symSize: 0x10 }
  - { offsetInCU: 0x55D5B, offset: 0x3DD51E, size: 0x8, addend: 0x0, symName: '__ZNKSt3__110__function6__funcIZZN4onnx23BinaryLogicDocGeneratorEPKcENK3$_0clERNS2_8OpSchemaEEUlRNS2_16InferenceContextEE_NS_9allocatorISA_EEFvS9_EE7__cloneEPNS0_6__baseISD_EE', symObjAddr: 0x89DC, symBinAddr: 0xBC1F98, symSize: 0x10 }
  - { offsetInCU: 0x55D77, offset: 0x3DD53A, size: 0x8, addend: 0x0, symName: '__ZNKSt3__110__function6__funcIZZN4onnx23BinaryLogicDocGeneratorEPKcENK3$_0clERNS2_8OpSchemaEEUlRNS2_16InferenceContextEE_NS_9allocatorISA_EEFvS9_EE7__cloneEPNS0_6__baseISD_EE', symObjAddr: 0x89DC, symBinAddr: 0xBC1F98, symSize: 0x10 }
  - { offsetInCU: 0x55D93, offset: 0x3DD556, size: 0x8, addend: 0x0, symName: '__ZNSt3__110__function6__funcIZZN4onnx23BinaryLogicDocGeneratorEPKcENK3$_0clERNS2_8OpSchemaEEUlRNS2_16InferenceContextEE_NS_9allocatorISA_EEFvS9_EE7destroyEv', symObjAddr: 0x89EC, symBinAddr: 0xBC1FA8, symSize: 0x4 }
  - { offsetInCU: 0x55DE4, offset: 0x3DD5A7, size: 0x8, addend: 0x0, symName: '__ZNSt3__110__function6__funcIZZN4onnx23BinaryLogicDocGeneratorEPKcENK3$_0clERNS2_8OpSchemaEEUlRNS2_16InferenceContextEE_NS_9allocatorISA_EEFvS9_EE18destroy_deallocateEv', symObjAddr: 0x89F0, symBinAddr: 0xBC1FAC, symSize: 0x4 }
  - { offsetInCU: 0x55E19, offset: 0x3DD5DC, size: 0x8, addend: 0x0, symName: '__ZNSt3__110__function6__funcIZZN4onnx23BinaryLogicDocGeneratorEPKcENK3$_0clERNS2_8OpSchemaEEUlRNS2_16InferenceContextEE_NS_9allocatorISA_EEFvS9_EE18destroy_deallocateEv', symObjAddr: 0x89F0, symBinAddr: 0xBC1FAC, symSize: 0x4 }
  - { offsetInCU: 0x55E3B, offset: 0x3DD5FE, size: 0x8, addend: 0x0, symName: '__ZNSt3__110__function6__funcIZZN4onnx23BinaryLogicDocGeneratorEPKcENK3$_0clERNS2_8OpSchemaEEUlRNS2_16InferenceContextEE_NS_9allocatorISA_EEFvS9_EE18destroy_deallocateEv', symObjAddr: 0x89F0, symBinAddr: 0xBC1FAC, symSize: 0x4 }
  - { offsetInCU: 0x55E66, offset: 0x3DD629, size: 0x8, addend: 0x0, symName: '__ZNSt3__110__function6__funcIZZN4onnx23BinaryLogicDocGeneratorEPKcENK3$_0clERNS2_8OpSchemaEEUlRNS2_16InferenceContextEE_NS_9allocatorISA_EEFvS9_EE18destroy_deallocateEv', symObjAddr: 0x89F0, symBinAddr: 0xBC1FAC, symSize: 0x4 }
  - { offsetInCU: 0x55E8C, offset: 0x3DD64F, size: 0x8, addend: 0x0, symName: '__ZNSt3__110__function6__funcIZZN4onnx23BinaryLogicDocGeneratorEPKcENK3$_0clERNS2_8OpSchemaEEUlRNS2_16InferenceContextEE_NS_9allocatorISA_EEFvS9_EE18destroy_deallocateEv', symObjAddr: 0x89F0, symBinAddr: 0xBC1FAC, symSize: 0x4 }
  - { offsetInCU: 0x561F0, offset: 0x3DD9B3, size: 0x8, addend: 0x0, symName: '__ZNSt3__110__function6__funcIZZN4onnx23BinaryLogicDocGeneratorEPKcENK3$_0clERNS2_8OpSchemaEEUlRNS2_16InferenceContextEE_NS_9allocatorISA_EEFvS9_EEclES9_', symObjAddr: 0x89F4, symBinAddr: 0xBC1FB0, symSize: 0x330 }
  - { offsetInCU: 0x56E8E, offset: 0x3DE651, size: 0x8, addend: 0x0, symName: '__ZNKSt3__110__function6__funcIZZN4onnx23BinaryLogicDocGeneratorEPKcENK3$_0clERNS2_8OpSchemaEEUlRNS2_16InferenceContextEE_NS_9allocatorISA_EEFvS9_EE6targetERKSt9type_info', symObjAddr: 0x8D24, symBinAddr: 0xBC22E0, symSize: 0x60 }
  - { offsetInCU: 0x56F13, offset: 0x3DE6D6, size: 0x8, addend: 0x0, symName: '__ZNKSt3__110__function6__funcIZZN4onnx23BinaryLogicDocGeneratorEPKcENK3$_0clERNS2_8OpSchemaEEUlRNS2_16InferenceContextEE_NS_9allocatorISA_EEFvS9_EE11target_typeEv', symObjAddr: 0x8D84, symBinAddr: 0xBC2340, symSize: 0xC }
  - { offsetInCU: 0x57286, offset: 0x3DEA49, size: 0x8, addend: 0x0, symName: '__ZNSt3__110__function6__funcIZN4onnx11GetOpSchemaINS2_19BitShift_Onnx_ver11EEENS2_8OpSchemaEvE3$_1NS_9allocatorIS6_EEFvRNS2_16InferenceContextEEED1Ev', symObjAddr: 0x940C, symBinAddr: 0xBC234C, symSize: 0x4 }
  - { offsetInCU: 0x572B2, offset: 0x3DEA75, size: 0x8, addend: 0x0, symName: '__ZNSt3__110__function6__funcIZN4onnx11GetOpSchemaINS2_19BitShift_Onnx_ver11EEENS2_8OpSchemaEvE3$_1NS_9allocatorIS6_EEFvRNS2_16InferenceContextEEED0Ev', symObjAddr: 0x9410, symBinAddr: 0xBC2350, symSize: 0x4 }
  - { offsetInCU: 0x5736C, offset: 0x3DEB2F, size: 0x8, addend: 0x0, symName: '__ZNKSt3__110__function6__funcIZN4onnx11GetOpSchemaINS2_19BitShift_Onnx_ver11EEENS2_8OpSchemaEvE3$_1NS_9allocatorIS6_EEFvRNS2_16InferenceContextEEE7__cloneEv', symObjAddr: 0x9414, symBinAddr: 0xBC2354, symSize: 0x24 }
  - { offsetInCU: 0x574B4, offset: 0x3DEC77, size: 0x8, addend: 0x0, symName: '__ZNKSt3__110__function6__funcIZN4onnx11GetOpSchemaINS2_19BitShift_Onnx_ver11EEENS2_8OpSchemaEvE3$_1NS_9allocatorIS6_EEFvRNS2_16InferenceContextEEE7__cloneEPNS0_6__baseISB_EE', symObjAddr: 0x9438, symBinAddr: 0xBC2378, symSize: 0x10 }
  - { offsetInCU: 0x574EA, offset: 0x3DECAD, size: 0x8, addend: 0x0, symName: '__ZNKSt3__110__function6__funcIZN4onnx11GetOpSchemaINS2_19BitShift_Onnx_ver11EEENS2_8OpSchemaEvE3$_1NS_9allocatorIS6_EEFvRNS2_16InferenceContextEEE7__cloneEPNS0_6__baseISB_EE', symObjAddr: 0x9438, symBinAddr: 0xBC2378, symSize: 0x10 }
  - { offsetInCU: 0x57506, offset: 0x3DECC9, size: 0x8, addend: 0x0, symName: '__ZNKSt3__110__function6__funcIZN4onnx11GetOpSchemaINS2_19BitShift_Onnx_ver11EEENS2_8OpSchemaEvE3$_1NS_9allocatorIS6_EEFvRNS2_16InferenceContextEEE7__cloneEPNS0_6__baseISB_EE', symObjAddr: 0x9438, symBinAddr: 0xBC2378, symSize: 0x10 }
  - { offsetInCU: 0x57522, offset: 0x3DECE5, size: 0x8, addend: 0x0, symName: '__ZNSt3__110__function6__funcIZN4onnx11GetOpSchemaINS2_19BitShift_Onnx_ver11EEENS2_8OpSchemaEvE3$_1NS_9allocatorIS6_EEFvRNS2_16InferenceContextEEE7destroyEv', symObjAddr: 0x9448, symBinAddr: 0xBC2388, symSize: 0x4 }
  - { offsetInCU: 0x57573, offset: 0x3DED36, size: 0x8, addend: 0x0, symName: '__ZNSt3__110__function6__funcIZN4onnx11GetOpSchemaINS2_19BitShift_Onnx_ver11EEENS2_8OpSchemaEvE3$_1NS_9allocatorIS6_EEFvRNS2_16InferenceContextEEE18destroy_deallocateEv', symObjAddr: 0x944C, symBinAddr: 0xBC238C, symSize: 0x4 }
  - { offsetInCU: 0x575A8, offset: 0x3DED6B, size: 0x8, addend: 0x0, symName: '__ZNSt3__110__function6__funcIZN4onnx11GetOpSchemaINS2_19BitShift_Onnx_ver11EEENS2_8OpSchemaEvE3$_1NS_9allocatorIS6_EEFvRNS2_16InferenceContextEEE18destroy_deallocateEv', symObjAddr: 0x944C, symBinAddr: 0xBC238C, symSize: 0x4 }
  - { offsetInCU: 0x575CA, offset: 0x3DED8D, size: 0x8, addend: 0x0, symName: '__ZNSt3__110__function6__funcIZN4onnx11GetOpSchemaINS2_19BitShift_Onnx_ver11EEENS2_8OpSchemaEvE3$_1NS_9allocatorIS6_EEFvRNS2_16InferenceContextEEE18destroy_deallocateEv', symObjAddr: 0x944C, symBinAddr: 0xBC238C, symSize: 0x4 }
  - { offsetInCU: 0x575F5, offset: 0x3DEDB8, size: 0x8, addend: 0x0, symName: '__ZNSt3__110__function6__funcIZN4onnx11GetOpSchemaINS2_19BitShift_Onnx_ver11EEENS2_8OpSchemaEvE3$_1NS_9allocatorIS6_EEFvRNS2_16InferenceContextEEE18destroy_deallocateEv', symObjAddr: 0x944C, symBinAddr: 0xBC238C, symSize: 0x4 }
  - { offsetInCU: 0x5761B, offset: 0x3DEDDE, size: 0x8, addend: 0x0, symName: '__ZNSt3__110__function6__funcIZN4onnx11GetOpSchemaINS2_19BitShift_Onnx_ver11EEENS2_8OpSchemaEvE3$_1NS_9allocatorIS6_EEFvRNS2_16InferenceContextEEE18destroy_deallocateEv', symObjAddr: 0x944C, symBinAddr: 0xBC238C, symSize: 0x4 }
  - { offsetInCU: 0x576C7, offset: 0x3DEE8A, size: 0x8, addend: 0x0, symName: '__ZNSt3__110__function6__funcIZN4onnx11GetOpSchemaINS2_19BitShift_Onnx_ver11EEENS2_8OpSchemaEvE3$_1NS_9allocatorIS6_EEFvRNS2_16InferenceContextEEEclESA_', symObjAddr: 0x9450, symBinAddr: 0xBC2390, symSize: 0x32C }
  - { offsetInCU: 0x58338, offset: 0x3DFAFB, size: 0x8, addend: 0x0, symName: '__ZNKSt3__110__function6__funcIZN4onnx11GetOpSchemaINS2_19BitShift_Onnx_ver11EEENS2_8OpSchemaEvE3$_1NS_9allocatorIS6_EEFvRNS2_16InferenceContextEEE6targetERKSt9type_info', symObjAddr: 0x977C, symBinAddr: 0xBC26BC, symSize: 0x60 }
  - { offsetInCU: 0x583BD, offset: 0x3DFB80, size: 0x8, addend: 0x0, symName: '__ZNKSt3__110__function6__funcIZN4onnx11GetOpSchemaINS2_19BitShift_Onnx_ver11EEENS2_8OpSchemaEvE3$_1NS_9allocatorIS6_EEFvRNS2_16InferenceContextEEE11target_typeEv', symObjAddr: 0x97DC, symBinAddr: 0xBC271C, symSize: 0xC }
  - { offsetInCU: 0x583E2, offset: 0x3DFBA5, size: 0x8, addend: 0x0, symName: '__ZNSt3__110__function6__funcIZN4onnx25BinaryBitwiseDocGeneratorEPKcE3$_2NS_9allocatorIS5_EEFvRNS2_8OpSchemaEEED1Ev', symObjAddr: 0x97E8, symBinAddr: 0xBC2728, symSize: 0x4 }
  - { offsetInCU: 0x5840E, offset: 0x3DFBD1, size: 0x8, addend: 0x0, symName: '__ZNSt3__110__function6__funcIZN4onnx25BinaryBitwiseDocGeneratorEPKcE3$_2NS_9allocatorIS5_EEFvRNS2_8OpSchemaEEED0Ev', symObjAddr: 0x97EC, symBinAddr: 0xBC272C, symSize: 0x4 }
  - { offsetInCU: 0x584C8, offset: 0x3DFC8B, size: 0x8, addend: 0x0, symName: '__ZNKSt3__110__function6__funcIZN4onnx25BinaryBitwiseDocGeneratorEPKcE3$_2NS_9allocatorIS5_EEFvRNS2_8OpSchemaEEE7__cloneEv', symObjAddr: 0x97F0, symBinAddr: 0xBC2730, symSize: 0x34 }
  - { offsetInCU: 0x58614, offset: 0x3DFDD7, size: 0x8, addend: 0x0, symName: '__ZNKSt3__110__function6__funcIZN4onnx25BinaryBitwiseDocGeneratorEPKcE3$_2NS_9allocatorIS5_EEFvRNS2_8OpSchemaEEE7__cloneEPNS0_6__baseISA_EE', symObjAddr: 0x9824, symBinAddr: 0xBC2764, symSize: 0x14 }
  - { offsetInCU: 0x58684, offset: 0x3DFE47, size: 0x8, addend: 0x0, symName: '__ZNSt3__110__function6__funcIZN4onnx25BinaryBitwiseDocGeneratorEPKcE3$_2NS_9allocatorIS5_EEFvRNS2_8OpSchemaEEE7destroyEv', symObjAddr: 0x9838, symBinAddr: 0xBC2778, symSize: 0x4 }
  - { offsetInCU: 0x586D5, offset: 0x3DFE98, size: 0x8, addend: 0x0, symName: '__ZNSt3__110__function6__funcIZN4onnx25BinaryBitwiseDocGeneratorEPKcE3$_2NS_9allocatorIS5_EEFvRNS2_8OpSchemaEEE18destroy_deallocateEv', symObjAddr: 0x983C, symBinAddr: 0xBC277C, symSize: 0x4 }
  - { offsetInCU: 0x5870A, offset: 0x3DFECD, size: 0x8, addend: 0x0, symName: '__ZNSt3__110__function6__funcIZN4onnx25BinaryBitwiseDocGeneratorEPKcE3$_2NS_9allocatorIS5_EEFvRNS2_8OpSchemaEEE18destroy_deallocateEv', symObjAddr: 0x983C, symBinAddr: 0xBC277C, symSize: 0x4 }
  - { offsetInCU: 0x5872C, offset: 0x3DFEEF, size: 0x8, addend: 0x0, symName: '__ZNSt3__110__function6__funcIZN4onnx25BinaryBitwiseDocGeneratorEPKcE3$_2NS_9allocatorIS5_EEFvRNS2_8OpSchemaEEE18destroy_deallocateEv', symObjAddr: 0x983C, symBinAddr: 0xBC277C, symSize: 0x4 }
  - { offsetInCU: 0x58757, offset: 0x3DFF1A, size: 0x8, addend: 0x0, symName: '__ZNSt3__110__function6__funcIZN4onnx25BinaryBitwiseDocGeneratorEPKcE3$_2NS_9allocatorIS5_EEFvRNS2_8OpSchemaEEE18destroy_deallocateEv', symObjAddr: 0x983C, symBinAddr: 0xBC277C, symSize: 0x4 }
  - { offsetInCU: 0x5877D, offset: 0x3DFF40, size: 0x8, addend: 0x0, symName: '__ZNSt3__110__function6__funcIZN4onnx25BinaryBitwiseDocGeneratorEPKcE3$_2NS_9allocatorIS5_EEFvRNS2_8OpSchemaEEE18destroy_deallocateEv', symObjAddr: 0x983C, symBinAddr: 0xBC277C, symSize: 0x4 }
  - { offsetInCU: 0x589EA, offset: 0x3E01AD, size: 0x8, addend: 0x0, symName: '__ZNSt3__110__function6__funcIZN4onnx25BinaryBitwiseDocGeneratorEPKcE3$_2NS_9allocatorIS5_EEFvRNS2_8OpSchemaEEEclES9_', symObjAddr: 0x9840, symBinAddr: 0xBC2780, symSize: 0x2C8 }
  - { offsetInCU: 0x59617, offset: 0x3E0DDA, size: 0x8, addend: 0x0, symName: '__ZNKSt3__110__function6__funcIZN4onnx25BinaryBitwiseDocGeneratorEPKcE3$_2NS_9allocatorIS5_EEFvRNS2_8OpSchemaEEE6targetERKSt9type_info', symObjAddr: 0x9B08, symBinAddr: 0xBC2A48, symSize: 0x60 }
  - { offsetInCU: 0x5969C, offset: 0x3E0E5F, size: 0x8, addend: 0x0, symName: '__ZNKSt3__110__function6__funcIZN4onnx25BinaryBitwiseDocGeneratorEPKcE3$_2NS_9allocatorIS5_EEFvRNS2_8OpSchemaEEE11target_typeEv', symObjAddr: 0x9B68, symBinAddr: 0xBC2AA8, symSize: 0xC }
  - { offsetInCU: 0x596C1, offset: 0x3E0E84, size: 0x8, addend: 0x0, symName: '__ZNSt3__110__function6__funcIZZN4onnx25BinaryBitwiseDocGeneratorEPKcENK3$_2clERNS2_8OpSchemaEEUlRNS2_16InferenceContextEE_NS_9allocatorISA_EEFvS9_EED1Ev', symObjAddr: 0x9B74, symBinAddr: 0xBC2AB4, symSize: 0x4 }
  - { offsetInCU: 0x596ED, offset: 0x3E0EB0, size: 0x8, addend: 0x0, symName: '__ZNSt3__110__function6__funcIZZN4onnx25BinaryBitwiseDocGeneratorEPKcENK3$_2clERNS2_8OpSchemaEEUlRNS2_16InferenceContextEE_NS_9allocatorISA_EEFvS9_EED0Ev', symObjAddr: 0x9B78, symBinAddr: 0xBC2AB8, symSize: 0x4 }
  - { offsetInCU: 0x597A7, offset: 0x3E0F6A, size: 0x8, addend: 0x0, symName: '__ZNKSt3__110__function6__funcIZZN4onnx25BinaryBitwiseDocGeneratorEPKcENK3$_2clERNS2_8OpSchemaEEUlRNS2_16InferenceContextEE_NS_9allocatorISA_EEFvS9_EE7__cloneEv', symObjAddr: 0x9B7C, symBinAddr: 0xBC2ABC, symSize: 0x24 }
  - { offsetInCU: 0x598EF, offset: 0x3E10B2, size: 0x8, addend: 0x0, symName: '__ZNKSt3__110__function6__funcIZZN4onnx25BinaryBitwiseDocGeneratorEPKcENK3$_2clERNS2_8OpSchemaEEUlRNS2_16InferenceContextEE_NS_9allocatorISA_EEFvS9_EE7__cloneEPNS0_6__baseISD_EE', symObjAddr: 0x9BA0, symBinAddr: 0xBC2AE0, symSize: 0x10 }
  - { offsetInCU: 0x59925, offset: 0x3E10E8, size: 0x8, addend: 0x0, symName: '__ZNKSt3__110__function6__funcIZZN4onnx25BinaryBitwiseDocGeneratorEPKcENK3$_2clERNS2_8OpSchemaEEUlRNS2_16InferenceContextEE_NS_9allocatorISA_EEFvS9_EE7__cloneEPNS0_6__baseISD_EE', symObjAddr: 0x9BA0, symBinAddr: 0xBC2AE0, symSize: 0x10 }
  - { offsetInCU: 0x59941, offset: 0x3E1104, size: 0x8, addend: 0x0, symName: '__ZNKSt3__110__function6__funcIZZN4onnx25BinaryBitwiseDocGeneratorEPKcENK3$_2clERNS2_8OpSchemaEEUlRNS2_16InferenceContextEE_NS_9allocatorISA_EEFvS9_EE7__cloneEPNS0_6__baseISD_EE', symObjAddr: 0x9BA0, symBinAddr: 0xBC2AE0, symSize: 0x10 }
  - { offsetInCU: 0x5995D, offset: 0x3E1120, size: 0x8, addend: 0x0, symName: '__ZNSt3__110__function6__funcIZZN4onnx25BinaryBitwiseDocGeneratorEPKcENK3$_2clERNS2_8OpSchemaEEUlRNS2_16InferenceContextEE_NS_9allocatorISA_EEFvS9_EE7destroyEv', symObjAddr: 0x9BB0, symBinAddr: 0xBC2AF0, symSize: 0x4 }
  - { offsetInCU: 0x599AE, offset: 0x3E1171, size: 0x8, addend: 0x0, symName: '__ZNSt3__110__function6__funcIZZN4onnx25BinaryBitwiseDocGeneratorEPKcENK3$_2clERNS2_8OpSchemaEEUlRNS2_16InferenceContextEE_NS_9allocatorISA_EEFvS9_EE18destroy_deallocateEv', symObjAddr: 0x9BB4, symBinAddr: 0xBC2AF4, symSize: 0x4 }
  - { offsetInCU: 0x599E3, offset: 0x3E11A6, size: 0x8, addend: 0x0, symName: '__ZNSt3__110__function6__funcIZZN4onnx25BinaryBitwiseDocGeneratorEPKcENK3$_2clERNS2_8OpSchemaEEUlRNS2_16InferenceContextEE_NS_9allocatorISA_EEFvS9_EE18destroy_deallocateEv', symObjAddr: 0x9BB4, symBinAddr: 0xBC2AF4, symSize: 0x4 }
  - { offsetInCU: 0x59A05, offset: 0x3E11C8, size: 0x8, addend: 0x0, symName: '__ZNSt3__110__function6__funcIZZN4onnx25BinaryBitwiseDocGeneratorEPKcENK3$_2clERNS2_8OpSchemaEEUlRNS2_16InferenceContextEE_NS_9allocatorISA_EEFvS9_EE18destroy_deallocateEv', symObjAddr: 0x9BB4, symBinAddr: 0xBC2AF4, symSize: 0x4 }
  - { offsetInCU: 0x59A30, offset: 0x3E11F3, size: 0x8, addend: 0x0, symName: '__ZNSt3__110__function6__funcIZZN4onnx25BinaryBitwiseDocGeneratorEPKcENK3$_2clERNS2_8OpSchemaEEUlRNS2_16InferenceContextEE_NS_9allocatorISA_EEFvS9_EE18destroy_deallocateEv', symObjAddr: 0x9BB4, symBinAddr: 0xBC2AF4, symSize: 0x4 }
  - { offsetInCU: 0x59A56, offset: 0x3E1219, size: 0x8, addend: 0x0, symName: '__ZNSt3__110__function6__funcIZZN4onnx25BinaryBitwiseDocGeneratorEPKcENK3$_2clERNS2_8OpSchemaEEUlRNS2_16InferenceContextEE_NS_9allocatorISA_EEFvS9_EE18destroy_deallocateEv', symObjAddr: 0x9BB4, symBinAddr: 0xBC2AF4, symSize: 0x4 }
  - { offsetInCU: 0x59B04, offset: 0x3E12C7, size: 0x8, addend: 0x0, symName: '__ZNSt3__110__function6__funcIZZN4onnx25BinaryBitwiseDocGeneratorEPKcENK3$_2clERNS2_8OpSchemaEEUlRNS2_16InferenceContextEE_NS_9allocatorISA_EEFvS9_EEclES9_', symObjAddr: 0x9BB8, symBinAddr: 0xBC2AF8, symSize: 0x32C }
  - { offsetInCU: 0x5A77D, offset: 0x3E1F40, size: 0x8, addend: 0x0, symName: '__ZNKSt3__110__function6__funcIZZN4onnx25BinaryBitwiseDocGeneratorEPKcENK3$_2clERNS2_8OpSchemaEEUlRNS2_16InferenceContextEE_NS_9allocatorISA_EEFvS9_EE6targetERKSt9type_info', symObjAddr: 0x9EE4, symBinAddr: 0xBC2E24, symSize: 0x60 }
  - { offsetInCU: 0x5A802, offset: 0x3E1FC5, size: 0x8, addend: 0x0, symName: '__ZNKSt3__110__function6__funcIZZN4onnx25BinaryBitwiseDocGeneratorEPKcENK3$_2clERNS2_8OpSchemaEEUlRNS2_16InferenceContextEE_NS_9allocatorISA_EEFvS9_EE11target_typeEv', symObjAddr: 0x9F44, symBinAddr: 0xBC2E84, symSize: 0xC }
  - { offsetInCU: 0x9F61, offset: 0x3EC2CE, size: 0x8, addend: 0x0, symName: __ZN4onnx11GetOpSchemaINS_17Greater_Onnx_ver9EEENS_8OpSchemaEv, symObjAddr: 0x14, symBinAddr: 0xBC2E90, symSize: 0x374 }
  - { offsetInCU: 0xB63F, offset: 0x3ED9AC, size: 0x8, addend: 0x0, symName: __ZN4onnx11GetOpSchemaINS_14Less_Onnx_ver9EEENS_8OpSchemaEv, symObjAddr: 0x8A8, symBinAddr: 0xBC3610, symSize: 0x374 }
  - { offsetInCU: 0xCD1D, offset: 0x3EF08A, size: 0x8, addend: 0x0, symName: __ZN4onnx11GetOpSchemaINS_16Equal_Onnx_ver11EEENS_8OpSchemaEv, symObjAddr: 0xC1C, symBinAddr: 0xBC3984, symSize: 0x288 }
  - { offsetInCU: 0xD79B, offset: 0x3EFB08, size: 0x8, addend: 0x0, symName: __ZN4onnx11GetOpSchemaINS_13And_Onnx_ver1EEENS_8OpSchemaEv, symObjAddr: 0xECC, symBinAddr: 0xBC3C0C, symSize: 0x254 }
  - { offsetInCU: 0xE238, offset: 0x3F05A5, size: 0x8, addend: 0x0, symName: __ZN4onnx11GetOpSchemaINS_12Or_Onnx_ver1EEENS_8OpSchemaEv, symObjAddr: 0x1120, symBinAddr: 0xBC3E60, symSize: 0x254 }
  - { offsetInCU: 0xECD5, offset: 0x3F1042, size: 0x8, addend: 0x0, symName: __ZN4onnx11GetOpSchemaINS_13Xor_Onnx_ver1EEENS_8OpSchemaEv, symObjAddr: 0x1374, symBinAddr: 0xBC40B4, symSize: 0x254 }
  - { offsetInCU: 0xF772, offset: 0x3F1ADF, size: 0x8, addend: 0x0, symName: __ZN4onnx11GetOpSchemaINS_17Greater_Onnx_ver1EEENS_8OpSchemaEv, symObjAddr: 0x15C8, symBinAddr: 0xBC4308, symSize: 0x264 }
  - { offsetInCU: 0x10229, offset: 0x3F2596, size: 0x8, addend: 0x0, symName: __ZN4onnx11GetOpSchemaINS_14Less_Onnx_ver1EEENS_8OpSchemaEv, symObjAddr: 0x182C, symBinAddr: 0xBC456C, symSize: 0x264 }
  - { offsetInCU: 0x10CE0, offset: 0x3F304D, size: 0x8, addend: 0x0, symName: __ZN4onnx11GetOpSchemaINS_15Equal_Onnx_ver1EEENS_8OpSchemaEv, symObjAddr: 0x1A90, symBinAddr: 0xBC47D0, symSize: 0x264 }
  - { offsetInCU: 0x117B4, offset: 0x3F3B21, size: 0x8, addend: 0x0, symName: __ZN4onnx11GetOpSchemaINS_15Equal_Onnx_ver7EEENS_8OpSchemaEv, symObjAddr: 0x1CF4, symBinAddr: 0xBC4A34, symSize: 0x264 }
  - { offsetInCU: 0x1226B, offset: 0x3F45D8, size: 0x8, addend: 0x0, symName: __ZN4onnx11GetOpSchemaINS_17Greater_Onnx_ver7EEENS_8OpSchemaEv, symObjAddr: 0x1F58, symBinAddr: 0xBC4C98, symSize: 0x264 }
  - { offsetInCU: 0x12D22, offset: 0x3F508F, size: 0x8, addend: 0x0, symName: __ZN4onnx11GetOpSchemaINS_14Less_Onnx_ver7EEENS_8OpSchemaEv, symObjAddr: 0x21BC, symBinAddr: 0xBC4EFC, symSize: 0x264 }
  - { offsetInCU: 0x137D9, offset: 0x3F5B46, size: 0x8, addend: 0x0, symName: __ZN4onnx11GetOpSchemaINS_22LessOrEqual_Onnx_ver12EEENS_8OpSchemaEv, symObjAddr: 0x2420, symBinAddr: 0xBC5160, symSize: 0x3FC }
  - { offsetInCU: 0x14EF2, offset: 0x3F725F, size: 0x8, addend: 0x0, symName: __ZN4onnx11GetOpSchemaINS_25GreaterOrEqual_Onnx_ver12EEENS_8OpSchemaEv, symObjAddr: 0x281C, symBinAddr: 0xBC555C, symSize: 0x3FC }
  - { offsetInCU: 0x165F6, offset: 0x3F8963, size: 0x8, addend: 0x0, symName: __ZN4onnx11GetOpSchemaINS_16Equal_Onnx_ver13EEENS_8OpSchemaEv, symObjAddr: 0x2C18, symBinAddr: 0xBC5958, symSize: 0x28C }
  - { offsetInCU: 0x19035, offset: 0x3FB3A2, size: 0x8, addend: 0x0, symName: __ZN4onnx25logicalOpInference_opset1ERNS_16InferenceContextE, symObjAddr: 0x8C44, symBinAddr: 0xBC667C, symSize: 0x100 }
  - { offsetInCU: 0x416C0, offset: 0x423A2D, size: 0x8, addend: 0x0, symName: __ZN4onnx8OpSchema17all_numeric_typesEv, symObjAddr: 0x428, symBinAddr: 0xBC3204, symSize: 0x40C }
  - { offsetInCU: 0x416E1, offset: 0x423A4E, size: 0x8, addend: 0x0, symName: __ZZN4onnx8OpSchema17all_numeric_typesEvE17all_numeric_types, symObjAddr: 0xBA78, symBinAddr: 0x14F8E58, symSize: 0x0 }
  - { offsetInCU: 0x472A9, offset: 0x429616, size: 0x8, addend: 0x0, symName: __ZN4onnx8OpSchema17all_numeric_typesEv, symObjAddr: 0x428, symBinAddr: 0xBC3204, symSize: 0x40C }
  - { offsetInCU: 0x528E6, offset: 0x434C53, size: 0x8, addend: 0x0, symName: '__ZNSt3__110__function6__funcIZN4onnx31BinaryLogicDocGenerator_opset12EPKcE3$_0NS_9allocatorIS5_EEFvRNS2_8OpSchemaEEED1Ev', symObjAddr: 0x6D80, symBinAddr: 0xBC5BE4, symSize: 0x4 }
  - { offsetInCU: 0x52912, offset: 0x434C7F, size: 0x8, addend: 0x0, symName: '__ZNSt3__110__function6__funcIZN4onnx31BinaryLogicDocGenerator_opset12EPKcE3$_0NS_9allocatorIS5_EEFvRNS2_8OpSchemaEEED0Ev', symObjAddr: 0x6D84, symBinAddr: 0xBC5BE8, symSize: 0x4 }
  - { offsetInCU: 0x529CC, offset: 0x434D39, size: 0x8, addend: 0x0, symName: '__ZNKSt3__110__function6__funcIZN4onnx31BinaryLogicDocGenerator_opset12EPKcE3$_0NS_9allocatorIS5_EEFvRNS2_8OpSchemaEEE7__cloneEv', symObjAddr: 0x6D88, symBinAddr: 0xBC5BEC, symSize: 0x34 }
  - { offsetInCU: 0x52B18, offset: 0x434E85, size: 0x8, addend: 0x0, symName: '__ZNKSt3__110__function6__funcIZN4onnx31BinaryLogicDocGenerator_opset12EPKcE3$_0NS_9allocatorIS5_EEFvRNS2_8OpSchemaEEE7__cloneEPNS0_6__baseISA_EE', symObjAddr: 0x6DBC, symBinAddr: 0xBC5C20, symSize: 0x14 }
  - { offsetInCU: 0x52B88, offset: 0x434EF5, size: 0x8, addend: 0x0, symName: '__ZNSt3__110__function6__funcIZN4onnx31BinaryLogicDocGenerator_opset12EPKcE3$_0NS_9allocatorIS5_EEFvRNS2_8OpSchemaEEE7destroyEv', symObjAddr: 0x6DD0, symBinAddr: 0xBC5C34, symSize: 0x4 }
  - { offsetInCU: 0x52BD9, offset: 0x434F46, size: 0x8, addend: 0x0, symName: '__ZNSt3__110__function6__funcIZN4onnx31BinaryLogicDocGenerator_opset12EPKcE3$_0NS_9allocatorIS5_EEFvRNS2_8OpSchemaEEE18destroy_deallocateEv', symObjAddr: 0x6DD4, symBinAddr: 0xBC5C38, symSize: 0x4 }
  - { offsetInCU: 0x52C0E, offset: 0x434F7B, size: 0x8, addend: 0x0, symName: '__ZNSt3__110__function6__funcIZN4onnx31BinaryLogicDocGenerator_opset12EPKcE3$_0NS_9allocatorIS5_EEFvRNS2_8OpSchemaEEE18destroy_deallocateEv', symObjAddr: 0x6DD4, symBinAddr: 0xBC5C38, symSize: 0x4 }
  - { offsetInCU: 0x52C30, offset: 0x434F9D, size: 0x8, addend: 0x0, symName: '__ZNSt3__110__function6__funcIZN4onnx31BinaryLogicDocGenerator_opset12EPKcE3$_0NS_9allocatorIS5_EEFvRNS2_8OpSchemaEEE18destroy_deallocateEv', symObjAddr: 0x6DD4, symBinAddr: 0xBC5C38, symSize: 0x4 }
  - { offsetInCU: 0x52C5B, offset: 0x434FC8, size: 0x8, addend: 0x0, symName: '__ZNSt3__110__function6__funcIZN4onnx31BinaryLogicDocGenerator_opset12EPKcE3$_0NS_9allocatorIS5_EEFvRNS2_8OpSchemaEEE18destroy_deallocateEv', symObjAddr: 0x6DD4, symBinAddr: 0xBC5C38, symSize: 0x4 }
  - { offsetInCU: 0x52C81, offset: 0x434FEE, size: 0x8, addend: 0x0, symName: '__ZNSt3__110__function6__funcIZN4onnx31BinaryLogicDocGenerator_opset12EPKcE3$_0NS_9allocatorIS5_EEFvRNS2_8OpSchemaEEE18destroy_deallocateEv', symObjAddr: 0x6DD4, symBinAddr: 0xBC5C38, symSize: 0x4 }
  - { offsetInCU: 0x530B8, offset: 0x435425, size: 0x8, addend: 0x0, symName: '__ZNSt3__110__function6__funcIZN4onnx31BinaryLogicDocGenerator_opset12EPKcE3$_0NS_9allocatorIS5_EEFvRNS2_8OpSchemaEEEclES9_', symObjAddr: 0x6DD8, symBinAddr: 0xBC5C3C, symSize: 0x2C0 }
  - { offsetInCU: 0x53CE5, offset: 0x436052, size: 0x8, addend: 0x0, symName: '__ZNKSt3__110__function6__funcIZN4onnx31BinaryLogicDocGenerator_opset12EPKcE3$_0NS_9allocatorIS5_EEFvRNS2_8OpSchemaEEE6targetERKSt9type_info', symObjAddr: 0x7098, symBinAddr: 0xBC5EFC, symSize: 0x60 }
  - { offsetInCU: 0x53D6A, offset: 0x4360D7, size: 0x8, addend: 0x0, symName: '__ZNKSt3__110__function6__funcIZN4onnx31BinaryLogicDocGenerator_opset12EPKcE3$_0NS_9allocatorIS5_EEFvRNS2_8OpSchemaEEE11target_typeEv', symObjAddr: 0x70F8, symBinAddr: 0xBC5F5C, symSize: 0xC }
  - { offsetInCU: 0x53D8F, offset: 0x4360FC, size: 0x8, addend: 0x0, symName: '__ZNSt3__110__function6__funcIZZN4onnx31BinaryLogicDocGenerator_opset12EPKcENK3$_0clERNS2_8OpSchemaEEUlRNS2_16InferenceContextEE_NS_9allocatorISA_EEFvS9_EED1Ev', symObjAddr: 0x7104, symBinAddr: 0xBC5F68, symSize: 0x4 }
  - { offsetInCU: 0x53DBB, offset: 0x436128, size: 0x8, addend: 0x0, symName: '__ZNSt3__110__function6__funcIZZN4onnx31BinaryLogicDocGenerator_opset12EPKcENK3$_0clERNS2_8OpSchemaEEUlRNS2_16InferenceContextEE_NS_9allocatorISA_EEFvS9_EED0Ev', symObjAddr: 0x7108, symBinAddr: 0xBC5F6C, symSize: 0x4 }
  - { offsetInCU: 0x53E75, offset: 0x4361E2, size: 0x8, addend: 0x0, symName: '__ZNKSt3__110__function6__funcIZZN4onnx31BinaryLogicDocGenerator_opset12EPKcENK3$_0clERNS2_8OpSchemaEEUlRNS2_16InferenceContextEE_NS_9allocatorISA_EEFvS9_EE7__cloneEv', symObjAddr: 0x710C, symBinAddr: 0xBC5F70, symSize: 0x24 }
  - { offsetInCU: 0x53FBD, offset: 0x43632A, size: 0x8, addend: 0x0, symName: '__ZNKSt3__110__function6__funcIZZN4onnx31BinaryLogicDocGenerator_opset12EPKcENK3$_0clERNS2_8OpSchemaEEUlRNS2_16InferenceContextEE_NS_9allocatorISA_EEFvS9_EE7__cloneEPNS0_6__baseISD_EE', symObjAddr: 0x7130, symBinAddr: 0xBC5F94, symSize: 0x10 }
  - { offsetInCU: 0x53FF3, offset: 0x436360, size: 0x8, addend: 0x0, symName: '__ZNKSt3__110__function6__funcIZZN4onnx31BinaryLogicDocGenerator_opset12EPKcENK3$_0clERNS2_8OpSchemaEEUlRNS2_16InferenceContextEE_NS_9allocatorISA_EEFvS9_EE7__cloneEPNS0_6__baseISD_EE', symObjAddr: 0x7130, symBinAddr: 0xBC5F94, symSize: 0x10 }
  - { offsetInCU: 0x5400F, offset: 0x43637C, size: 0x8, addend: 0x0, symName: '__ZNKSt3__110__function6__funcIZZN4onnx31BinaryLogicDocGenerator_opset12EPKcENK3$_0clERNS2_8OpSchemaEEUlRNS2_16InferenceContextEE_NS_9allocatorISA_EEFvS9_EE7__cloneEPNS0_6__baseISD_EE', symObjAddr: 0x7130, symBinAddr: 0xBC5F94, symSize: 0x10 }
  - { offsetInCU: 0x5402B, offset: 0x436398, size: 0x8, addend: 0x0, symName: '__ZNSt3__110__function6__funcIZZN4onnx31BinaryLogicDocGenerator_opset12EPKcENK3$_0clERNS2_8OpSchemaEEUlRNS2_16InferenceContextEE_NS_9allocatorISA_EEFvS9_EE7destroyEv', symObjAddr: 0x7140, symBinAddr: 0xBC5FA4, symSize: 0x4 }
  - { offsetInCU: 0x5407C, offset: 0x4363E9, size: 0x8, addend: 0x0, symName: '__ZNSt3__110__function6__funcIZZN4onnx31BinaryLogicDocGenerator_opset12EPKcENK3$_0clERNS2_8OpSchemaEEUlRNS2_16InferenceContextEE_NS_9allocatorISA_EEFvS9_EE18destroy_deallocateEv', symObjAddr: 0x7144, symBinAddr: 0xBC5FA8, symSize: 0x4 }
  - { offsetInCU: 0x540B1, offset: 0x43641E, size: 0x8, addend: 0x0, symName: '__ZNSt3__110__function6__funcIZZN4onnx31BinaryLogicDocGenerator_opset12EPKcENK3$_0clERNS2_8OpSchemaEEUlRNS2_16InferenceContextEE_NS_9allocatorISA_EEFvS9_EE18destroy_deallocateEv', symObjAddr: 0x7144, symBinAddr: 0xBC5FA8, symSize: 0x4 }
  - { offsetInCU: 0x540D3, offset: 0x436440, size: 0x8, addend: 0x0, symName: '__ZNSt3__110__function6__funcIZZN4onnx31BinaryLogicDocGenerator_opset12EPKcENK3$_0clERNS2_8OpSchemaEEUlRNS2_16InferenceContextEE_NS_9allocatorISA_EEFvS9_EE18destroy_deallocateEv', symObjAddr: 0x7144, symBinAddr: 0xBC5FA8, symSize: 0x4 }
  - { offsetInCU: 0x540FE, offset: 0x43646B, size: 0x8, addend: 0x0, symName: '__ZNSt3__110__function6__funcIZZN4onnx31BinaryLogicDocGenerator_opset12EPKcENK3$_0clERNS2_8OpSchemaEEUlRNS2_16InferenceContextEE_NS_9allocatorISA_EEFvS9_EE18destroy_deallocateEv', symObjAddr: 0x7144, symBinAddr: 0xBC5FA8, symSize: 0x4 }
  - { offsetInCU: 0x54124, offset: 0x436491, size: 0x8, addend: 0x0, symName: '__ZNSt3__110__function6__funcIZZN4onnx31BinaryLogicDocGenerator_opset12EPKcENK3$_0clERNS2_8OpSchemaEEUlRNS2_16InferenceContextEE_NS_9allocatorISA_EEFvS9_EE18destroy_deallocateEv', symObjAddr: 0x7144, symBinAddr: 0xBC5FA8, symSize: 0x4 }
  - { offsetInCU: 0x54679, offset: 0x4369E6, size: 0x8, addend: 0x0, symName: '__ZNSt3__110__function6__funcIZZN4onnx31BinaryLogicDocGenerator_opset12EPKcENK3$_0clERNS2_8OpSchemaEEUlRNS2_16InferenceContextEE_NS_9allocatorISA_EEFvS9_EEclES9_', symObjAddr: 0x7148, symBinAddr: 0xBC5FAC, symSize: 0x330 }
  - { offsetInCU: 0x55317, offset: 0x437684, size: 0x8, addend: 0x0, symName: '__ZNKSt3__110__function6__funcIZZN4onnx31BinaryLogicDocGenerator_opset12EPKcENK3$_0clERNS2_8OpSchemaEEUlRNS2_16InferenceContextEE_NS_9allocatorISA_EEFvS9_EE6targetERKSt9type_info', symObjAddr: 0x7478, symBinAddr: 0xBC62DC, symSize: 0x60 }
  - { offsetInCU: 0x5539C, offset: 0x437709, size: 0x8, addend: 0x0, symName: '__ZNKSt3__110__function6__funcIZZN4onnx31BinaryLogicDocGenerator_opset12EPKcENK3$_0clERNS2_8OpSchemaEEUlRNS2_16InferenceContextEE_NS_9allocatorISA_EEFvS9_EE11target_typeEv', symObjAddr: 0x74D8, symBinAddr: 0xBC633C, symSize: 0xC }
  - { offsetInCU: 0x5606C, offset: 0x4383D9, size: 0x8, addend: 0x0, symName: '__ZNSt3__110__function6__funcIZN4onnx30BinaryLogicDocGenerator_opset1EPKcE3$_1NS_9allocatorIS5_EEFvRNS2_8OpSchemaEEED1Ev', symObjAddr: 0x8910, symBinAddr: 0xBC6348, symSize: 0x4 }
  - { offsetInCU: 0x56098, offset: 0x438405, size: 0x8, addend: 0x0, symName: '__ZNSt3__110__function6__funcIZN4onnx30BinaryLogicDocGenerator_opset1EPKcE3$_1NS_9allocatorIS5_EEFvRNS2_8OpSchemaEEED0Ev', symObjAddr: 0x8914, symBinAddr: 0xBC634C, symSize: 0x4 }
  - { offsetInCU: 0x56152, offset: 0x4384BF, size: 0x8, addend: 0x0, symName: '__ZNKSt3__110__function6__funcIZN4onnx30BinaryLogicDocGenerator_opset1EPKcE3$_1NS_9allocatorIS5_EEFvRNS2_8OpSchemaEEE7__cloneEv', symObjAddr: 0x8918, symBinAddr: 0xBC6350, symSize: 0x34 }
  - { offsetInCU: 0x5629E, offset: 0x43860B, size: 0x8, addend: 0x0, symName: '__ZNKSt3__110__function6__funcIZN4onnx30BinaryLogicDocGenerator_opset1EPKcE3$_1NS_9allocatorIS5_EEFvRNS2_8OpSchemaEEE7__cloneEPNS0_6__baseISA_EE', symObjAddr: 0x894C, symBinAddr: 0xBC6384, symSize: 0x14 }
  - { offsetInCU: 0x5630E, offset: 0x43867B, size: 0x8, addend: 0x0, symName: '__ZNSt3__110__function6__funcIZN4onnx30BinaryLogicDocGenerator_opset1EPKcE3$_1NS_9allocatorIS5_EEFvRNS2_8OpSchemaEEE7destroyEv', symObjAddr: 0x8960, symBinAddr: 0xBC6398, symSize: 0x4 }
  - { offsetInCU: 0x5635F, offset: 0x4386CC, size: 0x8, addend: 0x0, symName: '__ZNSt3__110__function6__funcIZN4onnx30BinaryLogicDocGenerator_opset1EPKcE3$_1NS_9allocatorIS5_EEFvRNS2_8OpSchemaEEE18destroy_deallocateEv', symObjAddr: 0x8964, symBinAddr: 0xBC639C, symSize: 0x4 }
  - { offsetInCU: 0x56394, offset: 0x438701, size: 0x8, addend: 0x0, symName: '__ZNSt3__110__function6__funcIZN4onnx30BinaryLogicDocGenerator_opset1EPKcE3$_1NS_9allocatorIS5_EEFvRNS2_8OpSchemaEEE18destroy_deallocateEv', symObjAddr: 0x8964, symBinAddr: 0xBC639C, symSize: 0x4 }
  - { offsetInCU: 0x563B6, offset: 0x438723, size: 0x8, addend: 0x0, symName: '__ZNSt3__110__function6__funcIZN4onnx30BinaryLogicDocGenerator_opset1EPKcE3$_1NS_9allocatorIS5_EEFvRNS2_8OpSchemaEEE18destroy_deallocateEv', symObjAddr: 0x8964, symBinAddr: 0xBC639C, symSize: 0x4 }
  - { offsetInCU: 0x563E1, offset: 0x43874E, size: 0x8, addend: 0x0, symName: '__ZNSt3__110__function6__funcIZN4onnx30BinaryLogicDocGenerator_opset1EPKcE3$_1NS_9allocatorIS5_EEFvRNS2_8OpSchemaEEE18destroy_deallocateEv', symObjAddr: 0x8964, symBinAddr: 0xBC639C, symSize: 0x4 }
  - { offsetInCU: 0x56407, offset: 0x438774, size: 0x8, addend: 0x0, symName: '__ZNSt3__110__function6__funcIZN4onnx30BinaryLogicDocGenerator_opset1EPKcE3$_1NS_9allocatorIS5_EEFvRNS2_8OpSchemaEEE18destroy_deallocateEv', symObjAddr: 0x8964, symBinAddr: 0xBC639C, symSize: 0x4 }
  - { offsetInCU: 0x567B8, offset: 0x438B25, size: 0x8, addend: 0x0, symName: '__ZNSt3__110__function6__funcIZN4onnx30BinaryLogicDocGenerator_opset1EPKcE3$_1NS_9allocatorIS5_EEFvRNS2_8OpSchemaEEEclES9_', symObjAddr: 0x8968, symBinAddr: 0xBC63A0, symSize: 0x270 }
  - { offsetInCU: 0x5705F, offset: 0x4393CC, size: 0x8, addend: 0x0, symName: '__ZNKSt3__110__function6__funcIZN4onnx30BinaryLogicDocGenerator_opset1EPKcE3$_1NS_9allocatorIS5_EEFvRNS2_8OpSchemaEEE6targetERKSt9type_info', symObjAddr: 0x8BD8, symBinAddr: 0xBC6610, symSize: 0x60 }
  - { offsetInCU: 0x570E4, offset: 0x439451, size: 0x8, addend: 0x0, symName: '__ZNKSt3__110__function6__funcIZN4onnx30BinaryLogicDocGenerator_opset1EPKcE3$_1NS_9allocatorIS5_EEFvRNS2_8OpSchemaEEE11target_typeEv', symObjAddr: 0x8C38, symBinAddr: 0xBC6670, symSize: 0xC }
  - { offsetInCU: 0x571FC, offset: 0x439569, size: 0x8, addend: 0x0, symName: '__ZNSt3__110__function6__funcIZN4onnx30BinaryLogicDocGenerator_opset7EPKcE3$_2NS_9allocatorIS5_EEFvRNS2_8OpSchemaEEED1Ev', symObjAddr: 0x95DC, symBinAddr: 0xBC677C, symSize: 0x4 }
  - { offsetInCU: 0x57228, offset: 0x439595, size: 0x8, addend: 0x0, symName: '__ZNSt3__110__function6__funcIZN4onnx30BinaryLogicDocGenerator_opset7EPKcE3$_2NS_9allocatorIS5_EEFvRNS2_8OpSchemaEEED0Ev', symObjAddr: 0x95E0, symBinAddr: 0xBC6780, symSize: 0x4 }
  - { offsetInCU: 0x572E2, offset: 0x43964F, size: 0x8, addend: 0x0, symName: '__ZNKSt3__110__function6__funcIZN4onnx30BinaryLogicDocGenerator_opset7EPKcE3$_2NS_9allocatorIS5_EEFvRNS2_8OpSchemaEEE7__cloneEv', symObjAddr: 0x95E4, symBinAddr: 0xBC6784, symSize: 0x34 }
  - { offsetInCU: 0x5742E, offset: 0x43979B, size: 0x8, addend: 0x0, symName: '__ZNKSt3__110__function6__funcIZN4onnx30BinaryLogicDocGenerator_opset7EPKcE3$_2NS_9allocatorIS5_EEFvRNS2_8OpSchemaEEE7__cloneEPNS0_6__baseISA_EE', symObjAddr: 0x9618, symBinAddr: 0xBC67B8, symSize: 0x14 }
  - { offsetInCU: 0x5749E, offset: 0x43980B, size: 0x8, addend: 0x0, symName: '__ZNSt3__110__function6__funcIZN4onnx30BinaryLogicDocGenerator_opset7EPKcE3$_2NS_9allocatorIS5_EEFvRNS2_8OpSchemaEEE7destroyEv', symObjAddr: 0x962C, symBinAddr: 0xBC67CC, symSize: 0x4 }
  - { offsetInCU: 0x574EF, offset: 0x43985C, size: 0x8, addend: 0x0, symName: '__ZNSt3__110__function6__funcIZN4onnx30BinaryLogicDocGenerator_opset7EPKcE3$_2NS_9allocatorIS5_EEFvRNS2_8OpSchemaEEE18destroy_deallocateEv', symObjAddr: 0x9630, symBinAddr: 0xBC67D0, symSize: 0x4 }
  - { offsetInCU: 0x57524, offset: 0x439891, size: 0x8, addend: 0x0, symName: '__ZNSt3__110__function6__funcIZN4onnx30BinaryLogicDocGenerator_opset7EPKcE3$_2NS_9allocatorIS5_EEFvRNS2_8OpSchemaEEE18destroy_deallocateEv', symObjAddr: 0x9630, symBinAddr: 0xBC67D0, symSize: 0x4 }
  - { offsetInCU: 0x57546, offset: 0x4398B3, size: 0x8, addend: 0x0, symName: '__ZNSt3__110__function6__funcIZN4onnx30BinaryLogicDocGenerator_opset7EPKcE3$_2NS_9allocatorIS5_EEFvRNS2_8OpSchemaEEE18destroy_deallocateEv', symObjAddr: 0x9630, symBinAddr: 0xBC67D0, symSize: 0x4 }
  - { offsetInCU: 0x57571, offset: 0x4398DE, size: 0x8, addend: 0x0, symName: '__ZNSt3__110__function6__funcIZN4onnx30BinaryLogicDocGenerator_opset7EPKcE3$_2NS_9allocatorIS5_EEFvRNS2_8OpSchemaEEE18destroy_deallocateEv', symObjAddr: 0x9630, symBinAddr: 0xBC67D0, symSize: 0x4 }
  - { offsetInCU: 0x57597, offset: 0x439904, size: 0x8, addend: 0x0, symName: '__ZNSt3__110__function6__funcIZN4onnx30BinaryLogicDocGenerator_opset7EPKcE3$_2NS_9allocatorIS5_EEFvRNS2_8OpSchemaEEE18destroy_deallocateEv', symObjAddr: 0x9630, symBinAddr: 0xBC67D0, symSize: 0x4 }
  - { offsetInCU: 0x57804, offset: 0x439B71, size: 0x8, addend: 0x0, symName: '__ZNSt3__110__function6__funcIZN4onnx30BinaryLogicDocGenerator_opset7EPKcE3$_2NS_9allocatorIS5_EEFvRNS2_8OpSchemaEEEclES9_', symObjAddr: 0x9634, symBinAddr: 0xBC67D4, symSize: 0x2C0 }
  - { offsetInCU: 0x5842B, offset: 0x43A798, size: 0x8, addend: 0x0, symName: '__ZNKSt3__110__function6__funcIZN4onnx30BinaryLogicDocGenerator_opset7EPKcE3$_2NS_9allocatorIS5_EEFvRNS2_8OpSchemaEEE6targetERKSt9type_info', symObjAddr: 0x98F4, symBinAddr: 0xBC6A94, symSize: 0x60 }
  - { offsetInCU: 0x584B0, offset: 0x43A81D, size: 0x8, addend: 0x0, symName: '__ZNKSt3__110__function6__funcIZN4onnx30BinaryLogicDocGenerator_opset7EPKcE3$_2NS_9allocatorIS5_EEFvRNS2_8OpSchemaEEE11target_typeEv', symObjAddr: 0x9954, symBinAddr: 0xBC6AF4, symSize: 0xC }
  - { offsetInCU: 0x584D5, offset: 0x43A842, size: 0x8, addend: 0x0, symName: '__ZNSt3__110__function6__funcIZZN4onnx30BinaryLogicDocGenerator_opset7EPKcENK3$_2clERNS2_8OpSchemaEEUlRNS2_16InferenceContextEE_NS_9allocatorISA_EEFvS9_EED1Ev', symObjAddr: 0x9960, symBinAddr: 0xBC6B00, symSize: 0x4 }
  - { offsetInCU: 0x58501, offset: 0x43A86E, size: 0x8, addend: 0x0, symName: '__ZNSt3__110__function6__funcIZZN4onnx30BinaryLogicDocGenerator_opset7EPKcENK3$_2clERNS2_8OpSchemaEEUlRNS2_16InferenceContextEE_NS_9allocatorISA_EEFvS9_EED0Ev', symObjAddr: 0x9964, symBinAddr: 0xBC6B04, symSize: 0x4 }
  - { offsetInCU: 0x585BB, offset: 0x43A928, size: 0x8, addend: 0x0, symName: '__ZNKSt3__110__function6__funcIZZN4onnx30BinaryLogicDocGenerator_opset7EPKcENK3$_2clERNS2_8OpSchemaEEUlRNS2_16InferenceContextEE_NS_9allocatorISA_EEFvS9_EE7__cloneEv', symObjAddr: 0x9968, symBinAddr: 0xBC6B08, symSize: 0x24 }
  - { offsetInCU: 0x58703, offset: 0x43AA70, size: 0x8, addend: 0x0, symName: '__ZNKSt3__110__function6__funcIZZN4onnx30BinaryLogicDocGenerator_opset7EPKcENK3$_2clERNS2_8OpSchemaEEUlRNS2_16InferenceContextEE_NS_9allocatorISA_EEFvS9_EE7__cloneEPNS0_6__baseISD_EE', symObjAddr: 0x998C, symBinAddr: 0xBC6B2C, symSize: 0x10 }
  - { offsetInCU: 0x58739, offset: 0x43AAA6, size: 0x8, addend: 0x0, symName: '__ZNKSt3__110__function6__funcIZZN4onnx30BinaryLogicDocGenerator_opset7EPKcENK3$_2clERNS2_8OpSchemaEEUlRNS2_16InferenceContextEE_NS_9allocatorISA_EEFvS9_EE7__cloneEPNS0_6__baseISD_EE', symObjAddr: 0x998C, symBinAddr: 0xBC6B2C, symSize: 0x10 }
  - { offsetInCU: 0x58755, offset: 0x43AAC2, size: 0x8, addend: 0x0, symName: '__ZNKSt3__110__function6__funcIZZN4onnx30BinaryLogicDocGenerator_opset7EPKcENK3$_2clERNS2_8OpSchemaEEUlRNS2_16InferenceContextEE_NS_9allocatorISA_EEFvS9_EE7__cloneEPNS0_6__baseISD_EE', symObjAddr: 0x998C, symBinAddr: 0xBC6B2C, symSize: 0x10 }
  - { offsetInCU: 0x58771, offset: 0x43AADE, size: 0x8, addend: 0x0, symName: '__ZNSt3__110__function6__funcIZZN4onnx30BinaryLogicDocGenerator_opset7EPKcENK3$_2clERNS2_8OpSchemaEEUlRNS2_16InferenceContextEE_NS_9allocatorISA_EEFvS9_EE7destroyEv', symObjAddr: 0x999C, symBinAddr: 0xBC6B3C, symSize: 0x4 }
  - { offsetInCU: 0x587C2, offset: 0x43AB2F, size: 0x8, addend: 0x0, symName: '__ZNSt3__110__function6__funcIZZN4onnx30BinaryLogicDocGenerator_opset7EPKcENK3$_2clERNS2_8OpSchemaEEUlRNS2_16InferenceContextEE_NS_9allocatorISA_EEFvS9_EE18destroy_deallocateEv', symObjAddr: 0x99A0, symBinAddr: 0xBC6B40, symSize: 0x4 }
  - { offsetInCU: 0x587F7, offset: 0x43AB64, size: 0x8, addend: 0x0, symName: '__ZNSt3__110__function6__funcIZZN4onnx30BinaryLogicDocGenerator_opset7EPKcENK3$_2clERNS2_8OpSchemaEEUlRNS2_16InferenceContextEE_NS_9allocatorISA_EEFvS9_EE18destroy_deallocateEv', symObjAddr: 0x99A0, symBinAddr: 0xBC6B40, symSize: 0x4 }
  - { offsetInCU: 0x58819, offset: 0x43AB86, size: 0x8, addend: 0x0, symName: '__ZNSt3__110__function6__funcIZZN4onnx30BinaryLogicDocGenerator_opset7EPKcENK3$_2clERNS2_8OpSchemaEEUlRNS2_16InferenceContextEE_NS_9allocatorISA_EEFvS9_EE18destroy_deallocateEv', symObjAddr: 0x99A0, symBinAddr: 0xBC6B40, symSize: 0x4 }
  - { offsetInCU: 0x58844, offset: 0x43ABB1, size: 0x8, addend: 0x0, symName: '__ZNSt3__110__function6__funcIZZN4onnx30BinaryLogicDocGenerator_opset7EPKcENK3$_2clERNS2_8OpSchemaEEUlRNS2_16InferenceContextEE_NS_9allocatorISA_EEFvS9_EE18destroy_deallocateEv', symObjAddr: 0x99A0, symBinAddr: 0xBC6B40, symSize: 0x4 }
  - { offsetInCU: 0x5886A, offset: 0x43ABD7, size: 0x8, addend: 0x0, symName: '__ZNSt3__110__function6__funcIZZN4onnx30BinaryLogicDocGenerator_opset7EPKcENK3$_2clERNS2_8OpSchemaEEUlRNS2_16InferenceContextEE_NS_9allocatorISA_EEFvS9_EE18destroy_deallocateEv', symObjAddr: 0x99A0, symBinAddr: 0xBC6B40, symSize: 0x4 }
  - { offsetInCU: 0x58916, offset: 0x43AC83, size: 0x8, addend: 0x0, symName: '__ZNSt3__110__function6__funcIZZN4onnx30BinaryLogicDocGenerator_opset7EPKcENK3$_2clERNS2_8OpSchemaEEUlRNS2_16InferenceContextEE_NS_9allocatorISA_EEFvS9_EEclES9_', symObjAddr: 0x99A4, symBinAddr: 0xBC6B44, symSize: 0x330 }
  - { offsetInCU: 0x595B4, offset: 0x43B921, size: 0x8, addend: 0x0, symName: '__ZNKSt3__110__function6__funcIZZN4onnx30BinaryLogicDocGenerator_opset7EPKcENK3$_2clERNS2_8OpSchemaEEUlRNS2_16InferenceContextEE_NS_9allocatorISA_EEFvS9_EE6targetERKSt9type_info', symObjAddr: 0x9CD4, symBinAddr: 0xBC6E74, symSize: 0x60 }
  - { offsetInCU: 0x59639, offset: 0x43B9A6, size: 0x8, addend: 0x0, symName: '__ZNKSt3__110__function6__funcIZZN4onnx30BinaryLogicDocGenerator_opset7EPKcENK3$_2clERNS2_8OpSchemaEEUlRNS2_16InferenceContextEE_NS_9allocatorISA_EEFvS9_EE11target_typeEv', symObjAddr: 0x9D34, symBinAddr: 0xBC6ED4, symSize: 0xC }
  - { offsetInCU: 0x58, offset: 0x43BDA6, size: 0x8, addend: 0x0, symName: __ZN4onnxL19gelu_default_approxE, symObjAddr: 0x4EF2D8, symBinAddr: 0x14FE1B8, symSize: 0x0 }
  - { offsetInCU: 0x73, offset: 0x43BDC1, size: 0x8, addend: 0x0, symName: __ZN4onnx17reduction_doc_sceE, symObjAddr: 0x385C0, symBinAddr: 0x14F8E80, symSize: 0x0 }
  - { offsetInCU: 0x9CF8, offset: 0x445A46, size: 0x8, addend: 0x0, symName: __ZN4onnxL18celu_default_alphaE, symObjAddr: 0x385B8, symBinAddr: 0x14F8E78, symSize: 0x0 }
  - { offsetInCU: 0xA2E0, offset: 0x44602E, size: 0x8, addend: 0x0, symName: __ZN4onnx11GetOpSchemaINS_14Add_Onnx_ver14EEENS_8OpSchemaEv, symObjAddr: 0x14, symBinAddr: 0xBC6EE0, symSize: 0x288 }
  - { offsetInCU: 0xAF98, offset: 0x446CE6, size: 0x8, addend: 0x0, symName: __ZN4onnx11GetOpSchemaINS_14Sub_Onnx_ver14EEENS_8OpSchemaEv, symObjAddr: 0x29C, symBinAddr: 0xBC7168, symSize: 0x288 }
  - { offsetInCU: 0xBC50, offset: 0x44799E, size: 0x8, addend: 0x0, symName: __ZN4onnx11GetOpSchemaINS_14Mod_Onnx_ver13EEENS_8OpSchemaEv, symObjAddr: 0x524, symBinAddr: 0xBC73F0, symSize: 0x410 }
  - { offsetInCU: 0xD2EE, offset: 0x44903C, size: 0x8, addend: 0x0, symName: __ZN4onnx11GetOpSchemaINS_14Mul_Onnx_ver14EEENS_8OpSchemaEv, symObjAddr: 0xFA4, symBinAddr: 0xBC7800, symSize: 0x288 }
  - { offsetInCU: 0xDFA6, offset: 0x449CF4, size: 0x8, addend: 0x0, symName: __ZN4onnx11GetOpSchemaINS_14Pow_Onnx_ver15EEENS_8OpSchemaEv, symObjAddr: 0x5968, symBinAddr: 0xBCB8E4, symSize: 0x498 }
  - { offsetInCU: 0xF780, offset: 0x44B4CE, size: 0x8, addend: 0x0, symName: __ZN4onnx11GetOpSchemaINS_18Softmax_Onnx_ver13EEENS_8OpSchemaEv, symObjAddr: 0x813C, symBinAddr: 0xBCE054, symSize: 0x344 }
  - { offsetInCU: 0x10659, offset: 0x44C3A7, size: 0x8, addend: 0x0, symName: __ZN4onnx11GetOpSchemaINS_21LogSoftmax_Onnx_ver13EEENS_8OpSchemaEv, symObjAddr: 0x8480, symBinAddr: 0xBCE398, symSize: 0x344 }
  - { offsetInCU: 0x11532, offset: 0x44D280, size: 0x8, addend: 0x0, symName: __ZN4onnx11GetOpSchemaINS_15Gemm_Onnx_ver13EEENS_8OpSchemaEv, symObjAddr: 0x912C, symBinAddr: 0xBCF044, symSize: 0x63C }
  - { offsetInCU: 0x133B7, offset: 0x44F105, size: 0x8, addend: 0x0, symName: __ZN4onnx11GetOpSchemaINS_17MatMul_Onnx_ver13EEENS_8OpSchemaEv, symObjAddr: 0x9768, symBinAddr: 0xBCF680, symSize: 0x2DC }
  - { offsetInCU: 0x13DCA, offset: 0x44FB18, size: 0x8, addend: 0x0, symName: __ZN4onnx11GetOpSchemaINS_15TopK_Onnx_ver11EEENS_8OpSchemaEv, symObjAddr: 0x9A44, symBinAddr: 0xBCF95C, symSize: 0x4B4 }
  - { offsetInCU: 0x154CC, offset: 0x45121A, size: 0x8, addend: 0x0, symName: __ZN4onnx11GetOpSchemaINS_17Expand_Onnx_ver13EEENS_8OpSchemaEv, symObjAddr: 0xB87C, symBinAddr: 0xBD1388, symSize: 0x3BC }
  - { offsetInCU: 0x16BC8, offset: 0x452916, size: 0x8, addend: 0x0, symName: __ZN4onnx11GetOpSchemaINS_24MatMulInteger_Onnx_ver10EEENS_8OpSchemaEv, symObjAddr: 0xDF60, symBinAddr: 0xBD3504, symSize: 0x380 }
  - { offsetInCU: 0x1763B, offset: 0x453389, size: 0x8, addend: 0x0, symName: __ZN4onnx11GetOpSchemaINS_14Det_Onnx_ver22EEENS_8OpSchemaEv, symObjAddr: 0xEE04, symBinAddr: 0xBD43A8, symSize: 0x38C }
  - { offsetInCU: 0x18D37, offset: 0x454A85, size: 0x8, addend: 0x0, symName: __ZN4onnx11GetOpSchemaINS_36NegativeLogLikelihoodLoss_Onnx_ver22EEENS_8OpSchemaEv, symObjAddr: 0xFF28, symBinAddr: 0xBD54CC, symSize: 0x594 }
  - { offsetInCU: 0x1AA8A, offset: 0x4567D8, size: 0x8, addend: 0x0, symName: __ZN4onnx11GetOpSchemaINS_17Einsum_Onnx_ver12EEENS_8OpSchemaEv, symObjAddr: 0x126AC, symBinAddr: 0xBD77FC, symSize: 0x3A8 }
  - { offsetInCU: 0x1C186, offset: 0x457ED4, size: 0x8, addend: 0x0, symName: __ZN4onnx11GetOpSchemaINS_34SoftmaxCrossEntropyLoss_Onnx_ver13EEENS_8OpSchemaEv, symObjAddr: 0x12E5C, symBinAddr: 0xBD7FAC, symSize: 0x4DC }
  - { offsetInCU: 0x1D207, offset: 0x458F55, size: 0x8, addend: 0x0, symName: __ZN4onnx11GetOpSchemaINS_14DFT_Onnx_ver20EEENS_8OpSchemaEv, symObjAddr: 0x13338, symBinAddr: 0xBD8488, symSize: 0x478 }
  - { offsetInCU: 0x1E9BF, offset: 0x45A70D, size: 0x8, addend: 0x0, symName: __ZN4onnx11GetOpSchemaINS_26MelWeightMatrix_Onnx_ver17EEENS_8OpSchemaEv, symObjAddr: 0x14220, symBinAddr: 0xBD935C, symSize: 0x4DC }
  - { offsetInCU: 0x200BB, offset: 0x45BE09, size: 0x8, addend: 0x0, symName: __ZN4onnx11GetOpSchemaINS_15STFT_Onnx_ver17EEENS_8OpSchemaEv, symObjAddr: 0x146FC, symBinAddr: 0xBD9838, symSize: 0x3A8 }
  - { offsetInCU: 0x20AD9, offset: 0x45C827, size: 0x8, addend: 0x0, symName: __ZN4onnx11GetOpSchemaINS_14Div_Onnx_ver14EEENS_8OpSchemaEv, symObjAddr: 0x122C, symBinAddr: 0xBC7A88, symSize: 0x1FC }
  - { offsetInCU: 0x21576, offset: 0x45D2C4, size: 0x8, addend: 0x0, symName: __ZN4onnx11GetOpSchemaINS_14Neg_Onnx_ver13EEENS_8OpSchemaEv, symObjAddr: 0x1428, symBinAddr: 0xBC7C84, symSize: 0x2B0 }
  - { offsetInCU: 0x224D4, offset: 0x45E222, size: 0x8, addend: 0x0, symName: __ZN4onnx11GetOpSchemaINS_14Abs_Onnx_ver13EEENS_8OpSchemaEv, symObjAddr: 0x17D4, symBinAddr: 0xBC7F34, symSize: 0x394 }
  - { offsetInCU: 0x23C20, offset: 0x45F96E, size: 0x8, addend: 0x0, symName: __ZN4onnx11GetOpSchemaINS_21Reciprocal_Onnx_ver13EEENS_8OpSchemaEv, symObjAddr: 0x1B68, symBinAddr: 0xBC82C8, symSize: 0x2A0 }
  - { offsetInCU: 0x246EB, offset: 0x460439, size: 0x8, addend: 0x0, symName: __ZN4onnx11GetOpSchemaINS_16Floor_Onnx_ver13EEENS_8OpSchemaEv, symObjAddr: 0x1E08, symBinAddr: 0xBC8568, symSize: 0x2A0 }
  - { offsetInCU: 0x251B6, offset: 0x460F04, size: 0x8, addend: 0x0, symName: __ZN4onnx11GetOpSchemaINS_15Ceil_Onnx_ver13EEENS_8OpSchemaEv, symObjAddr: 0x20A8, symBinAddr: 0xBC8808, symSize: 0x2A0 }
  - { offsetInCU: 0x25C81, offset: 0x4619CF, size: 0x8, addend: 0x0, symName: __ZN4onnx11GetOpSchemaINS_15Sqrt_Onnx_ver13EEENS_8OpSchemaEv, symObjAddr: 0x2348, symBinAddr: 0xBC8AA8, symSize: 0x2A0 }
  - { offsetInCU: 0x2674C, offset: 0x46249A, size: 0x8, addend: 0x0, symName: __ZN4onnx11GetOpSchemaINS_15Relu_Onnx_ver14EEENS_8OpSchemaEv, symObjAddr: 0x25E8, symBinAddr: 0xBC8D48, symSize: 0x2C0 }
  - { offsetInCU: 0x271C7, offset: 0x462F15, size: 0x8, addend: 0x0, symName: __ZN4onnx11GetOpSchemaINS_20LeakyRelu_Onnx_ver16EEENS_8OpSchemaEv, symObjAddr: 0x28A8, symBinAddr: 0xBC9008, symSize: 0x2D4 }
  - { offsetInCU: 0x27C94, offset: 0x4639E2, size: 0x8, addend: 0x0, symName: __ZN4onnx11GetOpSchemaINS_26ThresholdedRelu_Onnx_ver22EEENS_8OpSchemaEv, symObjAddr: 0x2B7C, symBinAddr: 0xBC92DC, symSize: 0x3EC }
  - { offsetInCU: 0x293A1, offset: 0x4650EF, size: 0x8, addend: 0x0, symName: __ZN4onnx11GetOpSchemaINS_15Selu_Onnx_ver22EEENS_8OpSchemaEv, symObjAddr: 0x3160, symBinAddr: 0xBC96C8, symSize: 0x41C }
  - { offsetInCU: 0x2AAB2, offset: 0x466800, size: 0x8, addend: 0x0, symName: __ZN4onnx11GetOpSchemaINS_14Elu_Onnx_ver22EEENS_8OpSchemaEv, symObjAddr: 0x357C, symBinAddr: 0xBC9AE4, symSize: 0x3E8 }
  - { offsetInCU: 0x2C209, offset: 0x467F57, size: 0x8, addend: 0x0, symName: __ZN4onnx11GetOpSchemaINS_15Mish_Onnx_ver22EEENS_8OpSchemaEv, symObjAddr: 0x3964, symBinAddr: 0xBC9ECC, symSize: 0x3A8 }
  - { offsetInCU: 0x2DB45, offset: 0x469893, size: 0x8, addend: 0x0, symName: __ZN4onnx37BuildContextDependentFunctionBodyCeluERKNS_24FunctionBodyBuildContextERKNS_8OpSchemaERNS_13FunctionProtoE, symObjAddr: 0x40B8, symBinAddr: 0xBCA274, symSize: 0x1D0 }
  - { offsetInCU: 0x2EA99, offset: 0x46A7E7, size: 0x8, addend: 0x0, symName: __ZN4onnx11GetOpSchemaINS_15Celu_Onnx_ver12EEENS_8OpSchemaEv, symObjAddr: 0x470C, symBinAddr: 0xBCA688, symSize: 0x34C }
  - { offsetInCU: 0x2F7D0, offset: 0x46B51E, size: 0x8, addend: 0x0, symName: __ZN4onnx37BuildContextDependentFunctionBodyGeluERKNS_24FunctionBodyBuildContextERKNS_8OpSchemaERNS_13FunctionProtoE, symObjAddr: 0x4A58, symBinAddr: 0xBCA9D4, symSize: 0x1F0 }
  - { offsetInCU: 0x30317, offset: 0x46C065, size: 0x8, addend: 0x0, symName: __ZN4onnx11GetOpSchemaINS_15Gelu_Onnx_ver20EEENS_8OpSchemaEv, symObjAddr: 0x4C48, symBinAddr: 0xBCABC4, symSize: 0x358 }
  - { offsetInCU: 0x30FF6, offset: 0x46CD44, size: 0x8, addend: 0x0, symName: __ZN4onnx11GetOpSchemaINS_14Exp_Onnx_ver13EEENS_8OpSchemaEv, symObjAddr: 0x4FA0, symBinAddr: 0xBCAF1C, symSize: 0x394 }
  - { offsetInCU: 0x32752, offset: 0x46E4A0, size: 0x8, addend: 0x0, symName: __ZN4onnx11GetOpSchemaINS_14Log_Onnx_ver13EEENS_8OpSchemaEv, symObjAddr: 0x5334, symBinAddr: 0xBCB2B0, symSize: 0x2A0 }
  - { offsetInCU: 0x33225, offset: 0x46EF73, size: 0x8, addend: 0x0, symName: __ZN4onnx11GetOpSchemaINS_15Tanh_Onnx_ver13EEENS_8OpSchemaEv, symObjAddr: 0x55D4, symBinAddr: 0xBCB550, symSize: 0x394 }
  - { offsetInCU: 0x34993, offset: 0x4706E1, size: 0x8, addend: 0x0, symName: __ZN4onnx11GetOpSchemaINS_16PRelu_Onnx_ver16EEENS_8OpSchemaEv, symObjAddr: 0x5E00, symBinAddr: 0xBCBD7C, symSize: 0x490 }
  - { offsetInCU: 0x35E9F, offset: 0x471BED, size: 0x8, addend: 0x0, symName: __ZN4onnx26GenerateBroadcastingDocUniEPKcS1_, symObjAddr: 0x6290, symBinAddr: 0xBCC20C, symSize: 0x2EC }
  - { offsetInCU: 0x371DF, offset: 0x472F2D, size: 0x8, addend: 0x0, symName: __ZN4onnx11GetOpSchemaINS_18Sigmoid_Onnx_ver13EEENS_8OpSchemaEv, symObjAddr: 0x657C, symBinAddr: 0xBCC4F8, symSize: 0x2A0 }
  - { offsetInCU: 0x37CB2, offset: 0x473A00, size: 0x8, addend: 0x0, symName: __ZN4onnx11GetOpSchemaINS_22HardSigmoid_Onnx_ver22EEENS_8OpSchemaEv, symObjAddr: 0x681C, symBinAddr: 0xBCC798, symSize: 0x418 }
  - { offsetInCU: 0x393C3, offset: 0x475111, size: 0x8, addend: 0x0, symName: __ZN4onnx11GetOpSchemaINS_20HardSwish_Onnx_ver22EEENS_8OpSchemaEv, symObjAddr: 0x6C34, symBinAddr: 0xBCCBB0, symSize: 0x3A4 }
  - { offsetInCU: 0x3AB3F, offset: 0x47688D, size: 0x8, addend: 0x0, symName: __ZN4onnx11GetOpSchemaINS_14Max_Onnx_ver13EEENS_8OpSchemaEv, symObjAddr: 0x6FEC, symBinAddr: 0xBCCF54, symSize: 0x380 }
  - { offsetInCU: 0x3C202, offset: 0x477F50, size: 0x8, addend: 0x0, symName: __ZN4onnx11GetOpSchemaINS_14Min_Onnx_ver13EEENS_8OpSchemaEv, symObjAddr: 0x736C, symBinAddr: 0xBCD2D4, symSize: 0x380 }
  - { offsetInCU: 0x3D8C5, offset: 0x479613, size: 0x8, addend: 0x0, symName: __ZN4onnx11GetOpSchemaINS_14Sum_Onnx_ver13EEENS_8OpSchemaEv, symObjAddr: 0x76EC, symBinAddr: 0xBCD654, symSize: 0x21C }
  - { offsetInCU: 0x3E3AE, offset: 0x47A0FC, size: 0x8, addend: 0x0, symName: __ZN4onnx11GetOpSchemaINS_15Mean_Onnx_ver13EEENS_8OpSchemaEv, symObjAddr: 0x7908, symBinAddr: 0xBCD870, symSize: 0x21C }
  - { offsetInCU: 0x3EE97, offset: 0x47ABE5, size: 0x8, addend: 0x0, symName: __ZN4onnx37BuildContextDependentFunctionBodyClipERKNS_24FunctionBodyBuildContextERKNS_8OpSchemaERNS_13FunctionProtoE, symObjAddr: 0x7B24, symBinAddr: 0xBCDA8C, symSize: 0x13C }
  - { offsetInCU: 0x3EFDD, offset: 0x47AD2B, size: 0x8, addend: 0x0, symName: __ZN4onnx11GetOpSchemaINS_15Clip_Onnx_ver13EEENS_8OpSchemaEv, symObjAddr: 0x7C60, symBinAddr: 0xBCDBC8, symSize: 0x48C }
  - { offsetInCU: 0x409E6, offset: 0x47C734, size: 0x8, addend: 0x0, symName: __ZN4onnx11GetOpSchemaINS_18Hardmax_Onnx_ver13EEENS_8OpSchemaEv, symObjAddr: 0x87C4, symBinAddr: 0xBCE6DC, symSize: 0x220 }
  - { offsetInCU: 0x414D7, offset: 0x47D225, size: 0x8, addend: 0x0, symName: __ZN4onnx11GetOpSchemaINS_19Softsign_Onnx_ver22EEENS_8OpSchemaEv, symObjAddr: 0x89E4, symBinAddr: 0xBCE8FC, symSize: 0x3A4 }
  - { offsetInCU: 0x42C33, offset: 0x47E981, size: 0x8, addend: 0x0, symName: __ZN4onnx11GetOpSchemaINS_19Softplus_Onnx_ver22EEENS_8OpSchemaEv, symObjAddr: 0x8D88, symBinAddr: 0xBCECA0, symSize: 0x3A4 }
  - { offsetInCU: 0x443A1, offset: 0x4800EF, size: 0x8, addend: 0x0, symName: __ZN4onnx11GetOpSchemaINS_14Sin_Onnx_ver22EEENS_8OpSchemaEv, symObjAddr: 0xA304, symBinAddr: 0xBCFE10, symSize: 0x394 }
  - { offsetInCU: 0x45AFD, offset: 0x48184B, size: 0x8, addend: 0x0, symName: __ZN4onnx11GetOpSchemaINS_14Cos_Onnx_ver22EEENS_8OpSchemaEv, symObjAddr: 0xA698, symBinAddr: 0xBD01A4, symSize: 0x394 }
  - { offsetInCU: 0x47259, offset: 0x482FA7, size: 0x8, addend: 0x0, symName: __ZN4onnx11GetOpSchemaINS_14Tan_Onnx_ver22EEENS_8OpSchemaEv, symObjAddr: 0xAA2C, symBinAddr: 0xBD0538, symSize: 0x394 }
  - { offsetInCU: 0x489B5, offset: 0x484703, size: 0x8, addend: 0x0, symName: __ZN4onnx11GetOpSchemaINS_15Asin_Onnx_ver22EEENS_8OpSchemaEv, symObjAddr: 0xADC0, symBinAddr: 0xBD08CC, symSize: 0x394 }
  - { offsetInCU: 0x4A111, offset: 0x485E5F, size: 0x8, addend: 0x0, symName: __ZN4onnx11GetOpSchemaINS_15Acos_Onnx_ver22EEENS_8OpSchemaEv, symObjAddr: 0xB154, symBinAddr: 0xBD0C60, symSize: 0x394 }
  - { offsetInCU: 0x4B86D, offset: 0x4875BB, size: 0x8, addend: 0x0, symName: __ZN4onnx11GetOpSchemaINS_15Atan_Onnx_ver22EEENS_8OpSchemaEv, symObjAddr: 0xB4E8, symBinAddr: 0xBD0FF4, symSize: 0x394 }
  - { offsetInCU: 0x4CFC9, offset: 0x488D17, size: 0x8, addend: 0x0, symName: __ZN4onnx11GetOpSchemaINS_15Sinh_Onnx_ver22EEENS_8OpSchemaEv, symObjAddr: 0xC1A0, symBinAddr: 0xBD1744, symSize: 0x394 }
  - { offsetInCU: 0x4E725, offset: 0x48A473, size: 0x8, addend: 0x0, symName: __ZN4onnx11GetOpSchemaINS_15Cosh_Onnx_ver22EEENS_8OpSchemaEv, symObjAddr: 0xC534, symBinAddr: 0xBD1AD8, symSize: 0x394 }
  - { offsetInCU: 0x4FE81, offset: 0x48BBCF, size: 0x8, addend: 0x0, symName: __ZN4onnx11GetOpSchemaINS_16Asinh_Onnx_ver22EEENS_8OpSchemaEv, symObjAddr: 0xC8C8, symBinAddr: 0xBD1E6C, symSize: 0x394 }
  - { offsetInCU: 0x515DD, offset: 0x48D32B, size: 0x8, addend: 0x0, symName: __ZN4onnx11GetOpSchemaINS_16Acosh_Onnx_ver22EEENS_8OpSchemaEv, symObjAddr: 0xCC5C, symBinAddr: 0xBD2200, symSize: 0x394 }
  - { offsetInCU: 0x52D39, offset: 0x48EA87, size: 0x8, addend: 0x0, symName: __ZN4onnx11GetOpSchemaINS_16Atanh_Onnx_ver22EEENS_8OpSchemaEv, symObjAddr: 0xCFF0, symBinAddr: 0xBD2594, symSize: 0x394 }
  - { offsetInCU: 0x54495, offset: 0x4901E3, size: 0x8, addend: 0x0, symName: __ZN4onnx11GetOpSchemaINS_15Sign_Onnx_ver13EEENS_8OpSchemaEv, symObjAddr: 0xD384, symBinAddr: 0xBD2928, symSize: 0x394 }
  - { offsetInCU: 0x55BF1, offset: 0x49193F, size: 0x8, addend: 0x0, symName: __ZN4onnx11GetOpSchemaINS_14Erf_Onnx_ver13EEENS_8OpSchemaEv, symObjAddr: 0xD718, symBinAddr: 0xBD2CBC, symSize: 0x394 }
  - { offsetInCU: 0x5734D, offset: 0x49309B, size: 0x8, addend: 0x0, symName: __ZN4onnx11GetOpSchemaINS_24QLinearMatMul_Onnx_ver21EEENS_8OpSchemaEv, symObjAddr: 0xDAAC, symBinAddr: 0xBD3050, symSize: 0x4B4 }
  - { offsetInCU: 0x57E66, offset: 0x493BB4, size: 0x8, addend: 0x0, symName: __ZN4onnx4defs4math5utils24GetScalarValueFromTensorIxEET_PKNS_11TensorProtoE, symObjAddr: 0x243CC, symBinAddr: 0xBE1644, symSize: 0x20C }
  - { offsetInCU: 0x58262, offset: 0x493FB0, size: 0x8, addend: 0x0, symName: __ZN4onnx11GetOpSchemaINS_17CumSum_Onnx_ver14EEENS_8OpSchemaEv, symObjAddr: 0xE2E0, symBinAddr: 0xBD3884, symSize: 0x458 }
  - { offsetInCU: 0x599BF, offset: 0x49570D, size: 0x8, addend: 0x0, symName: __ZN4onnx11GetOpSchemaINS_16Round_Onnx_ver22EEENS_8OpSchemaEv, symObjAddr: 0xEA70, symBinAddr: 0xBD4014, symSize: 0x394 }
  - { offsetInCU: 0x5B11B, offset: 0x496E69, size: 0x8, addend: 0x0, symName: __ZN4onnx33BuildContextDependentFunctionBodyERKNS_24FunctionBodyBuildContextERKNS_8OpSchemaERNS_13FunctionProtoE, symObjAddr: 0xF190, symBinAddr: 0xBD4734, symSize: 0x918 }
  - { offsetInCU: 0x5EB0A, offset: 0x49A858, size: 0x8, addend: 0x0, symName: __ZN4onnx20einsumShapeInferenceERNS_16InferenceContextERKNSt3__112basic_stringIcNS2_11char_traitsIcEENS2_9allocatorIcEEEE, symObjAddr: 0x104BC, symBinAddr: 0xBD5A60, symSize: 0x1844 }
  - { offsetInCU: 0x62FDB, offset: 0x49ED29, size: 0x8, addend: 0x0, symName: __ZN4onnx10MakeStringIJA23_cA45_cEEENSt3__112basic_stringIcNS3_11char_traitsIcEENS3_9allocatorIcEEEEDpRKT_, symObjAddr: 0x12240, symBinAddr: 0xBD7418, symSize: 0x1D8 }
  - { offsetInCU: 0x63719, offset: 0x49F467, size: 0x8, addend: 0x0, symName: __ZN4onnx10MakeStringIJA23_cA15_cmA38_cEEENSt3__112basic_stringIcNS4_11char_traitsIcEENS4_9allocatorIcEEEEDpRKT_, symObjAddr: 0x12418, symBinAddr: 0xBD75F0, symSize: 0x20C }
  - { offsetInCU: 0x64218, offset: 0x49FF66, size: 0x8, addend: 0x0, symName: __ZN4onnx36BuildContextDependentFunctionBodySCEERKNS_24FunctionBodyBuildContextERKNS_8OpSchemaERNS_13FunctionProtoE, symObjAddr: 0x12A54, symBinAddr: 0xBD7BA4, symSize: 0x1C4 }
  - { offsetInCU: 0x64D49, offset: 0x4A0A97, size: 0x8, addend: 0x0, symName: __ZN4onnx11GetOpSchemaINS_21HannWindow_Onnx_ver17EEENS_8OpSchemaEv, symObjAddr: 0x137C4, symBinAddr: 0xBD8900, symSize: 0x374 }
  - { offsetInCU: 0x6644B, offset: 0x4A2199, size: 0x8, addend: 0x0, symName: __ZN4onnx11GetOpSchemaINS_24HammingWindow_Onnx_ver17EEENS_8OpSchemaEv, symObjAddr: 0x13B38, symBinAddr: 0xBD8C74, symSize: 0x374 }
  - { offsetInCU: 0x67B4D, offset: 0x4A389B, size: 0x8, addend: 0x0, symName: __ZN4onnx11GetOpSchemaINS_25BlackmanWindow_Onnx_ver17EEENS_8OpSchemaEv, symObjAddr: 0x13EAC, symBinAddr: 0xBD8FE8, symSize: 0x374 }
  - { offsetInCU: 0x6BA4D, offset: 0x4A779B, size: 0x8, addend: 0x0, symName: __ZN4onnx20MathOpDataPropagatorERNS_22DataPropagationContextENSt3__112basic_stringIcNS2_11char_traitsIcEENS2_9allocatorIcEEEE, symObjAddr: 0x1B070, symBinAddr: 0xBDA5F0, symSize: 0x3F0 }
  - { offsetInCU: 0x6C819, offset: 0x4A8567, size: 0x8, addend: 0x0, symName: __ZN4onnx10MakeStringIJA23_cA18_cNSt3__112basic_stringIcNS3_11char_traitsIcEENS3_9allocatorIcEEEEA17_ciA7_ciA3_cEEES9_DpRKT_, symObjAddr: 0x1B460, symBinAddr: 0xBDA9E0, symSize: 0x1F0 }
  - { offsetInCU: 0x6CEC3, offset: 0x4A8C11, size: 0x8, addend: 0x0, symName: __ZN4onnx18MakeStringInternalIA23_cJA18_cNSt3__112basic_stringIcNS3_11char_traitsIcEENS3_9allocatorIcEEEEA17_ciA7_ciA3_cEEEvRNS3_18basic_stringstreamIcS6_S8_EERKT_DpRKT0_, symObjAddr: 0x1B650, symBinAddr: 0xBDABD0, symSize: 0x108 }
  - { offsetInCU: 0x72CE1, offset: 0x4AEA2F, size: 0x8, addend: 0x0, symName: __ZN4onnx10MakeStringIJA23_cA60_cxA19_cxEEENSt3__112basic_stringIcNS4_11char_traitsIcEENS4_9allocatorIcEEEEDpRKT_, symObjAddr: 0x22638, symBinAddr: 0xBDFA10, symSize: 0x21C }
  - { offsetInCU: 0x735CD, offset: 0x4AF31B, size: 0x8, addend: 0x0, symName: __ZN4onnx12getAttributeERNS_16InferenceContextERKNSt3__112basic_stringIcNS2_11char_traitsIcEENS2_9allocatorIcEEEESA_, symObjAddr: 0x22A3C, symBinAddr: 0xBDFE14, symSize: 0xFC }
  - { offsetInCU: 0x7382D, offset: 0x4AF57B, size: 0x8, addend: 0x0, symName: __ZN4onnx10MakeStringIJA23_cA37_ciEEENSt3__112basic_stringIcNS3_11char_traitsIcEENS3_9allocatorIcEEEEDpRKT_, symObjAddr: 0x22234, symBinAddr: 0xBDF60C, symSize: 0x1E8 }
  - { offsetInCU: 0x73FCC, offset: 0x4AFD1A, size: 0x8, addend: 0x0, symName: __ZN4onnx10MakeStringIJA23_cA60_ciA15_ciEEENSt3__112basic_stringIcNS4_11char_traitsIcEENS4_9allocatorIcEEEEDpRKT_, symObjAddr: 0x2241C, symBinAddr: 0xBDF7F4, symSize: 0x21C }
  - { offsetInCU: 0x748B8, offset: 0x4B0606, size: 0x8, addend: 0x0, symName: __ZN4onnx10MakeStringIJA23_cA36_ciEEENSt3__112basic_stringIcNS3_11char_traitsIcEENS3_9allocatorIcEEEEDpRKT_, symObjAddr: 0x22854, symBinAddr: 0xBDFC2C, symSize: 0x1E8 }
  - { offsetInCU: 0x754FC, offset: 0x4B124A, size: 0x8, addend: 0x0, symName: __ZN4onnx10MakeStringIJA23_cA70_cEEENSt3__112basic_stringIcNS3_11char_traitsIcEENS3_9allocatorIcEEEEDpRKT_, symObjAddr: 0x23E44, symBinAddr: 0xBE10BC, symSize: 0x1D8 }
  - { offsetInCU: 0x75C3A, offset: 0x4B1988, size: 0x8, addend: 0x0, symName: __ZN4onnx10MakeStringIJA23_cA67_cEEENSt3__112basic_stringIcNS3_11char_traitsIcEENS3_9allocatorIcEEEEDpRKT_, symObjAddr: 0x2401C, symBinAddr: 0xBE1294, symSize: 0x1D8 }
  - { offsetInCU: 0x76378, offset: 0x4B20C6, size: 0x8, addend: 0x0, symName: __ZN4onnx10MakeStringIJA23_cA22_cxA34_cxA68_cEEENSt3__112basic_stringIcNS5_11char_traitsIcEENS5_9allocatorIcEEEEDpRKT_, symObjAddr: 0x245D8, symBinAddr: 0xBE1850, symSize: 0x240 }
  - { offsetInCU: 0x76D50, offset: 0x4B2A9E, size: 0x8, addend: 0x0, symName: __ZN4onnx10MakeStringIJA23_cA29_cEEENSt3__112basic_stringIcNS3_11char_traitsIcEENS3_9allocatorIcEEEEDpRKT_, symObjAddr: 0x241F4, symBinAddr: 0xBE146C, symSize: 0x1D8 }
  - { offsetInCU: 0x77A66, offset: 0x4B37B4, size: 0x8, addend: 0x0, symName: __ZN4onnx10MakeStringIJA23_cA32_ciEEENSt3__112basic_stringIcNS3_11char_traitsIcEENS3_9allocatorIcEEEEDpRKT_, symObjAddr: 0x249F0, symBinAddr: 0xBE1A90, symSize: 0x1E8 }
  - { offsetInCU: 0x7851D, offset: 0x4B426B, size: 0x8, addend: 0x0, symName: __ZN4onnx21getOptionalInputShapeERNS_16InferenceContextEm, symObjAddr: 0x26594, symBinAddr: 0xBE3634, symSize: 0x18C }
  - { offsetInCU: 0x7889F, offset: 0x4B45ED, size: 0x8, addend: 0x0, symName: __ZN4onnx10MakeStringIJA22_cA127_cEEENSt3__112basic_stringIcNS3_11char_traitsIcEENS3_9allocatorIcEEEEDpRKT_, symObjAddr: 0x26720, symBinAddr: 0xBE37C0, symSize: 0x1D8 }
  - { offsetInCU: 0x78FDD, offset: 0x4B4D2B, size: 0x8, addend: 0x0, symName: __ZN4onnx10MakeStringIJA23_cA50_cNSt3__112basic_stringIcNS3_11char_traitsIcEENS3_9allocatorIcEEEEA2_cEEES9_DpRKT_, symObjAddr: 0x26374, symBinAddr: 0xBE3414, symSize: 0x220 }
  - { offsetInCU: 0xBD51F, offset: 0x4F926D, size: 0x8, addend: 0x0, symName: __ZN4onnx8OpSchema36numeric_types_for_math_reduction_ir4Ev, symObjAddr: 0xE738, symBinAddr: 0xBD3CDC, symSize: 0x338 }
  - { offsetInCU: 0xBD540, offset: 0x4F928E, size: 0x8, addend: 0x0, symName: __ZZN4onnx8OpSchema36numeric_types_for_math_reduction_ir4EvE36numeric_types_for_math_reduction_ir4, symObjAddr: 0x38648, symBinAddr: 0x14F8E88, symSize: 0x0 }
  - { offsetInCU: 0xC644B, offset: 0x502199, size: 0x8, addend: 0x0, symName: __ZN4onnx15FunctionBuilder5ConstIfEERS0_RKNSt3__112basic_stringIcNS3_11char_traitsIcEENS3_9allocatorIcEEEERKNS3_6vectorIT_NS7_ISD_EEEE, symObjAddr: 0x4288, symBinAddr: 0xBCA444, symSize: 0x244 }
  - { offsetInCU: 0xC9C72, offset: 0x5059C0, size: 0x8, addend: 0x0, symName: __ZN4onnx15FunctionBuilder7Const1DIxEERS0_RKNSt3__112basic_stringIcNS3_11char_traitsIcEENS3_9allocatorIcEEEET_, symObjAddr: 0xFAA8, symBinAddr: 0xBD504C, symSize: 0x240 }
  - { offsetInCU: 0xCA8B7, offset: 0x506605, size: 0x8, addend: 0x0, symName: __ZN4onnx15FunctionBuilder7Const1DIfEERS0_RKNSt3__112basic_stringIcNS3_11char_traitsIcEENS3_9allocatorIcEEEET_, symObjAddr: 0xFCE8, symBinAddr: 0xBD528C, symSize: 0x240 }
  - { offsetInCU: 0xCC9E1, offset: 0x50872F, size: 0x8, addend: 0x0, symName: __ZNSt3__118basic_stringstreamIcNS_11char_traitsIcEENS_9allocatorIcEEEC1B8ue170006ERKNS_12basic_stringIcS2_S4_EEj, symObjAddr: 0x11D00, symBinAddr: 0xBD72A4, symSize: 0x174 }
  - { offsetInCU: 0xCCC5C, offset: 0x5089AA, size: 0x8, addend: 0x0, symName: __ZNSt3__16__treeIcNS_4lessIcEENS_9allocatorIcEEE7destroyEPNS_11__tree_nodeIcPvEE, symObjAddr: 0x22CD8, symBinAddr: 0xBDFF50, symSize: 0x40 }
  - { offsetInCU: 0xCCD90, offset: 0x508ADE, size: 0x8, addend: 0x0, symName: __ZNSt3__16__treeINS_12__value_typeIcmEENS_19__map_value_compareIcS2_NS_4lessIcEELb1EEENS_9allocatorIS2_EEE7destroyEPNS_11__tree_nodeIS2_PvEE, symObjAddr: 0x22C98, symBinAddr: 0xBDFF10, symSize: 0x40 }
  - { offsetInCU: 0xCD81E, offset: 0x50956C, size: 0x8, addend: 0x0, symName: __ZN4onnx15FunctionBuilder5ConstIxEERS0_RKNSt3__112basic_stringIcNS3_11char_traitsIcEENS3_9allocatorIcEEEERKNS3_6vectorIT_NS7_ISD_EEEE, symObjAddr: 0x12C18, symBinAddr: 0xBD7D68, symSize: 0x244 }
  - { offsetInCU: 0xDA080, offset: 0x515DCE, size: 0x8, addend: 0x0, symName: '__ZNSt3__110__function6__funcIZN4onnx16MathDocGeneratorEPKcE3$_0NS_9allocatorIS5_EEFvRNS2_8OpSchemaEEED1Ev', symObjAddr: 0x19FE4, symBinAddr: 0xBD9BE0, symSize: 0x4 }
  - { offsetInCU: 0xDA0AC, offset: 0x515DFA, size: 0x8, addend: 0x0, symName: '__ZNSt3__110__function6__funcIZN4onnx16MathDocGeneratorEPKcE3$_0NS_9allocatorIS5_EEFvRNS2_8OpSchemaEEED0Ev', symObjAddr: 0x19FE8, symBinAddr: 0xBD9BE4, symSize: 0x4 }
  - { offsetInCU: 0xDA166, offset: 0x515EB4, size: 0x8, addend: 0x0, symName: '__ZNKSt3__110__function6__funcIZN4onnx16MathDocGeneratorEPKcE3$_0NS_9allocatorIS5_EEFvRNS2_8OpSchemaEEE7__cloneEv', symObjAddr: 0x19FEC, symBinAddr: 0xBD9BE8, symSize: 0x34 }
  - { offsetInCU: 0xDA2B2, offset: 0x516000, size: 0x8, addend: 0x0, symName: '__ZNKSt3__110__function6__funcIZN4onnx16MathDocGeneratorEPKcE3$_0NS_9allocatorIS5_EEFvRNS2_8OpSchemaEEE7__cloneEPNS0_6__baseISA_EE', symObjAddr: 0x1A020, symBinAddr: 0xBD9C1C, symSize: 0x14 }
  - { offsetInCU: 0xDA322, offset: 0x516070, size: 0x8, addend: 0x0, symName: '__ZNSt3__110__function6__funcIZN4onnx16MathDocGeneratorEPKcE3$_0NS_9allocatorIS5_EEFvRNS2_8OpSchemaEEE7destroyEv', symObjAddr: 0x1A034, symBinAddr: 0xBD9C30, symSize: 0x4 }
  - { offsetInCU: 0xDA373, offset: 0x5160C1, size: 0x8, addend: 0x0, symName: '__ZNSt3__110__function6__funcIZN4onnx16MathDocGeneratorEPKcE3$_0NS_9allocatorIS5_EEFvRNS2_8OpSchemaEEE18destroy_deallocateEv', symObjAddr: 0x1A038, symBinAddr: 0xBD9C34, symSize: 0x4 }
  - { offsetInCU: 0xDA3A8, offset: 0x5160F6, size: 0x8, addend: 0x0, symName: '__ZNSt3__110__function6__funcIZN4onnx16MathDocGeneratorEPKcE3$_0NS_9allocatorIS5_EEFvRNS2_8OpSchemaEEE18destroy_deallocateEv', symObjAddr: 0x1A038, symBinAddr: 0xBD9C34, symSize: 0x4 }
  - { offsetInCU: 0xDA3CA, offset: 0x516118, size: 0x8, addend: 0x0, symName: '__ZNSt3__110__function6__funcIZN4onnx16MathDocGeneratorEPKcE3$_0NS_9allocatorIS5_EEFvRNS2_8OpSchemaEEE18destroy_deallocateEv', symObjAddr: 0x1A038, symBinAddr: 0xBD9C34, symSize: 0x4 }
  - { offsetInCU: 0xDA3F5, offset: 0x516143, size: 0x8, addend: 0x0, symName: '__ZNSt3__110__function6__funcIZN4onnx16MathDocGeneratorEPKcE3$_0NS_9allocatorIS5_EEFvRNS2_8OpSchemaEEE18destroy_deallocateEv', symObjAddr: 0x1A038, symBinAddr: 0xBD9C34, symSize: 0x4 }
  - { offsetInCU: 0xDA41B, offset: 0x516169, size: 0x8, addend: 0x0, symName: '__ZNSt3__110__function6__funcIZN4onnx16MathDocGeneratorEPKcE3$_0NS_9allocatorIS5_EEFvRNS2_8OpSchemaEEE18destroy_deallocateEv', symObjAddr: 0x1A038, symBinAddr: 0xBD9C34, symSize: 0x4 }
  - { offsetInCU: 0xDA7E5, offset: 0x516533, size: 0x8, addend: 0x0, symName: '__ZNSt3__110__function6__funcIZN4onnx16MathDocGeneratorEPKcE3$_0NS_9allocatorIS5_EEFvRNS2_8OpSchemaEEEclES9_', symObjAddr: 0x1A03C, symBinAddr: 0xBD9C38, symSize: 0x414 }
  - { offsetInCU: 0xDC38F, offset: 0x5180DD, size: 0x8, addend: 0x0, symName: '__ZNKSt3__110__function6__funcIZN4onnx16MathDocGeneratorEPKcE3$_0NS_9allocatorIS5_EEFvRNS2_8OpSchemaEEE6targetERKSt9type_info', symObjAddr: 0x1A450, symBinAddr: 0xBDA04C, symSize: 0x60 }
  - { offsetInCU: 0xDC414, offset: 0x518162, size: 0x8, addend: 0x0, symName: '__ZNKSt3__110__function6__funcIZN4onnx16MathDocGeneratorEPKcE3$_0NS_9allocatorIS5_EEFvRNS2_8OpSchemaEEE11target_typeEv', symObjAddr: 0x1A4B0, symBinAddr: 0xBDA0AC, symSize: 0xC }
  - { offsetInCU: 0xDC439, offset: 0x518187, size: 0x8, addend: 0x0, symName: '__ZNSt3__110__function6__funcIZZN4onnx16MathDocGeneratorEPKcENK3$_0clERNS2_8OpSchemaEEUlRNS2_16InferenceContextEE_NS_9allocatorISA_EEFvS9_EED1Ev', symObjAddr: 0x1A4BC, symBinAddr: 0xBDA0B8, symSize: 0x4 }
  - { offsetInCU: 0xDC465, offset: 0x5181B3, size: 0x8, addend: 0x0, symName: '__ZNSt3__110__function6__funcIZZN4onnx16MathDocGeneratorEPKcENK3$_0clERNS2_8OpSchemaEEUlRNS2_16InferenceContextEE_NS_9allocatorISA_EEFvS9_EED0Ev', symObjAddr: 0x1A4C0, symBinAddr: 0xBDA0BC, symSize: 0x4 }
  - { offsetInCU: 0xDC51F, offset: 0x51826D, size: 0x8, addend: 0x0, symName: '__ZNKSt3__110__function6__funcIZZN4onnx16MathDocGeneratorEPKcENK3$_0clERNS2_8OpSchemaEEUlRNS2_16InferenceContextEE_NS_9allocatorISA_EEFvS9_EE7__cloneEv', symObjAddr: 0x1A4C4, symBinAddr: 0xBDA0C0, symSize: 0x24 }
  - { offsetInCU: 0xDC667, offset: 0x5183B5, size: 0x8, addend: 0x0, symName: '__ZNKSt3__110__function6__funcIZZN4onnx16MathDocGeneratorEPKcENK3$_0clERNS2_8OpSchemaEEUlRNS2_16InferenceContextEE_NS_9allocatorISA_EEFvS9_EE7__cloneEPNS0_6__baseISD_EE', symObjAddr: 0x1A4E8, symBinAddr: 0xBDA0E4, symSize: 0x10 }
  - { offsetInCU: 0xDC69D, offset: 0x5183EB, size: 0x8, addend: 0x0, symName: '__ZNKSt3__110__function6__funcIZZN4onnx16MathDocGeneratorEPKcENK3$_0clERNS2_8OpSchemaEEUlRNS2_16InferenceContextEE_NS_9allocatorISA_EEFvS9_EE7__cloneEPNS0_6__baseISD_EE', symObjAddr: 0x1A4E8, symBinAddr: 0xBDA0E4, symSize: 0x10 }
  - { offsetInCU: 0xDC6B9, offset: 0x518407, size: 0x8, addend: 0x0, symName: '__ZNKSt3__110__function6__funcIZZN4onnx16MathDocGeneratorEPKcENK3$_0clERNS2_8OpSchemaEEUlRNS2_16InferenceContextEE_NS_9allocatorISA_EEFvS9_EE7__cloneEPNS0_6__baseISD_EE', symObjAddr: 0x1A4E8, symBinAddr: 0xBDA0E4, symSize: 0x10 }
  - { offsetInCU: 0xDC6D5, offset: 0x518423, size: 0x8, addend: 0x0, symName: '__ZNSt3__110__function6__funcIZZN4onnx16MathDocGeneratorEPKcENK3$_0clERNS2_8OpSchemaEEUlRNS2_16InferenceContextEE_NS_9allocatorISA_EEFvS9_EE7destroyEv', symObjAddr: 0x1A4F8, symBinAddr: 0xBDA0F4, symSize: 0x4 }
  - { offsetInCU: 0xDC726, offset: 0x518474, size: 0x8, addend: 0x0, symName: '__ZNSt3__110__function6__funcIZZN4onnx16MathDocGeneratorEPKcENK3$_0clERNS2_8OpSchemaEEUlRNS2_16InferenceContextEE_NS_9allocatorISA_EEFvS9_EE18destroy_deallocateEv', symObjAddr: 0x1A4FC, symBinAddr: 0xBDA0F8, symSize: 0x4 }
  - { offsetInCU: 0xDC75B, offset: 0x5184A9, size: 0x8, addend: 0x0, symName: '__ZNSt3__110__function6__funcIZZN4onnx16MathDocGeneratorEPKcENK3$_0clERNS2_8OpSchemaEEUlRNS2_16InferenceContextEE_NS_9allocatorISA_EEFvS9_EE18destroy_deallocateEv', symObjAddr: 0x1A4FC, symBinAddr: 0xBDA0F8, symSize: 0x4 }
  - { offsetInCU: 0xDC77D, offset: 0x5184CB, size: 0x8, addend: 0x0, symName: '__ZNSt3__110__function6__funcIZZN4onnx16MathDocGeneratorEPKcENK3$_0clERNS2_8OpSchemaEEUlRNS2_16InferenceContextEE_NS_9allocatorISA_EEFvS9_EE18destroy_deallocateEv', symObjAddr: 0x1A4FC, symBinAddr: 0xBDA0F8, symSize: 0x4 }
  - { offsetInCU: 0xDC7A8, offset: 0x5184F6, size: 0x8, addend: 0x0, symName: '__ZNSt3__110__function6__funcIZZN4onnx16MathDocGeneratorEPKcENK3$_0clERNS2_8OpSchemaEEUlRNS2_16InferenceContextEE_NS_9allocatorISA_EEFvS9_EE18destroy_deallocateEv', symObjAddr: 0x1A4FC, symBinAddr: 0xBDA0F8, symSize: 0x4 }
  - { offsetInCU: 0xDC7CE, offset: 0x51851C, size: 0x8, addend: 0x0, symName: '__ZNSt3__110__function6__funcIZZN4onnx16MathDocGeneratorEPKcENK3$_0clERNS2_8OpSchemaEEUlRNS2_16InferenceContextEE_NS_9allocatorISA_EEFvS9_EE18destroy_deallocateEv', symObjAddr: 0x1A4FC, symBinAddr: 0xBDA0F8, symSize: 0x4 }
  - { offsetInCU: 0xDCB68, offset: 0x5188B6, size: 0x8, addend: 0x0, symName: '__ZNSt3__110__function6__funcIZZN4onnx16MathDocGeneratorEPKcENK3$_0clERNS2_8OpSchemaEEUlRNS2_16InferenceContextEE_NS_9allocatorISA_EEFvS9_EEclES9_', symObjAddr: 0x1A500, symBinAddr: 0xBDA0FC, symSize: 0x32C }
  - { offsetInCU: 0xDD7D9, offset: 0x519527, size: 0x8, addend: 0x0, symName: '__ZNKSt3__110__function6__funcIZZN4onnx16MathDocGeneratorEPKcENK3$_0clERNS2_8OpSchemaEEUlRNS2_16InferenceContextEE_NS_9allocatorISA_EEFvS9_EE6targetERKSt9type_info', symObjAddr: 0x1A82C, symBinAddr: 0xBDA428, symSize: 0x60 }
  - { offsetInCU: 0xDD85E, offset: 0x5195AC, size: 0x8, addend: 0x0, symName: '__ZNKSt3__110__function6__funcIZZN4onnx16MathDocGeneratorEPKcENK3$_0clERNS2_8OpSchemaEEUlRNS2_16InferenceContextEE_NS_9allocatorISA_EEFvS9_EE11target_typeEv', symObjAddr: 0x1A88C, symBinAddr: 0xBDA488, symSize: 0xC }
  - { offsetInCU: 0xDD918, offset: 0x519666, size: 0x8, addend: 0x0, symName: __ZNKSt3__16vectorIPKN4onnx16TensorShapeProtoENS_9allocatorIS4_EEE20__throw_length_errorB8ue170006Ev, symObjAddr: 0x1AD3C, symBinAddr: 0xBDA494, symSize: 0x14 }
  - { offsetInCU: 0xDD957, offset: 0x5196A5, size: 0x8, addend: 0x0, symName: '__ZNSt3__110__function6__funcIZN4onnx11GetOpSchemaINS2_14Add_Onnx_ver14EEENS2_8OpSchemaEvE3$_1NS_9allocatorIS6_EEFvRNS2_22DataPropagationContextEEED1Ev', symObjAddr: 0x1AF28, symBinAddr: 0xBDA4A8, symSize: 0x4 }
  - { offsetInCU: 0xDD983, offset: 0x5196D1, size: 0x8, addend: 0x0, symName: '__ZNSt3__110__function6__funcIZN4onnx11GetOpSchemaINS2_14Add_Onnx_ver14EEENS2_8OpSchemaEvE3$_1NS_9allocatorIS6_EEFvRNS2_22DataPropagationContextEEED0Ev', symObjAddr: 0x1AF2C, symBinAddr: 0xBDA4AC, symSize: 0x4 }
  - { offsetInCU: 0xDDA3D, offset: 0x51978B, size: 0x8, addend: 0x0, symName: '__ZNKSt3__110__function6__funcIZN4onnx11GetOpSchemaINS2_14Add_Onnx_ver14EEENS2_8OpSchemaEvE3$_1NS_9allocatorIS6_EEFvRNS2_22DataPropagationContextEEE7__cloneEv', symObjAddr: 0x1AF30, symBinAddr: 0xBDA4B0, symSize: 0x24 }
  - { offsetInCU: 0xDDB85, offset: 0x5198D3, size: 0x8, addend: 0x0, symName: '__ZNKSt3__110__function6__funcIZN4onnx11GetOpSchemaINS2_14Add_Onnx_ver14EEENS2_8OpSchemaEvE3$_1NS_9allocatorIS6_EEFvRNS2_22DataPropagationContextEEE7__cloneEPNS0_6__baseISB_EE', symObjAddr: 0x1AF54, symBinAddr: 0xBDA4D4, symSize: 0x10 }
  - { offsetInCU: 0xDDBBB, offset: 0x519909, size: 0x8, addend: 0x0, symName: '__ZNKSt3__110__function6__funcIZN4onnx11GetOpSchemaINS2_14Add_Onnx_ver14EEENS2_8OpSchemaEvE3$_1NS_9allocatorIS6_EEFvRNS2_22DataPropagationContextEEE7__cloneEPNS0_6__baseISB_EE', symObjAddr: 0x1AF54, symBinAddr: 0xBDA4D4, symSize: 0x10 }
  - { offsetInCU: 0xDDBD7, offset: 0x519925, size: 0x8, addend: 0x0, symName: '__ZNKSt3__110__function6__funcIZN4onnx11GetOpSchemaINS2_14Add_Onnx_ver14EEENS2_8OpSchemaEvE3$_1NS_9allocatorIS6_EEFvRNS2_22DataPropagationContextEEE7__cloneEPNS0_6__baseISB_EE', symObjAddr: 0x1AF54, symBinAddr: 0xBDA4D4, symSize: 0x10 }
  - { offsetInCU: 0xDDBF3, offset: 0x519941, size: 0x8, addend: 0x0, symName: '__ZNSt3__110__function6__funcIZN4onnx11GetOpSchemaINS2_14Add_Onnx_ver14EEENS2_8OpSchemaEvE3$_1NS_9allocatorIS6_EEFvRNS2_22DataPropagationContextEEE7destroyEv', symObjAddr: 0x1AF64, symBinAddr: 0xBDA4E4, symSize: 0x4 }
  - { offsetInCU: 0xDDC44, offset: 0x519992, size: 0x8, addend: 0x0, symName: '__ZNSt3__110__function6__funcIZN4onnx11GetOpSchemaINS2_14Add_Onnx_ver14EEENS2_8OpSchemaEvE3$_1NS_9allocatorIS6_EEFvRNS2_22DataPropagationContextEEE18destroy_deallocateEv', symObjAddr: 0x1AF68, symBinAddr: 0xBDA4E8, symSize: 0x4 }
  - { offsetInCU: 0xDDC79, offset: 0x5199C7, size: 0x8, addend: 0x0, symName: '__ZNSt3__110__function6__funcIZN4onnx11GetOpSchemaINS2_14Add_Onnx_ver14EEENS2_8OpSchemaEvE3$_1NS_9allocatorIS6_EEFvRNS2_22DataPropagationContextEEE18destroy_deallocateEv', symObjAddr: 0x1AF68, symBinAddr: 0xBDA4E8, symSize: 0x4 }
  - { offsetInCU: 0xDDC9B, offset: 0x5199E9, size: 0x8, addend: 0x0, symName: '__ZNSt3__110__function6__funcIZN4onnx11GetOpSchemaINS2_14Add_Onnx_ver14EEENS2_8OpSchemaEvE3$_1NS_9allocatorIS6_EEFvRNS2_22DataPropagationContextEEE18destroy_deallocateEv', symObjAddr: 0x1AF68, symBinAddr: 0xBDA4E8, symSize: 0x4 }
  - { offsetInCU: 0xDDCC6, offset: 0x519A14, size: 0x8, addend: 0x0, symName: '__ZNSt3__110__function6__funcIZN4onnx11GetOpSchemaINS2_14Add_Onnx_ver14EEENS2_8OpSchemaEvE3$_1NS_9allocatorIS6_EEFvRNS2_22DataPropagationContextEEE18destroy_deallocateEv', symObjAddr: 0x1AF68, symBinAddr: 0xBDA4E8, symSize: 0x4 }
  - { offsetInCU: 0xDDCEC, offset: 0x519A3A, size: 0x8, addend: 0x0, symName: '__ZNSt3__110__function6__funcIZN4onnx11GetOpSchemaINS2_14Add_Onnx_ver14EEENS2_8OpSchemaEvE3$_1NS_9allocatorIS6_EEFvRNS2_22DataPropagationContextEEE18destroy_deallocateEv', symObjAddr: 0x1AF68, symBinAddr: 0xBDA4E8, symSize: 0x4 }
  - { offsetInCU: 0xDDD98, offset: 0x519AE6, size: 0x8, addend: 0x0, symName: '__ZNSt3__110__function6__funcIZN4onnx11GetOpSchemaINS2_14Add_Onnx_ver14EEENS2_8OpSchemaEvE3$_1NS_9allocatorIS6_EEFvRNS2_22DataPropagationContextEEEclESA_', symObjAddr: 0x1AF6C, symBinAddr: 0xBDA4EC, symSize: 0x98 }
  - { offsetInCU: 0xDE23D, offset: 0x519F8B, size: 0x8, addend: 0x0, symName: '__ZNKSt3__110__function6__funcIZN4onnx11GetOpSchemaINS2_14Add_Onnx_ver14EEENS2_8OpSchemaEvE3$_1NS_9allocatorIS6_EEFvRNS2_22DataPropagationContextEEE6targetERKSt9type_info', symObjAddr: 0x1B004, symBinAddr: 0xBDA584, symSize: 0x60 }
  - { offsetInCU: 0xDE2C2, offset: 0x51A010, size: 0x8, addend: 0x0, symName: '__ZNKSt3__110__function6__funcIZN4onnx11GetOpSchemaINS2_14Add_Onnx_ver14EEENS2_8OpSchemaEvE3$_1NS_9allocatorIS6_EEFvRNS2_22DataPropagationContextEEE11target_typeEv', symObjAddr: 0x1B064, symBinAddr: 0xBDA5E4, symSize: 0xC }
  - { offsetInCU: 0xDE34B, offset: 0x51A099, size: 0x8, addend: 0x0, symName: '__ZNSt3__110__function6__funcIZN4onnx11GetOpSchemaINS2_14Sub_Onnx_ver14EEENS2_8OpSchemaEvE3$_2NS_9allocatorIS6_EEFvRNS2_22DataPropagationContextEEED1Ev', symObjAddr: 0x1B758, symBinAddr: 0xBDACD8, symSize: 0x4 }
  - { offsetInCU: 0xDE377, offset: 0x51A0C5, size: 0x8, addend: 0x0, symName: '__ZNSt3__110__function6__funcIZN4onnx11GetOpSchemaINS2_14Sub_Onnx_ver14EEENS2_8OpSchemaEvE3$_2NS_9allocatorIS6_EEFvRNS2_22DataPropagationContextEEED0Ev', symObjAddr: 0x1B75C, symBinAddr: 0xBDACDC, symSize: 0x4 }
  - { offsetInCU: 0xDE431, offset: 0x51A17F, size: 0x8, addend: 0x0, symName: '__ZNKSt3__110__function6__funcIZN4onnx11GetOpSchemaINS2_14Sub_Onnx_ver14EEENS2_8OpSchemaEvE3$_2NS_9allocatorIS6_EEFvRNS2_22DataPropagationContextEEE7__cloneEv', symObjAddr: 0x1B760, symBinAddr: 0xBDACE0, symSize: 0x24 }
  - { offsetInCU: 0xDE579, offset: 0x51A2C7, size: 0x8, addend: 0x0, symName: '__ZNKSt3__110__function6__funcIZN4onnx11GetOpSchemaINS2_14Sub_Onnx_ver14EEENS2_8OpSchemaEvE3$_2NS_9allocatorIS6_EEFvRNS2_22DataPropagationContextEEE7__cloneEPNS0_6__baseISB_EE', symObjAddr: 0x1B784, symBinAddr: 0xBDAD04, symSize: 0x10 }
  - { offsetInCU: 0xDE5AF, offset: 0x51A2FD, size: 0x8, addend: 0x0, symName: '__ZNKSt3__110__function6__funcIZN4onnx11GetOpSchemaINS2_14Sub_Onnx_ver14EEENS2_8OpSchemaEvE3$_2NS_9allocatorIS6_EEFvRNS2_22DataPropagationContextEEE7__cloneEPNS0_6__baseISB_EE', symObjAddr: 0x1B784, symBinAddr: 0xBDAD04, symSize: 0x10 }
  - { offsetInCU: 0xDE5CB, offset: 0x51A319, size: 0x8, addend: 0x0, symName: '__ZNKSt3__110__function6__funcIZN4onnx11GetOpSchemaINS2_14Sub_Onnx_ver14EEENS2_8OpSchemaEvE3$_2NS_9allocatorIS6_EEFvRNS2_22DataPropagationContextEEE7__cloneEPNS0_6__baseISB_EE', symObjAddr: 0x1B784, symBinAddr: 0xBDAD04, symSize: 0x10 }
  - { offsetInCU: 0xDE5E7, offset: 0x51A335, size: 0x8, addend: 0x0, symName: '__ZNSt3__110__function6__funcIZN4onnx11GetOpSchemaINS2_14Sub_Onnx_ver14EEENS2_8OpSchemaEvE3$_2NS_9allocatorIS6_EEFvRNS2_22DataPropagationContextEEE7destroyEv', symObjAddr: 0x1B794, symBinAddr: 0xBDAD14, symSize: 0x4 }
  - { offsetInCU: 0xDE638, offset: 0x51A386, size: 0x8, addend: 0x0, symName: '__ZNSt3__110__function6__funcIZN4onnx11GetOpSchemaINS2_14Sub_Onnx_ver14EEENS2_8OpSchemaEvE3$_2NS_9allocatorIS6_EEFvRNS2_22DataPropagationContextEEE18destroy_deallocateEv', symObjAddr: 0x1B798, symBinAddr: 0xBDAD18, symSize: 0x4 }
  - { offsetInCU: 0xDE66D, offset: 0x51A3BB, size: 0x8, addend: 0x0, symName: '__ZNSt3__110__function6__funcIZN4onnx11GetOpSchemaINS2_14Sub_Onnx_ver14EEENS2_8OpSchemaEvE3$_2NS_9allocatorIS6_EEFvRNS2_22DataPropagationContextEEE18destroy_deallocateEv', symObjAddr: 0x1B798, symBinAddr: 0xBDAD18, symSize: 0x4 }
  - { offsetInCU: 0xDE68F, offset: 0x51A3DD, size: 0x8, addend: 0x0, symName: '__ZNSt3__110__function6__funcIZN4onnx11GetOpSchemaINS2_14Sub_Onnx_ver14EEENS2_8OpSchemaEvE3$_2NS_9allocatorIS6_EEFvRNS2_22DataPropagationContextEEE18destroy_deallocateEv', symObjAddr: 0x1B798, symBinAddr: 0xBDAD18, symSize: 0x4 }
  - { offsetInCU: 0xDE6BA, offset: 0x51A408, size: 0x8, addend: 0x0, symName: '__ZNSt3__110__function6__funcIZN4onnx11GetOpSchemaINS2_14Sub_Onnx_ver14EEENS2_8OpSchemaEvE3$_2NS_9allocatorIS6_EEFvRNS2_22DataPropagationContextEEE18destroy_deallocateEv', symObjAddr: 0x1B798, symBinAddr: 0xBDAD18, symSize: 0x4 }
  - { offsetInCU: 0xDE6E0, offset: 0x51A42E, size: 0x8, addend: 0x0, symName: '__ZNSt3__110__function6__funcIZN4onnx11GetOpSchemaINS2_14Sub_Onnx_ver14EEENS2_8OpSchemaEvE3$_2NS_9allocatorIS6_EEFvRNS2_22DataPropagationContextEEE18destroy_deallocateEv', symObjAddr: 0x1B798, symBinAddr: 0xBDAD18, symSize: 0x4 }
  - { offsetInCU: 0xDE78C, offset: 0x51A4DA, size: 0x8, addend: 0x0, symName: '__ZNSt3__110__function6__funcIZN4onnx11GetOpSchemaINS2_14Sub_Onnx_ver14EEENS2_8OpSchemaEvE3$_2NS_9allocatorIS6_EEFvRNS2_22DataPropagationContextEEEclESA_', symObjAddr: 0x1B79C, symBinAddr: 0xBDAD1C, symSize: 0x98 }
  - { offsetInCU: 0xDEC31, offset: 0x51A97F, size: 0x8, addend: 0x0, symName: '__ZNKSt3__110__function6__funcIZN4onnx11GetOpSchemaINS2_14Sub_Onnx_ver14EEENS2_8OpSchemaEvE3$_2NS_9allocatorIS6_EEFvRNS2_22DataPropagationContextEEE6targetERKSt9type_info', symObjAddr: 0x1B834, symBinAddr: 0xBDADB4, symSize: 0x60 }
  - { offsetInCU: 0xDECB6, offset: 0x51AA04, size: 0x8, addend: 0x0, symName: '__ZNKSt3__110__function6__funcIZN4onnx11GetOpSchemaINS2_14Sub_Onnx_ver14EEENS2_8OpSchemaEvE3$_2NS_9allocatorIS6_EEFvRNS2_22DataPropagationContextEEE11target_typeEv', symObjAddr: 0x1B894, symBinAddr: 0xBDAE14, symSize: 0xC }
  - { offsetInCU: 0xDECDB, offset: 0x51AA29, size: 0x8, addend: 0x0, symName: '__ZNSt3__110__function6__funcIZN4onnx11GetOpSchemaINS2_14Mod_Onnx_ver13EEENS2_8OpSchemaEvE3$_3NS_9allocatorIS6_EEFvRNS2_16InferenceContextEEED1Ev', symObjAddr: 0x1B8A0, symBinAddr: 0xBDAE20, symSize: 0x4 }
  - { offsetInCU: 0xDED07, offset: 0x51AA55, size: 0x8, addend: 0x0, symName: '__ZNSt3__110__function6__funcIZN4onnx11GetOpSchemaINS2_14Mod_Onnx_ver13EEENS2_8OpSchemaEvE3$_3NS_9allocatorIS6_EEFvRNS2_16InferenceContextEEED0Ev', symObjAddr: 0x1B8A4, symBinAddr: 0xBDAE24, symSize: 0x4 }
  - { offsetInCU: 0xDEDC1, offset: 0x51AB0F, size: 0x8, addend: 0x0, symName: '__ZNKSt3__110__function6__funcIZN4onnx11GetOpSchemaINS2_14Mod_Onnx_ver13EEENS2_8OpSchemaEvE3$_3NS_9allocatorIS6_EEFvRNS2_16InferenceContextEEE7__cloneEv', symObjAddr: 0x1B8A8, symBinAddr: 0xBDAE28, symSize: 0x24 }
  - { offsetInCU: 0xDEF09, offset: 0x51AC57, size: 0x8, addend: 0x0, symName: '__ZNKSt3__110__function6__funcIZN4onnx11GetOpSchemaINS2_14Mod_Onnx_ver13EEENS2_8OpSchemaEvE3$_3NS_9allocatorIS6_EEFvRNS2_16InferenceContextEEE7__cloneEPNS0_6__baseISB_EE', symObjAddr: 0x1B8CC, symBinAddr: 0xBDAE4C, symSize: 0x10 }
  - { offsetInCU: 0xDEF3F, offset: 0x51AC8D, size: 0x8, addend: 0x0, symName: '__ZNKSt3__110__function6__funcIZN4onnx11GetOpSchemaINS2_14Mod_Onnx_ver13EEENS2_8OpSchemaEvE3$_3NS_9allocatorIS6_EEFvRNS2_16InferenceContextEEE7__cloneEPNS0_6__baseISB_EE', symObjAddr: 0x1B8CC, symBinAddr: 0xBDAE4C, symSize: 0x10 }
  - { offsetInCU: 0xDEF5B, offset: 0x51ACA9, size: 0x8, addend: 0x0, symName: '__ZNKSt3__110__function6__funcIZN4onnx11GetOpSchemaINS2_14Mod_Onnx_ver13EEENS2_8OpSchemaEvE3$_3NS_9allocatorIS6_EEFvRNS2_16InferenceContextEEE7__cloneEPNS0_6__baseISB_EE', symObjAddr: 0x1B8CC, symBinAddr: 0xBDAE4C, symSize: 0x10 }
  - { offsetInCU: 0xDEF77, offset: 0x51ACC5, size: 0x8, addend: 0x0, symName: '__ZNSt3__110__function6__funcIZN4onnx11GetOpSchemaINS2_14Mod_Onnx_ver13EEENS2_8OpSchemaEvE3$_3NS_9allocatorIS6_EEFvRNS2_16InferenceContextEEE7destroyEv', symObjAddr: 0x1B8DC, symBinAddr: 0xBDAE5C, symSize: 0x4 }
  - { offsetInCU: 0xDEFC8, offset: 0x51AD16, size: 0x8, addend: 0x0, symName: '__ZNSt3__110__function6__funcIZN4onnx11GetOpSchemaINS2_14Mod_Onnx_ver13EEENS2_8OpSchemaEvE3$_3NS_9allocatorIS6_EEFvRNS2_16InferenceContextEEE18destroy_deallocateEv', symObjAddr: 0x1B8E0, symBinAddr: 0xBDAE60, symSize: 0x4 }
  - { offsetInCU: 0xDEFFD, offset: 0x51AD4B, size: 0x8, addend: 0x0, symName: '__ZNSt3__110__function6__funcIZN4onnx11GetOpSchemaINS2_14Mod_Onnx_ver13EEENS2_8OpSchemaEvE3$_3NS_9allocatorIS6_EEFvRNS2_16InferenceContextEEE18destroy_deallocateEv', symObjAddr: 0x1B8E0, symBinAddr: 0xBDAE60, symSize: 0x4 }
  - { offsetInCU: 0xDF01F, offset: 0x51AD6D, size: 0x8, addend: 0x0, symName: '__ZNSt3__110__function6__funcIZN4onnx11GetOpSchemaINS2_14Mod_Onnx_ver13EEENS2_8OpSchemaEvE3$_3NS_9allocatorIS6_EEFvRNS2_16InferenceContextEEE18destroy_deallocateEv', symObjAddr: 0x1B8E0, symBinAddr: 0xBDAE60, symSize: 0x4 }
  - { offsetInCU: 0xDF04A, offset: 0x51AD98, size: 0x8, addend: 0x0, symName: '__ZNSt3__110__function6__funcIZN4onnx11GetOpSchemaINS2_14Mod_Onnx_ver13EEENS2_8OpSchemaEvE3$_3NS_9allocatorIS6_EEFvRNS2_16InferenceContextEEE18destroy_deallocateEv', symObjAddr: 0x1B8E0, symBinAddr: 0xBDAE60, symSize: 0x4 }
  - { offsetInCU: 0xDF070, offset: 0x51ADBE, size: 0x8, addend: 0x0, symName: '__ZNSt3__110__function6__funcIZN4onnx11GetOpSchemaINS2_14Mod_Onnx_ver13EEENS2_8OpSchemaEvE3$_3NS_9allocatorIS6_EEFvRNS2_16InferenceContextEEE18destroy_deallocateEv', symObjAddr: 0x1B8E0, symBinAddr: 0xBDAE60, symSize: 0x4 }
  - { offsetInCU: 0xDF11C, offset: 0x51AE6A, size: 0x8, addend: 0x0, symName: '__ZNSt3__110__function6__funcIZN4onnx11GetOpSchemaINS2_14Mod_Onnx_ver13EEENS2_8OpSchemaEvE3$_3NS_9allocatorIS6_EEFvRNS2_16InferenceContextEEEclESA_', symObjAddr: 0x1B8E4, symBinAddr: 0xBDAE64, symSize: 0x32C }
  - { offsetInCU: 0xDFD8D, offset: 0x51BADB, size: 0x8, addend: 0x0, symName: '__ZNKSt3__110__function6__funcIZN4onnx11GetOpSchemaINS2_14Mod_Onnx_ver13EEENS2_8OpSchemaEvE3$_3NS_9allocatorIS6_EEFvRNS2_16InferenceContextEEE6targetERKSt9type_info', symObjAddr: 0x1BC10, symBinAddr: 0xBDB190, symSize: 0x60 }
  - { offsetInCU: 0xDFE12, offset: 0x51BB60, size: 0x8, addend: 0x0, symName: '__ZNKSt3__110__function6__funcIZN4onnx11GetOpSchemaINS2_14Mod_Onnx_ver13EEENS2_8OpSchemaEvE3$_3NS_9allocatorIS6_EEFvRNS2_16InferenceContextEEE11target_typeEv', symObjAddr: 0x1BC70, symBinAddr: 0xBDB1F0, symSize: 0xC }
  - { offsetInCU: 0xDFE37, offset: 0x51BB85, size: 0x8, addend: 0x0, symName: '__ZNSt3__110__function6__funcIZN4onnx11GetOpSchemaINS2_14Mul_Onnx_ver14EEENS2_8OpSchemaEvE3$_4NS_9allocatorIS6_EEFvRNS2_22DataPropagationContextEEED1Ev', symObjAddr: 0x1BC7C, symBinAddr: 0xBDB1FC, symSize: 0x4 }
  - { offsetInCU: 0xDFE63, offset: 0x51BBB1, size: 0x8, addend: 0x0, symName: '__ZNSt3__110__function6__funcIZN4onnx11GetOpSchemaINS2_14Mul_Onnx_ver14EEENS2_8OpSchemaEvE3$_4NS_9allocatorIS6_EEFvRNS2_22DataPropagationContextEEED0Ev', symObjAddr: 0x1BC80, symBinAddr: 0xBDB200, symSize: 0x4 }
  - { offsetInCU: 0xDFF1D, offset: 0x51BC6B, size: 0x8, addend: 0x0, symName: '__ZNKSt3__110__function6__funcIZN4onnx11GetOpSchemaINS2_14Mul_Onnx_ver14EEENS2_8OpSchemaEvE3$_4NS_9allocatorIS6_EEFvRNS2_22DataPropagationContextEEE7__cloneEv', symObjAddr: 0x1BC84, symBinAddr: 0xBDB204, symSize: 0x24 }
  - { offsetInCU: 0xE0065, offset: 0x51BDB3, size: 0x8, addend: 0x0, symName: '__ZNKSt3__110__function6__funcIZN4onnx11GetOpSchemaINS2_14Mul_Onnx_ver14EEENS2_8OpSchemaEvE3$_4NS_9allocatorIS6_EEFvRNS2_22DataPropagationContextEEE7__cloneEPNS0_6__baseISB_EE', symObjAddr: 0x1BCA8, symBinAddr: 0xBDB228, symSize: 0x10 }
  - { offsetInCU: 0xE009B, offset: 0x51BDE9, size: 0x8, addend: 0x0, symName: '__ZNKSt3__110__function6__funcIZN4onnx11GetOpSchemaINS2_14Mul_Onnx_ver14EEENS2_8OpSchemaEvE3$_4NS_9allocatorIS6_EEFvRNS2_22DataPropagationContextEEE7__cloneEPNS0_6__baseISB_EE', symObjAddr: 0x1BCA8, symBinAddr: 0xBDB228, symSize: 0x10 }
  - { offsetInCU: 0xE00B7, offset: 0x51BE05, size: 0x8, addend: 0x0, symName: '__ZNKSt3__110__function6__funcIZN4onnx11GetOpSchemaINS2_14Mul_Onnx_ver14EEENS2_8OpSchemaEvE3$_4NS_9allocatorIS6_EEFvRNS2_22DataPropagationContextEEE7__cloneEPNS0_6__baseISB_EE', symObjAddr: 0x1BCA8, symBinAddr: 0xBDB228, symSize: 0x10 }
  - { offsetInCU: 0xE00D3, offset: 0x51BE21, size: 0x8, addend: 0x0, symName: '__ZNSt3__110__function6__funcIZN4onnx11GetOpSchemaINS2_14Mul_Onnx_ver14EEENS2_8OpSchemaEvE3$_4NS_9allocatorIS6_EEFvRNS2_22DataPropagationContextEEE7destroyEv', symObjAddr: 0x1BCB8, symBinAddr: 0xBDB238, symSize: 0x4 }
  - { offsetInCU: 0xE0124, offset: 0x51BE72, size: 0x8, addend: 0x0, symName: '__ZNSt3__110__function6__funcIZN4onnx11GetOpSchemaINS2_14Mul_Onnx_ver14EEENS2_8OpSchemaEvE3$_4NS_9allocatorIS6_EEFvRNS2_22DataPropagationContextEEE18destroy_deallocateEv', symObjAddr: 0x1BCBC, symBinAddr: 0xBDB23C, symSize: 0x4 }
  - { offsetInCU: 0xE0159, offset: 0x51BEA7, size: 0x8, addend: 0x0, symName: '__ZNSt3__110__function6__funcIZN4onnx11GetOpSchemaINS2_14Mul_Onnx_ver14EEENS2_8OpSchemaEvE3$_4NS_9allocatorIS6_EEFvRNS2_22DataPropagationContextEEE18destroy_deallocateEv', symObjAddr: 0x1BCBC, symBinAddr: 0xBDB23C, symSize: 0x4 }
  - { offsetInCU: 0xE017B, offset: 0x51BEC9, size: 0x8, addend: 0x0, symName: '__ZNSt3__110__function6__funcIZN4onnx11GetOpSchemaINS2_14Mul_Onnx_ver14EEENS2_8OpSchemaEvE3$_4NS_9allocatorIS6_EEFvRNS2_22DataPropagationContextEEE18destroy_deallocateEv', symObjAddr: 0x1BCBC, symBinAddr: 0xBDB23C, symSize: 0x4 }
  - { offsetInCU: 0xE01A6, offset: 0x51BEF4, size: 0x8, addend: 0x0, symName: '__ZNSt3__110__function6__funcIZN4onnx11GetOpSchemaINS2_14Mul_Onnx_ver14EEENS2_8OpSchemaEvE3$_4NS_9allocatorIS6_EEFvRNS2_22DataPropagationContextEEE18destroy_deallocateEv', symObjAddr: 0x1BCBC, symBinAddr: 0xBDB23C, symSize: 0x4 }
  - { offsetInCU: 0xE01CC, offset: 0x51BF1A, size: 0x8, addend: 0x0, symName: '__ZNSt3__110__function6__funcIZN4onnx11GetOpSchemaINS2_14Mul_Onnx_ver14EEENS2_8OpSchemaEvE3$_4NS_9allocatorIS6_EEFvRNS2_22DataPropagationContextEEE18destroy_deallocateEv', symObjAddr: 0x1BCBC, symBinAddr: 0xBDB23C, symSize: 0x4 }
  - { offsetInCU: 0xE0278, offset: 0x51BFC6, size: 0x8, addend: 0x0, symName: '__ZNSt3__110__function6__funcIZN4onnx11GetOpSchemaINS2_14Mul_Onnx_ver14EEENS2_8OpSchemaEvE3$_4NS_9allocatorIS6_EEFvRNS2_22DataPropagationContextEEEclESA_', symObjAddr: 0x1BCC0, symBinAddr: 0xBDB240, symSize: 0x98 }
  - { offsetInCU: 0xE071D, offset: 0x51C46B, size: 0x8, addend: 0x0, symName: '__ZNKSt3__110__function6__funcIZN4onnx11GetOpSchemaINS2_14Mul_Onnx_ver14EEENS2_8OpSchemaEvE3$_4NS_9allocatorIS6_EEFvRNS2_22DataPropagationContextEEE6targetERKSt9type_info', symObjAddr: 0x1BD58, symBinAddr: 0xBDB2D8, symSize: 0x60 }
  - { offsetInCU: 0xE07A2, offset: 0x51C4F0, size: 0x8, addend: 0x0, symName: '__ZNKSt3__110__function6__funcIZN4onnx11GetOpSchemaINS2_14Mul_Onnx_ver14EEENS2_8OpSchemaEvE3$_4NS_9allocatorIS6_EEFvRNS2_22DataPropagationContextEEE11target_typeEv', symObjAddr: 0x1BDB8, symBinAddr: 0xBDB338, symSize: 0xC }
  - { offsetInCU: 0xE08EC, offset: 0x51C63A, size: 0x8, addend: 0x0, symName: __ZNSt3__110__function6__funcIPFbRKN4onnx24FunctionBodyBuildContextERKNS2_8OpSchemaERNS2_13FunctionProtoEENS_9allocatorISC_EESB_ED1Ev, symObjAddr: 0x1C0B4, symBinAddr: 0xBDB344, symSize: 0x4 }
  - { offsetInCU: 0xE0918, offset: 0x51C666, size: 0x8, addend: 0x0, symName: __ZNSt3__110__function6__funcIPFbRKN4onnx24FunctionBodyBuildContextERKNS2_8OpSchemaERNS2_13FunctionProtoEENS_9allocatorISC_EESB_ED0Ev, symObjAddr: 0x1C0B8, symBinAddr: 0xBDB348, symSize: 0x4 }
  - { offsetInCU: 0xE0B21, offset: 0x51C86F, size: 0x8, addend: 0x0, symName: __ZNKSt3__110__function6__funcIPFbRKN4onnx24FunctionBodyBuildContextERKNS2_8OpSchemaERNS2_13FunctionProtoEENS_9allocatorISC_EESB_E7__cloneEv, symObjAddr: 0x1C0BC, symBinAddr: 0xBDB34C, symSize: 0x34 }
  - { offsetInCU: 0xE0E18, offset: 0x51CB66, size: 0x8, addend: 0x0, symName: __ZNKSt3__110__function6__funcIPFbRKN4onnx24FunctionBodyBuildContextERKNS2_8OpSchemaERNS2_13FunctionProtoEENS_9allocatorISC_EESB_E7__cloneEPNS0_6__baseISB_EE, symObjAddr: 0x1C0F0, symBinAddr: 0xBDB380, symSize: 0x14 }
  - { offsetInCU: 0xE0E50, offset: 0x51CB9E, size: 0x8, addend: 0x0, symName: __ZNKSt3__110__function6__funcIPFbRKN4onnx24FunctionBodyBuildContextERKNS2_8OpSchemaERNS2_13FunctionProtoEENS_9allocatorISC_EESB_E7__cloneEPNS0_6__baseISB_EE, symObjAddr: 0x1C0F0, symBinAddr: 0xBDB380, symSize: 0x14 }
  - { offsetInCU: 0xE0E7E, offset: 0x51CBCC, size: 0x8, addend: 0x0, symName: __ZNKSt3__110__function6__funcIPFbRKN4onnx24FunctionBodyBuildContextERKNS2_8OpSchemaERNS2_13FunctionProtoEENS_9allocatorISC_EESB_E7__cloneEPNS0_6__baseISB_EE, symObjAddr: 0x1C0F0, symBinAddr: 0xBDB380, symSize: 0x14 }
  - { offsetInCU: 0xE0EAC, offset: 0x51CBFA, size: 0x8, addend: 0x0, symName: __ZNKSt3__110__function6__funcIPFbRKN4onnx24FunctionBodyBuildContextERKNS2_8OpSchemaERNS2_13FunctionProtoEENS_9allocatorISC_EESB_E7__cloneEPNS0_6__baseISB_EE, symObjAddr: 0x1C0F0, symBinAddr: 0xBDB380, symSize: 0x14 }
  - { offsetInCU: 0xE0EC1, offset: 0x51CC0F, size: 0x8, addend: 0x0, symName: __ZNKSt3__110__function6__funcIPFbRKN4onnx24FunctionBodyBuildContextERKNS2_8OpSchemaERNS2_13FunctionProtoEENS_9allocatorISC_EESB_E7__cloneEPNS0_6__baseISB_EE, symObjAddr: 0x1C0F0, symBinAddr: 0xBDB380, symSize: 0x14 }
  - { offsetInCU: 0xE0ED5, offset: 0x51CC23, size: 0x8, addend: 0x0, symName: __ZNKSt3__110__function6__funcIPFbRKN4onnx24FunctionBodyBuildContextERKNS2_8OpSchemaERNS2_13FunctionProtoEENS_9allocatorISC_EESB_E7__cloneEPNS0_6__baseISB_EE, symObjAddr: 0x1C0F0, symBinAddr: 0xBDB380, symSize: 0x14 }
  - { offsetInCU: 0xE0EE9, offset: 0x51CC37, size: 0x8, addend: 0x0, symName: __ZNKSt3__110__function6__funcIPFbRKN4onnx24FunctionBodyBuildContextERKNS2_8OpSchemaERNS2_13FunctionProtoEENS_9allocatorISC_EESB_E7__cloneEPNS0_6__baseISB_EE, symObjAddr: 0x1C0F0, symBinAddr: 0xBDB380, symSize: 0x14 }
  - { offsetInCU: 0xE0EFD, offset: 0x51CC4B, size: 0x8, addend: 0x0, symName: __ZNKSt3__110__function6__funcIPFbRKN4onnx24FunctionBodyBuildContextERKNS2_8OpSchemaERNS2_13FunctionProtoEENS_9allocatorISC_EESB_E7__cloneEPNS0_6__baseISB_EE, symObjAddr: 0x1C0F0, symBinAddr: 0xBDB380, symSize: 0x14 }
  - { offsetInCU: 0xE0F15, offset: 0x51CC63, size: 0x8, addend: 0x0, symName: __ZNSt3__110__function6__funcIPFbRKN4onnx24FunctionBodyBuildContextERKNS2_8OpSchemaERNS2_13FunctionProtoEENS_9allocatorISC_EESB_E7destroyEv, symObjAddr: 0x1C104, symBinAddr: 0xBDB394, symSize: 0x4 }
  - { offsetInCU: 0xE0F68, offset: 0x51CCB6, size: 0x8, addend: 0x0, symName: __ZNSt3__110__function6__funcIPFbRKN4onnx24FunctionBodyBuildContextERKNS2_8OpSchemaERNS2_13FunctionProtoEENS_9allocatorISC_EESB_E18destroy_deallocateEv, symObjAddr: 0x1C108, symBinAddr: 0xBDB398, symSize: 0x4 }
  - { offsetInCU: 0xE0F9D, offset: 0x51CCEB, size: 0x8, addend: 0x0, symName: __ZNSt3__110__function6__funcIPFbRKN4onnx24FunctionBodyBuildContextERKNS2_8OpSchemaERNS2_13FunctionProtoEENS_9allocatorISC_EESB_E18destroy_deallocateEv, symObjAddr: 0x1C108, symBinAddr: 0xBDB398, symSize: 0x4 }
  - { offsetInCU: 0xE0FBF, offset: 0x51CD0D, size: 0x8, addend: 0x0, symName: __ZNSt3__110__function6__funcIPFbRKN4onnx24FunctionBodyBuildContextERKNS2_8OpSchemaERNS2_13FunctionProtoEENS_9allocatorISC_EESB_E18destroy_deallocateEv, symObjAddr: 0x1C108, symBinAddr: 0xBDB398, symSize: 0x4 }
  - { offsetInCU: 0xE0FEA, offset: 0x51CD38, size: 0x8, addend: 0x0, symName: __ZNSt3__110__function6__funcIPFbRKN4onnx24FunctionBodyBuildContextERKNS2_8OpSchemaERNS2_13FunctionProtoEENS_9allocatorISC_EESB_E18destroy_deallocateEv, symObjAddr: 0x1C108, symBinAddr: 0xBDB398, symSize: 0x4 }
  - { offsetInCU: 0xE1010, offset: 0x51CD5E, size: 0x8, addend: 0x0, symName: __ZNSt3__110__function6__funcIPFbRKN4onnx24FunctionBodyBuildContextERKNS2_8OpSchemaERNS2_13FunctionProtoEENS_9allocatorISC_EESB_E18destroy_deallocateEv, symObjAddr: 0x1C108, symBinAddr: 0xBDB398, symSize: 0x4 }
  - { offsetInCU: 0xE10C7, offset: 0x51CE15, size: 0x8, addend: 0x0, symName: __ZNSt3__110__function6__funcIPFbRKN4onnx24FunctionBodyBuildContextERKNS2_8OpSchemaERNS2_13FunctionProtoEENS_9allocatorISC_EESB_EclES5_S8_SA_, symObjAddr: 0x1C10C, symBinAddr: 0xBDB39C, symSize: 0x14 }
  - { offsetInCU: 0xE1122, offset: 0x51CE70, size: 0x8, addend: 0x0, symName: __ZNSt3__110__function6__funcIPFbRKN4onnx24FunctionBodyBuildContextERKNS2_8OpSchemaERNS2_13FunctionProtoEENS_9allocatorISC_EESB_EclES5_S8_SA_, symObjAddr: 0x1C10C, symBinAddr: 0xBDB39C, symSize: 0x14 }
  - { offsetInCU: 0xE1159, offset: 0x51CEA7, size: 0x8, addend: 0x0, symName: __ZNSt3__110__function6__funcIPFbRKN4onnx24FunctionBodyBuildContextERKNS2_8OpSchemaERNS2_13FunctionProtoEENS_9allocatorISC_EESB_EclES5_S8_SA_, symObjAddr: 0x1C10C, symBinAddr: 0xBDB39C, symSize: 0x14 }
  - { offsetInCU: 0xE118F, offset: 0x51CEDD, size: 0x8, addend: 0x0, symName: __ZNSt3__110__function6__funcIPFbRKN4onnx24FunctionBodyBuildContextERKNS2_8OpSchemaERNS2_13FunctionProtoEENS_9allocatorISC_EESB_EclES5_S8_SA_, symObjAddr: 0x1C10C, symBinAddr: 0xBDB39C, symSize: 0x14 }
  - { offsetInCU: 0xE11E9, offset: 0x51CF37, size: 0x8, addend: 0x0, symName: __ZNKSt3__110__function6__funcIPFbRKN4onnx24FunctionBodyBuildContextERKNS2_8OpSchemaERNS2_13FunctionProtoEENS_9allocatorISC_EESB_E6targetERKSt9type_info, symObjAddr: 0x1C120, symBinAddr: 0xBDB3B0, symSize: 0x60 }
  - { offsetInCU: 0xE126E, offset: 0x51CFBC, size: 0x8, addend: 0x0, symName: __ZNKSt3__110__function6__funcIPFbRKN4onnx24FunctionBodyBuildContextERKNS2_8OpSchemaERNS2_13FunctionProtoEENS_9allocatorISC_EESB_E11target_typeEv, symObjAddr: 0x1C180, symBinAddr: 0xBDB410, symSize: 0xC }
  - { offsetInCU: 0xE1297, offset: 0x51CFE5, size: 0x8, addend: 0x0, symName: '__ZNSt3__110__function6__funcIZN4onnx11GetOpSchemaINS2_14Pow_Onnx_ver15EEENS2_8OpSchemaEvE3$_5NS_9allocatorIS6_EEFvRNS2_16InferenceContextEEED1Ev', symObjAddr: 0x1C18C, symBinAddr: 0xBDB41C, symSize: 0x4 }
  - { offsetInCU: 0xE12C3, offset: 0x51D011, size: 0x8, addend: 0x0, symName: '__ZNSt3__110__function6__funcIZN4onnx11GetOpSchemaINS2_14Pow_Onnx_ver15EEENS2_8OpSchemaEvE3$_5NS_9allocatorIS6_EEFvRNS2_16InferenceContextEEED0Ev', symObjAddr: 0x1C190, symBinAddr: 0xBDB420, symSize: 0x4 }
  - { offsetInCU: 0xE137D, offset: 0x51D0CB, size: 0x8, addend: 0x0, symName: '__ZNKSt3__110__function6__funcIZN4onnx11GetOpSchemaINS2_14Pow_Onnx_ver15EEENS2_8OpSchemaEvE3$_5NS_9allocatorIS6_EEFvRNS2_16InferenceContextEEE7__cloneEv', symObjAddr: 0x1C194, symBinAddr: 0xBDB424, symSize: 0x24 }
  - { offsetInCU: 0xE14C5, offset: 0x51D213, size: 0x8, addend: 0x0, symName: '__ZNKSt3__110__function6__funcIZN4onnx11GetOpSchemaINS2_14Pow_Onnx_ver15EEENS2_8OpSchemaEvE3$_5NS_9allocatorIS6_EEFvRNS2_16InferenceContextEEE7__cloneEPNS0_6__baseISB_EE', symObjAddr: 0x1C1B8, symBinAddr: 0xBDB448, symSize: 0x10 }
  - { offsetInCU: 0xE14FB, offset: 0x51D249, size: 0x8, addend: 0x0, symName: '__ZNKSt3__110__function6__funcIZN4onnx11GetOpSchemaINS2_14Pow_Onnx_ver15EEENS2_8OpSchemaEvE3$_5NS_9allocatorIS6_EEFvRNS2_16InferenceContextEEE7__cloneEPNS0_6__baseISB_EE', symObjAddr: 0x1C1B8, symBinAddr: 0xBDB448, symSize: 0x10 }
  - { offsetInCU: 0xE1517, offset: 0x51D265, size: 0x8, addend: 0x0, symName: '__ZNKSt3__110__function6__funcIZN4onnx11GetOpSchemaINS2_14Pow_Onnx_ver15EEENS2_8OpSchemaEvE3$_5NS_9allocatorIS6_EEFvRNS2_16InferenceContextEEE7__cloneEPNS0_6__baseISB_EE', symObjAddr: 0x1C1B8, symBinAddr: 0xBDB448, symSize: 0x10 }
  - { offsetInCU: 0xE1533, offset: 0x51D281, size: 0x8, addend: 0x0, symName: '__ZNSt3__110__function6__funcIZN4onnx11GetOpSchemaINS2_14Pow_Onnx_ver15EEENS2_8OpSchemaEvE3$_5NS_9allocatorIS6_EEFvRNS2_16InferenceContextEEE7destroyEv', symObjAddr: 0x1C1C8, symBinAddr: 0xBDB458, symSize: 0x4 }
  - { offsetInCU: 0xE1584, offset: 0x51D2D2, size: 0x8, addend: 0x0, symName: '__ZNSt3__110__function6__funcIZN4onnx11GetOpSchemaINS2_14Pow_Onnx_ver15EEENS2_8OpSchemaEvE3$_5NS_9allocatorIS6_EEFvRNS2_16InferenceContextEEE18destroy_deallocateEv', symObjAddr: 0x1C1CC, symBinAddr: 0xBDB45C, symSize: 0x4 }
  - { offsetInCU: 0xE15B9, offset: 0x51D307, size: 0x8, addend: 0x0, symName: '__ZNSt3__110__function6__funcIZN4onnx11GetOpSchemaINS2_14Pow_Onnx_ver15EEENS2_8OpSchemaEvE3$_5NS_9allocatorIS6_EEFvRNS2_16InferenceContextEEE18destroy_deallocateEv', symObjAddr: 0x1C1CC, symBinAddr: 0xBDB45C, symSize: 0x4 }
  - { offsetInCU: 0xE15DB, offset: 0x51D329, size: 0x8, addend: 0x0, symName: '__ZNSt3__110__function6__funcIZN4onnx11GetOpSchemaINS2_14Pow_Onnx_ver15EEENS2_8OpSchemaEvE3$_5NS_9allocatorIS6_EEFvRNS2_16InferenceContextEEE18destroy_deallocateEv', symObjAddr: 0x1C1CC, symBinAddr: 0xBDB45C, symSize: 0x4 }
  - { offsetInCU: 0xE1606, offset: 0x51D354, size: 0x8, addend: 0x0, symName: '__ZNSt3__110__function6__funcIZN4onnx11GetOpSchemaINS2_14Pow_Onnx_ver15EEENS2_8OpSchemaEvE3$_5NS_9allocatorIS6_EEFvRNS2_16InferenceContextEEE18destroy_deallocateEv', symObjAddr: 0x1C1CC, symBinAddr: 0xBDB45C, symSize: 0x4 }
  - { offsetInCU: 0xE162C, offset: 0x51D37A, size: 0x8, addend: 0x0, symName: '__ZNSt3__110__function6__funcIZN4onnx11GetOpSchemaINS2_14Pow_Onnx_ver15EEENS2_8OpSchemaEvE3$_5NS_9allocatorIS6_EEFvRNS2_16InferenceContextEEE18destroy_deallocateEv', symObjAddr: 0x1C1CC, symBinAddr: 0xBDB45C, symSize: 0x4 }
  - { offsetInCU: 0xE16DA, offset: 0x51D428, size: 0x8, addend: 0x0, symName: '__ZNSt3__110__function6__funcIZN4onnx11GetOpSchemaINS2_14Pow_Onnx_ver15EEENS2_8OpSchemaEvE3$_5NS_9allocatorIS6_EEFvRNS2_16InferenceContextEEEclESA_', symObjAddr: 0x1C1D0, symBinAddr: 0xBDB460, symSize: 0x32C }
  - { offsetInCU: 0xE2353, offset: 0x51E0A1, size: 0x8, addend: 0x0, symName: '__ZNKSt3__110__function6__funcIZN4onnx11GetOpSchemaINS2_14Pow_Onnx_ver15EEENS2_8OpSchemaEvE3$_5NS_9allocatorIS6_EEFvRNS2_16InferenceContextEEE6targetERKSt9type_info', symObjAddr: 0x1C4FC, symBinAddr: 0xBDB78C, symSize: 0x60 }
  - { offsetInCU: 0xE23D8, offset: 0x51E126, size: 0x8, addend: 0x0, symName: '__ZNKSt3__110__function6__funcIZN4onnx11GetOpSchemaINS2_14Pow_Onnx_ver15EEENS2_8OpSchemaEvE3$_5NS_9allocatorIS6_EEFvRNS2_16InferenceContextEEE11target_typeEv', symObjAddr: 0x1C55C, symBinAddr: 0xBDB7EC, symSize: 0xC }
  - { offsetInCU: 0xE23FD, offset: 0x51E14B, size: 0x8, addend: 0x0, symName: '__ZNSt3__110__function6__funcIZN4onnx30ElementwiseMultiOpDocGeneratorEPKcE3$_6NS_9allocatorIS5_EEFvRNS2_8OpSchemaEEED1Ev', symObjAddr: 0x1C568, symBinAddr: 0xBDB7F8, symSize: 0x4 }
  - { offsetInCU: 0xE2429, offset: 0x51E177, size: 0x8, addend: 0x0, symName: '__ZNSt3__110__function6__funcIZN4onnx30ElementwiseMultiOpDocGeneratorEPKcE3$_6NS_9allocatorIS5_EEFvRNS2_8OpSchemaEEED0Ev', symObjAddr: 0x1C56C, symBinAddr: 0xBDB7FC, symSize: 0x4 }
  - { offsetInCU: 0xE24E3, offset: 0x51E231, size: 0x8, addend: 0x0, symName: '__ZNKSt3__110__function6__funcIZN4onnx30ElementwiseMultiOpDocGeneratorEPKcE3$_6NS_9allocatorIS5_EEFvRNS2_8OpSchemaEEE7__cloneEv', symObjAddr: 0x1C570, symBinAddr: 0xBDB800, symSize: 0x34 }
  - { offsetInCU: 0xE262F, offset: 0x51E37D, size: 0x8, addend: 0x0, symName: '__ZNKSt3__110__function6__funcIZN4onnx30ElementwiseMultiOpDocGeneratorEPKcE3$_6NS_9allocatorIS5_EEFvRNS2_8OpSchemaEEE7__cloneEPNS0_6__baseISA_EE', symObjAddr: 0x1C5A4, symBinAddr: 0xBDB834, symSize: 0x14 }
  - { offsetInCU: 0xE269F, offset: 0x51E3ED, size: 0x8, addend: 0x0, symName: '__ZNSt3__110__function6__funcIZN4onnx30ElementwiseMultiOpDocGeneratorEPKcE3$_6NS_9allocatorIS5_EEFvRNS2_8OpSchemaEEE7destroyEv', symObjAddr: 0x1C5B8, symBinAddr: 0xBDB848, symSize: 0x4 }
  - { offsetInCU: 0xE26F0, offset: 0x51E43E, size: 0x8, addend: 0x0, symName: '__ZNSt3__110__function6__funcIZN4onnx30ElementwiseMultiOpDocGeneratorEPKcE3$_6NS_9allocatorIS5_EEFvRNS2_8OpSchemaEEE18destroy_deallocateEv', symObjAddr: 0x1C5BC, symBinAddr: 0xBDB84C, symSize: 0x4 }
  - { offsetInCU: 0xE2725, offset: 0x51E473, size: 0x8, addend: 0x0, symName: '__ZNSt3__110__function6__funcIZN4onnx30ElementwiseMultiOpDocGeneratorEPKcE3$_6NS_9allocatorIS5_EEFvRNS2_8OpSchemaEEE18destroy_deallocateEv', symObjAddr: 0x1C5BC, symBinAddr: 0xBDB84C, symSize: 0x4 }
  - { offsetInCU: 0xE2747, offset: 0x51E495, size: 0x8, addend: 0x0, symName: '__ZNSt3__110__function6__funcIZN4onnx30ElementwiseMultiOpDocGeneratorEPKcE3$_6NS_9allocatorIS5_EEFvRNS2_8OpSchemaEEE18destroy_deallocateEv', symObjAddr: 0x1C5BC, symBinAddr: 0xBDB84C, symSize: 0x4 }
  - { offsetInCU: 0xE2772, offset: 0x51E4C0, size: 0x8, addend: 0x0, symName: '__ZNSt3__110__function6__funcIZN4onnx30ElementwiseMultiOpDocGeneratorEPKcE3$_6NS_9allocatorIS5_EEFvRNS2_8OpSchemaEEE18destroy_deallocateEv', symObjAddr: 0x1C5BC, symBinAddr: 0xBDB84C, symSize: 0x4 }
  - { offsetInCU: 0xE2798, offset: 0x51E4E6, size: 0x8, addend: 0x0, symName: '__ZNSt3__110__function6__funcIZN4onnx30ElementwiseMultiOpDocGeneratorEPKcE3$_6NS_9allocatorIS5_EEFvRNS2_8OpSchemaEEE18destroy_deallocateEv', symObjAddr: 0x1C5BC, symBinAddr: 0xBDB84C, symSize: 0x4 }
  - { offsetInCU: 0xE2A3A, offset: 0x51E788, size: 0x8, addend: 0x0, symName: '__ZNSt3__110__function6__funcIZN4onnx30ElementwiseMultiOpDocGeneratorEPKcE3$_6NS_9allocatorIS5_EEFvRNS2_8OpSchemaEEEclES9_', symObjAddr: 0x1C5C0, symBinAddr: 0xBDB850, symSize: 0x470 }
  - { offsetInCU: 0xE4A25, offset: 0x520773, size: 0x8, addend: 0x0, symName: '__ZNKSt3__110__function6__funcIZN4onnx30ElementwiseMultiOpDocGeneratorEPKcE3$_6NS_9allocatorIS5_EEFvRNS2_8OpSchemaEEE6targetERKSt9type_info', symObjAddr: 0x1CA30, symBinAddr: 0xBDBCC0, symSize: 0x60 }
  - { offsetInCU: 0xE4AAA, offset: 0x5207F8, size: 0x8, addend: 0x0, symName: '__ZNKSt3__110__function6__funcIZN4onnx30ElementwiseMultiOpDocGeneratorEPKcE3$_6NS_9allocatorIS5_EEFvRNS2_8OpSchemaEEE11target_typeEv', symObjAddr: 0x1CA90, symBinAddr: 0xBDBD20, symSize: 0xC }
  - { offsetInCU: 0xE4ACF, offset: 0x52081D, size: 0x8, addend: 0x0, symName: '__ZNSt3__110__function6__funcIZZN4onnx30ElementwiseMultiOpDocGeneratorEPKcENK3$_6clERNS2_8OpSchemaEEUlRNS2_16InferenceContextEE_NS_9allocatorISA_EEFvS9_EED1Ev', symObjAddr: 0x1CA9C, symBinAddr: 0xBDBD2C, symSize: 0x4 }
  - { offsetInCU: 0xE4AFB, offset: 0x520849, size: 0x8, addend: 0x0, symName: '__ZNSt3__110__function6__funcIZZN4onnx30ElementwiseMultiOpDocGeneratorEPKcENK3$_6clERNS2_8OpSchemaEEUlRNS2_16InferenceContextEE_NS_9allocatorISA_EEFvS9_EED0Ev', symObjAddr: 0x1CAA0, symBinAddr: 0xBDBD30, symSize: 0x4 }
  - { offsetInCU: 0xE4BB5, offset: 0x520903, size: 0x8, addend: 0x0, symName: '__ZNKSt3__110__function6__funcIZZN4onnx30ElementwiseMultiOpDocGeneratorEPKcENK3$_6clERNS2_8OpSchemaEEUlRNS2_16InferenceContextEE_NS_9allocatorISA_EEFvS9_EE7__cloneEv', symObjAddr: 0x1CAA4, symBinAddr: 0xBDBD34, symSize: 0x24 }
  - { offsetInCU: 0xE4CFD, offset: 0x520A4B, size: 0x8, addend: 0x0, symName: '__ZNKSt3__110__function6__funcIZZN4onnx30ElementwiseMultiOpDocGeneratorEPKcENK3$_6clERNS2_8OpSchemaEEUlRNS2_16InferenceContextEE_NS_9allocatorISA_EEFvS9_EE7__cloneEPNS0_6__baseISD_EE', symObjAddr: 0x1CAC8, symBinAddr: 0xBDBD58, symSize: 0x10 }
  - { offsetInCU: 0xE4D33, offset: 0x520A81, size: 0x8, addend: 0x0, symName: '__ZNKSt3__110__function6__funcIZZN4onnx30ElementwiseMultiOpDocGeneratorEPKcENK3$_6clERNS2_8OpSchemaEEUlRNS2_16InferenceContextEE_NS_9allocatorISA_EEFvS9_EE7__cloneEPNS0_6__baseISD_EE', symObjAddr: 0x1CAC8, symBinAddr: 0xBDBD58, symSize: 0x10 }
  - { offsetInCU: 0xE4D4F, offset: 0x520A9D, size: 0x8, addend: 0x0, symName: '__ZNKSt3__110__function6__funcIZZN4onnx30ElementwiseMultiOpDocGeneratorEPKcENK3$_6clERNS2_8OpSchemaEEUlRNS2_16InferenceContextEE_NS_9allocatorISA_EEFvS9_EE7__cloneEPNS0_6__baseISD_EE', symObjAddr: 0x1CAC8, symBinAddr: 0xBDBD58, symSize: 0x10 }
  - { offsetInCU: 0xE4D6B, offset: 0x520AB9, size: 0x8, addend: 0x0, symName: '__ZNSt3__110__function6__funcIZZN4onnx30ElementwiseMultiOpDocGeneratorEPKcENK3$_6clERNS2_8OpSchemaEEUlRNS2_16InferenceContextEE_NS_9allocatorISA_EEFvS9_EE7destroyEv', symObjAddr: 0x1CAD8, symBinAddr: 0xBDBD68, symSize: 0x4 }
  - { offsetInCU: 0xE4DBC, offset: 0x520B0A, size: 0x8, addend: 0x0, symName: '__ZNSt3__110__function6__funcIZZN4onnx30ElementwiseMultiOpDocGeneratorEPKcENK3$_6clERNS2_8OpSchemaEEUlRNS2_16InferenceContextEE_NS_9allocatorISA_EEFvS9_EE18destroy_deallocateEv', symObjAddr: 0x1CADC, symBinAddr: 0xBDBD6C, symSize: 0x4 }
  - { offsetInCU: 0xE4DF1, offset: 0x520B3F, size: 0x8, addend: 0x0, symName: '__ZNSt3__110__function6__funcIZZN4onnx30ElementwiseMultiOpDocGeneratorEPKcENK3$_6clERNS2_8OpSchemaEEUlRNS2_16InferenceContextEE_NS_9allocatorISA_EEFvS9_EE18destroy_deallocateEv', symObjAddr: 0x1CADC, symBinAddr: 0xBDBD6C, symSize: 0x4 }
  - { offsetInCU: 0xE4E13, offset: 0x520B61, size: 0x8, addend: 0x0, symName: '__ZNSt3__110__function6__funcIZZN4onnx30ElementwiseMultiOpDocGeneratorEPKcENK3$_6clERNS2_8OpSchemaEEUlRNS2_16InferenceContextEE_NS_9allocatorISA_EEFvS9_EE18destroy_deallocateEv', symObjAddr: 0x1CADC, symBinAddr: 0xBDBD6C, symSize: 0x4 }
  - { offsetInCU: 0xE4E3E, offset: 0x520B8C, size: 0x8, addend: 0x0, symName: '__ZNSt3__110__function6__funcIZZN4onnx30ElementwiseMultiOpDocGeneratorEPKcENK3$_6clERNS2_8OpSchemaEEUlRNS2_16InferenceContextEE_NS_9allocatorISA_EEFvS9_EE18destroy_deallocateEv', symObjAddr: 0x1CADC, symBinAddr: 0xBDBD6C, symSize: 0x4 }
  - { offsetInCU: 0xE4E64, offset: 0x520BB2, size: 0x8, addend: 0x0, symName: '__ZNSt3__110__function6__funcIZZN4onnx30ElementwiseMultiOpDocGeneratorEPKcENK3$_6clERNS2_8OpSchemaEEUlRNS2_16InferenceContextEE_NS_9allocatorISA_EEFvS9_EE18destroy_deallocateEv', symObjAddr: 0x1CADC, symBinAddr: 0xBDBD6C, symSize: 0x4 }
  - { offsetInCU: 0xE5158, offset: 0x520EA6, size: 0x8, addend: 0x0, symName: '__ZNSt3__110__function6__funcIZZN4onnx30ElementwiseMultiOpDocGeneratorEPKcENK3$_6clERNS2_8OpSchemaEEUlRNS2_16InferenceContextEE_NS_9allocatorISA_EEFvS9_EEclES9_', symObjAddr: 0x1CAE0, symBinAddr: 0xBDBD70, symSize: 0x304 }
  - { offsetInCU: 0xE5D74, offset: 0x521AC2, size: 0x8, addend: 0x0, symName: '__ZNKSt3__110__function6__funcIZZN4onnx30ElementwiseMultiOpDocGeneratorEPKcENK3$_6clERNS2_8OpSchemaEEUlRNS2_16InferenceContextEE_NS_9allocatorISA_EEFvS9_EE6targetERKSt9type_info', symObjAddr: 0x1CDE4, symBinAddr: 0xBDC074, symSize: 0x60 }
  - { offsetInCU: 0xE5DF9, offset: 0x521B47, size: 0x8, addend: 0x0, symName: '__ZNKSt3__110__function6__funcIZZN4onnx30ElementwiseMultiOpDocGeneratorEPKcENK3$_6clERNS2_8OpSchemaEEUlRNS2_16InferenceContextEE_NS_9allocatorISA_EEFvS9_EE11target_typeEv', symObjAddr: 0x1CE44, symBinAddr: 0xBDC0D4, symSize: 0xC }
  - { offsetInCU: 0xE5E1E, offset: 0x521B6C, size: 0x8, addend: 0x0, symName: '__ZNSt3__110__function6__funcIZN4onnx25SoftmaxFamilyDocGeneratorEPKcS4_S4_E3$_7NS_9allocatorIS5_EEFvRNS2_8OpSchemaEEED1Ev', symObjAddr: 0x1CE50, symBinAddr: 0xBDC0E0, symSize: 0x4 }
  - { offsetInCU: 0xE5E4A, offset: 0x521B98, size: 0x8, addend: 0x0, symName: '__ZNSt3__110__function6__funcIZN4onnx25SoftmaxFamilyDocGeneratorEPKcS4_S4_E3$_7NS_9allocatorIS5_EEFvRNS2_8OpSchemaEEED0Ev', symObjAddr: 0x1CE54, symBinAddr: 0xBDC0E4, symSize: 0x4 }
  - { offsetInCU: 0xE602D, offset: 0x521D7B, size: 0x8, addend: 0x0, symName: '__ZNKSt3__110__function6__funcIZN4onnx25SoftmaxFamilyDocGeneratorEPKcS4_S4_E3$_7NS_9allocatorIS5_EEFvRNS2_8OpSchemaEEE7__cloneEv', symObjAddr: 0x1CE58, symBinAddr: 0xBDC0E8, symSize: 0x40 }
  - { offsetInCU: 0xE6351, offset: 0x52209F, size: 0x8, addend: 0x0, symName: '__ZNKSt3__110__function6__funcIZN4onnx25SoftmaxFamilyDocGeneratorEPKcS4_S4_E3$_7NS_9allocatorIS5_EEFvRNS2_8OpSchemaEEE7__cloneEPNS0_6__baseISA_EE', symObjAddr: 0x1CE98, symBinAddr: 0xBDC128, symSize: 0x20 }
  - { offsetInCU: 0xE6389, offset: 0x5220D7, size: 0x8, addend: 0x0, symName: '__ZNKSt3__110__function6__funcIZN4onnx25SoftmaxFamilyDocGeneratorEPKcS4_S4_E3$_7NS_9allocatorIS5_EEFvRNS2_8OpSchemaEEE7__cloneEPNS0_6__baseISA_EE', symObjAddr: 0x1CE98, symBinAddr: 0xBDC128, symSize: 0x20 }
  - { offsetInCU: 0xE63AE, offset: 0x5220FC, size: 0x8, addend: 0x0, symName: '__ZNKSt3__110__function6__funcIZN4onnx25SoftmaxFamilyDocGeneratorEPKcS4_S4_E3$_7NS_9allocatorIS5_EEFvRNS2_8OpSchemaEEE7__cloneEPNS0_6__baseISA_EE', symObjAddr: 0x1CE98, symBinAddr: 0xBDC128, symSize: 0x20 }
  - { offsetInCU: 0xE6497, offset: 0x5221E5, size: 0x8, addend: 0x0, symName: '__ZNSt3__110__function6__funcIZN4onnx25SoftmaxFamilyDocGeneratorEPKcS4_S4_E3$_7NS_9allocatorIS5_EEFvRNS2_8OpSchemaEEE7destroyEv', symObjAddr: 0x1CEB8, symBinAddr: 0xBDC148, symSize: 0x4 }
  - { offsetInCU: 0xE64E8, offset: 0x522236, size: 0x8, addend: 0x0, symName: '__ZNSt3__110__function6__funcIZN4onnx25SoftmaxFamilyDocGeneratorEPKcS4_S4_E3$_7NS_9allocatorIS5_EEFvRNS2_8OpSchemaEEE18destroy_deallocateEv', symObjAddr: 0x1CEBC, symBinAddr: 0xBDC14C, symSize: 0x4 }
  - { offsetInCU: 0xE651D, offset: 0x52226B, size: 0x8, addend: 0x0, symName: '__ZNSt3__110__function6__funcIZN4onnx25SoftmaxFamilyDocGeneratorEPKcS4_S4_E3$_7NS_9allocatorIS5_EEFvRNS2_8OpSchemaEEE18destroy_deallocateEv', symObjAddr: 0x1CEBC, symBinAddr: 0xBDC14C, symSize: 0x4 }
  - { offsetInCU: 0xE653F, offset: 0x52228D, size: 0x8, addend: 0x0, symName: '__ZNSt3__110__function6__funcIZN4onnx25SoftmaxFamilyDocGeneratorEPKcS4_S4_E3$_7NS_9allocatorIS5_EEFvRNS2_8OpSchemaEEE18destroy_deallocateEv', symObjAddr: 0x1CEBC, symBinAddr: 0xBDC14C, symSize: 0x4 }
  - { offsetInCU: 0xE656A, offset: 0x5222B8, size: 0x8, addend: 0x0, symName: '__ZNSt3__110__function6__funcIZN4onnx25SoftmaxFamilyDocGeneratorEPKcS4_S4_E3$_7NS_9allocatorIS5_EEFvRNS2_8OpSchemaEEE18destroy_deallocateEv', symObjAddr: 0x1CEBC, symBinAddr: 0xBDC14C, symSize: 0x4 }
  - { offsetInCU: 0xE6590, offset: 0x5222DE, size: 0x8, addend: 0x0, symName: '__ZNSt3__110__function6__funcIZN4onnx25SoftmaxFamilyDocGeneratorEPKcS4_S4_E3$_7NS_9allocatorIS5_EEFvRNS2_8OpSchemaEEE18destroy_deallocateEv', symObjAddr: 0x1CEBC, symBinAddr: 0xBDC14C, symSize: 0x4 }
  - { offsetInCU: 0xE680C, offset: 0x52255A, size: 0x8, addend: 0x0, symName: '__ZNSt3__110__function6__funcIZN4onnx25SoftmaxFamilyDocGeneratorEPKcS4_S4_E3$_7NS_9allocatorIS5_EEFvRNS2_8OpSchemaEEEclES9_', symObjAddr: 0x1CEC0, symBinAddr: 0xBDC150, symSize: 0x408 }
  - { offsetInCU: 0xE8034, offset: 0x523D82, size: 0x8, addend: 0x0, symName: '__ZNKSt3__110__function6__funcIZN4onnx25SoftmaxFamilyDocGeneratorEPKcS4_S4_E3$_7NS_9allocatorIS5_EEFvRNS2_8OpSchemaEEE6targetERKSt9type_info', symObjAddr: 0x1D2C8, symBinAddr: 0xBDC558, symSize: 0x60 }
  - { offsetInCU: 0xE80B9, offset: 0x523E07, size: 0x8, addend: 0x0, symName: '__ZNKSt3__110__function6__funcIZN4onnx25SoftmaxFamilyDocGeneratorEPKcS4_S4_E3$_7NS_9allocatorIS5_EEFvRNS2_8OpSchemaEEE11target_typeEv', symObjAddr: 0x1D328, symBinAddr: 0xBDC5B8, symSize: 0xC }
  - { offsetInCU: 0xE80DE, offset: 0x523E2C, size: 0x8, addend: 0x0, symName: '__ZNSt3__110__function6__funcIZZN4onnx25SoftmaxFamilyDocGeneratorEPKcS4_S4_ENK3$_7clERNS2_8OpSchemaEEUlRNS2_16InferenceContextEE_NS_9allocatorISA_EEFvS9_EED1Ev', symObjAddr: 0x1D334, symBinAddr: 0xBDC5C4, symSize: 0x4 }
  - { offsetInCU: 0xE810A, offset: 0x523E58, size: 0x8, addend: 0x0, symName: '__ZNSt3__110__function6__funcIZZN4onnx25SoftmaxFamilyDocGeneratorEPKcS4_S4_ENK3$_7clERNS2_8OpSchemaEEUlRNS2_16InferenceContextEE_NS_9allocatorISA_EEFvS9_EED0Ev', symObjAddr: 0x1D338, symBinAddr: 0xBDC5C8, symSize: 0x4 }
  - { offsetInCU: 0xE81C4, offset: 0x523F12, size: 0x8, addend: 0x0, symName: '__ZNKSt3__110__function6__funcIZZN4onnx25SoftmaxFamilyDocGeneratorEPKcS4_S4_ENK3$_7clERNS2_8OpSchemaEEUlRNS2_16InferenceContextEE_NS_9allocatorISA_EEFvS9_EE7__cloneEv', symObjAddr: 0x1D33C, symBinAddr: 0xBDC5CC, symSize: 0x24 }
  - { offsetInCU: 0xE830C, offset: 0x52405A, size: 0x8, addend: 0x0, symName: '__ZNKSt3__110__function6__funcIZZN4onnx25SoftmaxFamilyDocGeneratorEPKcS4_S4_ENK3$_7clERNS2_8OpSchemaEEUlRNS2_16InferenceContextEE_NS_9allocatorISA_EEFvS9_EE7__cloneEPNS0_6__baseISD_EE', symObjAddr: 0x1D360, symBinAddr: 0xBDC5F0, symSize: 0x10 }
  - { offsetInCU: 0xE8342, offset: 0x524090, size: 0x8, addend: 0x0, symName: '__ZNKSt3__110__function6__funcIZZN4onnx25SoftmaxFamilyDocGeneratorEPKcS4_S4_ENK3$_7clERNS2_8OpSchemaEEUlRNS2_16InferenceContextEE_NS_9allocatorISA_EEFvS9_EE7__cloneEPNS0_6__baseISD_EE', symObjAddr: 0x1D360, symBinAddr: 0xBDC5F0, symSize: 0x10 }
  - { offsetInCU: 0xE835E, offset: 0x5240AC, size: 0x8, addend: 0x0, symName: '__ZNKSt3__110__function6__funcIZZN4onnx25SoftmaxFamilyDocGeneratorEPKcS4_S4_ENK3$_7clERNS2_8OpSchemaEEUlRNS2_16InferenceContextEE_NS_9allocatorISA_EEFvS9_EE7__cloneEPNS0_6__baseISD_EE', symObjAddr: 0x1D360, symBinAddr: 0xBDC5F0, symSize: 0x10 }
  - { offsetInCU: 0xE837A, offset: 0x5240C8, size: 0x8, addend: 0x0, symName: '__ZNSt3__110__function6__funcIZZN4onnx25SoftmaxFamilyDocGeneratorEPKcS4_S4_ENK3$_7clERNS2_8OpSchemaEEUlRNS2_16InferenceContextEE_NS_9allocatorISA_EEFvS9_EE7destroyEv', symObjAddr: 0x1D370, symBinAddr: 0xBDC600, symSize: 0x4 }
  - { offsetInCU: 0xE83CB, offset: 0x524119, size: 0x8, addend: 0x0, symName: '__ZNSt3__110__function6__funcIZZN4onnx25SoftmaxFamilyDocGeneratorEPKcS4_S4_ENK3$_7clERNS2_8OpSchemaEEUlRNS2_16InferenceContextEE_NS_9allocatorISA_EEFvS9_EE18destroy_deallocateEv', symObjAddr: 0x1D374, symBinAddr: 0xBDC604, symSize: 0x4 }
  - { offsetInCU: 0xE8400, offset: 0x52414E, size: 0x8, addend: 0x0, symName: '__ZNSt3__110__function6__funcIZZN4onnx25SoftmaxFamilyDocGeneratorEPKcS4_S4_ENK3$_7clERNS2_8OpSchemaEEUlRNS2_16InferenceContextEE_NS_9allocatorISA_EEFvS9_EE18destroy_deallocateEv', symObjAddr: 0x1D374, symBinAddr: 0xBDC604, symSize: 0x4 }
  - { offsetInCU: 0xE8422, offset: 0x524170, size: 0x8, addend: 0x0, symName: '__ZNSt3__110__function6__funcIZZN4onnx25SoftmaxFamilyDocGeneratorEPKcS4_S4_ENK3$_7clERNS2_8OpSchemaEEUlRNS2_16InferenceContextEE_NS_9allocatorISA_EEFvS9_EE18destroy_deallocateEv', symObjAddr: 0x1D374, symBinAddr: 0xBDC604, symSize: 0x4 }
  - { offsetInCU: 0xE844D, offset: 0x52419B, size: 0x8, addend: 0x0, symName: '__ZNSt3__110__function6__funcIZZN4onnx25SoftmaxFamilyDocGeneratorEPKcS4_S4_ENK3$_7clERNS2_8OpSchemaEEUlRNS2_16InferenceContextEE_NS_9allocatorISA_EEFvS9_EE18destroy_deallocateEv', symObjAddr: 0x1D374, symBinAddr: 0xBDC604, symSize: 0x4 }
  - { offsetInCU: 0xE8473, offset: 0x5241C1, size: 0x8, addend: 0x0, symName: '__ZNSt3__110__function6__funcIZZN4onnx25SoftmaxFamilyDocGeneratorEPKcS4_S4_ENK3$_7clERNS2_8OpSchemaEEUlRNS2_16InferenceContextEE_NS_9allocatorISA_EEFvS9_EE18destroy_deallocateEv', symObjAddr: 0x1D374, symBinAddr: 0xBDC604, symSize: 0x4 }
  - { offsetInCU: 0xE8545, offset: 0x524293, size: 0x8, addend: 0x0, symName: '__ZNSt3__110__function6__funcIZZN4onnx25SoftmaxFamilyDocGeneratorEPKcS4_S4_ENK3$_7clERNS2_8OpSchemaEEUlRNS2_16InferenceContextEE_NS_9allocatorISA_EEFvS9_EEclES9_', symObjAddr: 0x1D378, symBinAddr: 0xBDC608, symSize: 0x2CC }
  - { offsetInCU: 0xE8F72, offset: 0x524CC0, size: 0x8, addend: 0x0, symName: '__ZNKSt3__110__function6__funcIZZN4onnx25SoftmaxFamilyDocGeneratorEPKcS4_S4_ENK3$_7clERNS2_8OpSchemaEEUlRNS2_16InferenceContextEE_NS_9allocatorISA_EEFvS9_EE6targetERKSt9type_info', symObjAddr: 0x1D644, symBinAddr: 0xBDC8D4, symSize: 0x60 }
  - { offsetInCU: 0xE8FF7, offset: 0x524D45, size: 0x8, addend: 0x0, symName: '__ZNKSt3__110__function6__funcIZZN4onnx25SoftmaxFamilyDocGeneratorEPKcS4_S4_ENK3$_7clERNS2_8OpSchemaEEUlRNS2_16InferenceContextEE_NS_9allocatorISA_EEFvS9_EE11target_typeEv', symObjAddr: 0x1D6A4, symBinAddr: 0xBDC934, symSize: 0xC }
  - { offsetInCU: 0xE9067, offset: 0x524DB5, size: 0x8, addend: 0x0, symName: '__ZNSt3__110__function6__funcIZN4onnx11GetOpSchemaINS2_18Softmax_Onnx_ver13EEENS2_8OpSchemaEvE3$_8NS_9allocatorIS6_EEFbRKNS2_24FunctionBodyBuildContextERKS5_RNS2_13FunctionProtoEEED1Ev', symObjAddr: 0x1D900, symBinAddr: 0xBDC940, symSize: 0x4 }
  - { offsetInCU: 0xE9093, offset: 0x524DE1, size: 0x8, addend: 0x0, symName: '__ZNSt3__110__function6__funcIZN4onnx11GetOpSchemaINS2_18Softmax_Onnx_ver13EEENS2_8OpSchemaEvE3$_8NS_9allocatorIS6_EEFbRKNS2_24FunctionBodyBuildContextERKS5_RNS2_13FunctionProtoEEED0Ev', symObjAddr: 0x1D904, symBinAddr: 0xBDC944, symSize: 0x4 }
  - { offsetInCU: 0xE914D, offset: 0x524E9B, size: 0x8, addend: 0x0, symName: '__ZNKSt3__110__function6__funcIZN4onnx11GetOpSchemaINS2_18Softmax_Onnx_ver13EEENS2_8OpSchemaEvE3$_8NS_9allocatorIS6_EEFbRKNS2_24FunctionBodyBuildContextERKS5_RNS2_13FunctionProtoEEE7__cloneEv', symObjAddr: 0x1D908, symBinAddr: 0xBDC948, symSize: 0x24 }
  - { offsetInCU: 0xE9295, offset: 0x524FE3, size: 0x8, addend: 0x0, symName: '__ZNKSt3__110__function6__funcIZN4onnx11GetOpSchemaINS2_18Softmax_Onnx_ver13EEENS2_8OpSchemaEvE3$_8NS_9allocatorIS6_EEFbRKNS2_24FunctionBodyBuildContextERKS5_RNS2_13FunctionProtoEEE7__cloneEPNS0_6__baseISG_EE', symObjAddr: 0x1D92C, symBinAddr: 0xBDC96C, symSize: 0x10 }
  - { offsetInCU: 0xE92CB, offset: 0x525019, size: 0x8, addend: 0x0, symName: '__ZNKSt3__110__function6__funcIZN4onnx11GetOpSchemaINS2_18Softmax_Onnx_ver13EEENS2_8OpSchemaEvE3$_8NS_9allocatorIS6_EEFbRKNS2_24FunctionBodyBuildContextERKS5_RNS2_13FunctionProtoEEE7__cloneEPNS0_6__baseISG_EE', symObjAddr: 0x1D92C, symBinAddr: 0xBDC96C, symSize: 0x10 }
  - { offsetInCU: 0xE92E7, offset: 0x525035, size: 0x8, addend: 0x0, symName: '__ZNKSt3__110__function6__funcIZN4onnx11GetOpSchemaINS2_18Softmax_Onnx_ver13EEENS2_8OpSchemaEvE3$_8NS_9allocatorIS6_EEFbRKNS2_24FunctionBodyBuildContextERKS5_RNS2_13FunctionProtoEEE7__cloneEPNS0_6__baseISG_EE', symObjAddr: 0x1D92C, symBinAddr: 0xBDC96C, symSize: 0x10 }
  - { offsetInCU: 0xE9303, offset: 0x525051, size: 0x8, addend: 0x0, symName: '__ZNSt3__110__function6__funcIZN4onnx11GetOpSchemaINS2_18Softmax_Onnx_ver13EEENS2_8OpSchemaEvE3$_8NS_9allocatorIS6_EEFbRKNS2_24FunctionBodyBuildContextERKS5_RNS2_13FunctionProtoEEE7destroyEv', symObjAddr: 0x1D93C, symBinAddr: 0xBDC97C, symSize: 0x4 }
  - { offsetInCU: 0xE9354, offset: 0x5250A2, size: 0x8, addend: 0x0, symName: '__ZNSt3__110__function6__funcIZN4onnx11GetOpSchemaINS2_18Softmax_Onnx_ver13EEENS2_8OpSchemaEvE3$_8NS_9allocatorIS6_EEFbRKNS2_24FunctionBodyBuildContextERKS5_RNS2_13FunctionProtoEEE18destroy_deallocateEv', symObjAddr: 0x1D940, symBinAddr: 0xBDC980, symSize: 0x4 }
  - { offsetInCU: 0xE9389, offset: 0x5250D7, size: 0x8, addend: 0x0, symName: '__ZNSt3__110__function6__funcIZN4onnx11GetOpSchemaINS2_18Softmax_Onnx_ver13EEENS2_8OpSchemaEvE3$_8NS_9allocatorIS6_EEFbRKNS2_24FunctionBodyBuildContextERKS5_RNS2_13FunctionProtoEEE18destroy_deallocateEv', symObjAddr: 0x1D940, symBinAddr: 0xBDC980, symSize: 0x4 }
  - { offsetInCU: 0xE93AB, offset: 0x5250F9, size: 0x8, addend: 0x0, symName: '__ZNSt3__110__function6__funcIZN4onnx11GetOpSchemaINS2_18Softmax_Onnx_ver13EEENS2_8OpSchemaEvE3$_8NS_9allocatorIS6_EEFbRKNS2_24FunctionBodyBuildContextERKS5_RNS2_13FunctionProtoEEE18destroy_deallocateEv', symObjAddr: 0x1D940, symBinAddr: 0xBDC980, symSize: 0x4 }
  - { offsetInCU: 0xE93D6, offset: 0x525124, size: 0x8, addend: 0x0, symName: '__ZNSt3__110__function6__funcIZN4onnx11GetOpSchemaINS2_18Softmax_Onnx_ver13EEENS2_8OpSchemaEvE3$_8NS_9allocatorIS6_EEFbRKNS2_24FunctionBodyBuildContextERKS5_RNS2_13FunctionProtoEEE18destroy_deallocateEv', symObjAddr: 0x1D940, symBinAddr: 0xBDC980, symSize: 0x4 }
  - { offsetInCU: 0xE93FC, offset: 0x52514A, size: 0x8, addend: 0x0, symName: '__ZNSt3__110__function6__funcIZN4onnx11GetOpSchemaINS2_18Softmax_Onnx_ver13EEENS2_8OpSchemaEvE3$_8NS_9allocatorIS6_EEFbRKNS2_24FunctionBodyBuildContextERKS5_RNS2_13FunctionProtoEEE18destroy_deallocateEv', symObjAddr: 0x1D940, symBinAddr: 0xBDC980, symSize: 0x4 }
  - { offsetInCU: 0xE9551, offset: 0x52529F, size: 0x8, addend: 0x0, symName: '__ZNSt3__110__function6__funcIZN4onnx11GetOpSchemaINS2_18Softmax_Onnx_ver13EEENS2_8OpSchemaEvE3$_8NS_9allocatorIS6_EEFbRKNS2_24FunctionBodyBuildContextERKS5_RNS2_13FunctionProtoEEEclESB_SD_SF_', symObjAddr: 0x1D944, symBinAddr: 0xBDC984, symSize: 0x280 }
  - { offsetInCU: 0xEAC15, offset: 0x526963, size: 0x8, addend: 0x0, symName: '__ZNKSt3__110__function6__funcIZN4onnx11GetOpSchemaINS2_18Softmax_Onnx_ver13EEENS2_8OpSchemaEvE3$_8NS_9allocatorIS6_EEFbRKNS2_24FunctionBodyBuildContextERKS5_RNS2_13FunctionProtoEEE6targetERKSt9type_info', symObjAddr: 0x1DBC4, symBinAddr: 0xBDCC04, symSize: 0x60 }
  - { offsetInCU: 0xEAC9A, offset: 0x5269E8, size: 0x8, addend: 0x0, symName: '__ZNKSt3__110__function6__funcIZN4onnx11GetOpSchemaINS2_18Softmax_Onnx_ver13EEENS2_8OpSchemaEvE3$_8NS_9allocatorIS6_EEFbRKNS2_24FunctionBodyBuildContextERKS5_RNS2_13FunctionProtoEEE11target_typeEv', symObjAddr: 0x1DC24, symBinAddr: 0xBDCC64, symSize: 0xC }
  - { offsetInCU: 0xEACBF, offset: 0x526A0D, size: 0x8, addend: 0x0, symName: '__ZNSt3__110__function6__funcIZN4onnx11GetOpSchemaINS2_18Softmax_Onnx_ver13EEENS2_8OpSchemaEvE3$_9NS_9allocatorIS6_EEFbRKNS2_24FunctionBodyBuildContextERKS5_RNS2_13FunctionProtoEEED1Ev', symObjAddr: 0x1DC30, symBinAddr: 0xBDCC70, symSize: 0x4 }
  - { offsetInCU: 0xEACEB, offset: 0x526A39, size: 0x8, addend: 0x0, symName: '__ZNSt3__110__function6__funcIZN4onnx11GetOpSchemaINS2_18Softmax_Onnx_ver13EEENS2_8OpSchemaEvE3$_9NS_9allocatorIS6_EEFbRKNS2_24FunctionBodyBuildContextERKS5_RNS2_13FunctionProtoEEED0Ev', symObjAddr: 0x1DC34, symBinAddr: 0xBDCC74, symSize: 0x4 }
  - { offsetInCU: 0xEADA5, offset: 0x526AF3, size: 0x8, addend: 0x0, symName: '__ZNKSt3__110__function6__funcIZN4onnx11GetOpSchemaINS2_18Softmax_Onnx_ver13EEENS2_8OpSchemaEvE3$_9NS_9allocatorIS6_EEFbRKNS2_24FunctionBodyBuildContextERKS5_RNS2_13FunctionProtoEEE7__cloneEv', symObjAddr: 0x1DC38, symBinAddr: 0xBDCC78, symSize: 0x24 }
  - { offsetInCU: 0xEAEED, offset: 0x526C3B, size: 0x8, addend: 0x0, symName: '__ZNKSt3__110__function6__funcIZN4onnx11GetOpSchemaINS2_18Softmax_Onnx_ver13EEENS2_8OpSchemaEvE3$_9NS_9allocatorIS6_EEFbRKNS2_24FunctionBodyBuildContextERKS5_RNS2_13FunctionProtoEEE7__cloneEPNS0_6__baseISG_EE', symObjAddr: 0x1DC5C, symBinAddr: 0xBDCC9C, symSize: 0x10 }
  - { offsetInCU: 0xEAF23, offset: 0x526C71, size: 0x8, addend: 0x0, symName: '__ZNKSt3__110__function6__funcIZN4onnx11GetOpSchemaINS2_18Softmax_Onnx_ver13EEENS2_8OpSchemaEvE3$_9NS_9allocatorIS6_EEFbRKNS2_24FunctionBodyBuildContextERKS5_RNS2_13FunctionProtoEEE7__cloneEPNS0_6__baseISG_EE', symObjAddr: 0x1DC5C, symBinAddr: 0xBDCC9C, symSize: 0x10 }
  - { offsetInCU: 0xEAF3F, offset: 0x526C8D, size: 0x8, addend: 0x0, symName: '__ZNKSt3__110__function6__funcIZN4onnx11GetOpSchemaINS2_18Softmax_Onnx_ver13EEENS2_8OpSchemaEvE3$_9NS_9allocatorIS6_EEFbRKNS2_24FunctionBodyBuildContextERKS5_RNS2_13FunctionProtoEEE7__cloneEPNS0_6__baseISG_EE', symObjAddr: 0x1DC5C, symBinAddr: 0xBDCC9C, symSize: 0x10 }
  - { offsetInCU: 0xEAF5B, offset: 0x526CA9, size: 0x8, addend: 0x0, symName: '__ZNSt3__110__function6__funcIZN4onnx11GetOpSchemaINS2_18Softmax_Onnx_ver13EEENS2_8OpSchemaEvE3$_9NS_9allocatorIS6_EEFbRKNS2_24FunctionBodyBuildContextERKS5_RNS2_13FunctionProtoEEE7destroyEv', symObjAddr: 0x1DC6C, symBinAddr: 0xBDCCAC, symSize: 0x4 }
  - { offsetInCU: 0xEAFAC, offset: 0x526CFA, size: 0x8, addend: 0x0, symName: '__ZNSt3__110__function6__funcIZN4onnx11GetOpSchemaINS2_18Softmax_Onnx_ver13EEENS2_8OpSchemaEvE3$_9NS_9allocatorIS6_EEFbRKNS2_24FunctionBodyBuildContextERKS5_RNS2_13FunctionProtoEEE18destroy_deallocateEv', symObjAddr: 0x1DC70, symBinAddr: 0xBDCCB0, symSize: 0x4 }
  - { offsetInCU: 0xEAFE1, offset: 0x526D2F, size: 0x8, addend: 0x0, symName: '__ZNSt3__110__function6__funcIZN4onnx11GetOpSchemaINS2_18Softmax_Onnx_ver13EEENS2_8OpSchemaEvE3$_9NS_9allocatorIS6_EEFbRKNS2_24FunctionBodyBuildContextERKS5_RNS2_13FunctionProtoEEE18destroy_deallocateEv', symObjAddr: 0x1DC70, symBinAddr: 0xBDCCB0, symSize: 0x4 }
  - { offsetInCU: 0xEB003, offset: 0x526D51, size: 0x8, addend: 0x0, symName: '__ZNSt3__110__function6__funcIZN4onnx11GetOpSchemaINS2_18Softmax_Onnx_ver13EEENS2_8OpSchemaEvE3$_9NS_9allocatorIS6_EEFbRKNS2_24FunctionBodyBuildContextERKS5_RNS2_13FunctionProtoEEE18destroy_deallocateEv', symObjAddr: 0x1DC70, symBinAddr: 0xBDCCB0, symSize: 0x4 }
  - { offsetInCU: 0xEB02E, offset: 0x526D7C, size: 0x8, addend: 0x0, symName: '__ZNSt3__110__function6__funcIZN4onnx11GetOpSchemaINS2_18Softmax_Onnx_ver13EEENS2_8OpSchemaEvE3$_9NS_9allocatorIS6_EEFbRKNS2_24FunctionBodyBuildContextERKS5_RNS2_13FunctionProtoEEE18destroy_deallocateEv', symObjAddr: 0x1DC70, symBinAddr: 0xBDCCB0, symSize: 0x4 }
  - { offsetInCU: 0xEB054, offset: 0x526DA2, size: 0x8, addend: 0x0, symName: '__ZNSt3__110__function6__funcIZN4onnx11GetOpSchemaINS2_18Softmax_Onnx_ver13EEENS2_8OpSchemaEvE3$_9NS_9allocatorIS6_EEFbRKNS2_24FunctionBodyBuildContextERKS5_RNS2_13FunctionProtoEEE18destroy_deallocateEv', symObjAddr: 0x1DC70, symBinAddr: 0xBDCCB0, symSize: 0x4 }
  - { offsetInCU: 0xEB169, offset: 0x526EB7, size: 0x8, addend: 0x0, symName: '__ZNSt3__110__function6__funcIZN4onnx11GetOpSchemaINS2_18Softmax_Onnx_ver13EEENS2_8OpSchemaEvE3$_9NS_9allocatorIS6_EEFbRKNS2_24FunctionBodyBuildContextERKS5_RNS2_13FunctionProtoEEEclESB_SD_SF_', symObjAddr: 0x1DC74, symBinAddr: 0xBDCCB4, symSize: 0x198 }
  - { offsetInCU: 0xEBD7F, offset: 0x527ACD, size: 0x8, addend: 0x0, symName: '__ZNKSt3__110__function6__funcIZN4onnx11GetOpSchemaINS2_18Softmax_Onnx_ver13EEENS2_8OpSchemaEvE3$_9NS_9allocatorIS6_EEFbRKNS2_24FunctionBodyBuildContextERKS5_RNS2_13FunctionProtoEEE6targetERKSt9type_info', symObjAddr: 0x1DE0C, symBinAddr: 0xBDCE4C, symSize: 0x60 }
  - { offsetInCU: 0xEBE04, offset: 0x527B52, size: 0x8, addend: 0x0, symName: '__ZNKSt3__110__function6__funcIZN4onnx11GetOpSchemaINS2_18Softmax_Onnx_ver13EEENS2_8OpSchemaEvE3$_9NS_9allocatorIS6_EEFbRKNS2_24FunctionBodyBuildContextERKS5_RNS2_13FunctionProtoEEE11target_typeEv', symObjAddr: 0x1DE6C, symBinAddr: 0xBDCEAC, symSize: 0xC }
  - { offsetInCU: 0xEBE29, offset: 0x527B77, size: 0x8, addend: 0x0, symName: '__ZNSt3__110__function6__funcIZN4onnx11GetOpSchemaINS2_21LogSoftmax_Onnx_ver13EEENS2_8OpSchemaEvE4$_10NS_9allocatorIS6_EEFbRKNS2_24FunctionBodyBuildContextERKS5_RNS2_13FunctionProtoEEED1Ev', symObjAddr: 0x1DE78, symBinAddr: 0xBDCEB8, symSize: 0x4 }
  - { offsetInCU: 0xEBE55, offset: 0x527BA3, size: 0x8, addend: 0x0, symName: '__ZNSt3__110__function6__funcIZN4onnx11GetOpSchemaINS2_21LogSoftmax_Onnx_ver13EEENS2_8OpSchemaEvE4$_10NS_9allocatorIS6_EEFbRKNS2_24FunctionBodyBuildContextERKS5_RNS2_13FunctionProtoEEED0Ev', symObjAddr: 0x1DE7C, symBinAddr: 0xBDCEBC, symSize: 0x4 }
  - { offsetInCU: 0xEBF0F, offset: 0x527C5D, size: 0x8, addend: 0x0, symName: '__ZNKSt3__110__function6__funcIZN4onnx11GetOpSchemaINS2_21LogSoftmax_Onnx_ver13EEENS2_8OpSchemaEvE4$_10NS_9allocatorIS6_EEFbRKNS2_24FunctionBodyBuildContextERKS5_RNS2_13FunctionProtoEEE7__cloneEv', symObjAddr: 0x1DE80, symBinAddr: 0xBDCEC0, symSize: 0x24 }
  - { offsetInCU: 0xEC057, offset: 0x527DA5, size: 0x8, addend: 0x0, symName: '__ZNKSt3__110__function6__funcIZN4onnx11GetOpSchemaINS2_21LogSoftmax_Onnx_ver13EEENS2_8OpSchemaEvE4$_10NS_9allocatorIS6_EEFbRKNS2_24FunctionBodyBuildContextERKS5_RNS2_13FunctionProtoEEE7__cloneEPNS0_6__baseISG_EE', symObjAddr: 0x1DEA4, symBinAddr: 0xBDCEE4, symSize: 0x10 }
  - { offsetInCU: 0xEC08D, offset: 0x527DDB, size: 0x8, addend: 0x0, symName: '__ZNKSt3__110__function6__funcIZN4onnx11GetOpSchemaINS2_21LogSoftmax_Onnx_ver13EEENS2_8OpSchemaEvE4$_10NS_9allocatorIS6_EEFbRKNS2_24FunctionBodyBuildContextERKS5_RNS2_13FunctionProtoEEE7__cloneEPNS0_6__baseISG_EE', symObjAddr: 0x1DEA4, symBinAddr: 0xBDCEE4, symSize: 0x10 }
  - { offsetInCU: 0xEC0A9, offset: 0x527DF7, size: 0x8, addend: 0x0, symName: '__ZNKSt3__110__function6__funcIZN4onnx11GetOpSchemaINS2_21LogSoftmax_Onnx_ver13EEENS2_8OpSchemaEvE4$_10NS_9allocatorIS6_EEFbRKNS2_24FunctionBodyBuildContextERKS5_RNS2_13FunctionProtoEEE7__cloneEPNS0_6__baseISG_EE', symObjAddr: 0x1DEA4, symBinAddr: 0xBDCEE4, symSize: 0x10 }
  - { offsetInCU: 0xEC0C5, offset: 0x527E13, size: 0x8, addend: 0x0, symName: '__ZNSt3__110__function6__funcIZN4onnx11GetOpSchemaINS2_21LogSoftmax_Onnx_ver13EEENS2_8OpSchemaEvE4$_10NS_9allocatorIS6_EEFbRKNS2_24FunctionBodyBuildContextERKS5_RNS2_13FunctionProtoEEE7destroyEv', symObjAddr: 0x1DEB4, symBinAddr: 0xBDCEF4, symSize: 0x4 }
  - { offsetInCU: 0xEC116, offset: 0x527E64, size: 0x8, addend: 0x0, symName: '__ZNSt3__110__function6__funcIZN4onnx11GetOpSchemaINS2_21LogSoftmax_Onnx_ver13EEENS2_8OpSchemaEvE4$_10NS_9allocatorIS6_EEFbRKNS2_24FunctionBodyBuildContextERKS5_RNS2_13FunctionProtoEEE18destroy_deallocateEv', symObjAddr: 0x1DEB8, symBinAddr: 0xBDCEF8, symSize: 0x4 }
  - { offsetInCU: 0xEC14B, offset: 0x527E99, size: 0x8, addend: 0x0, symName: '__ZNSt3__110__function6__funcIZN4onnx11GetOpSchemaINS2_21LogSoftmax_Onnx_ver13EEENS2_8OpSchemaEvE4$_10NS_9allocatorIS6_EEFbRKNS2_24FunctionBodyBuildContextERKS5_RNS2_13FunctionProtoEEE18destroy_deallocateEv', symObjAddr: 0x1DEB8, symBinAddr: 0xBDCEF8, symSize: 0x4 }
  - { offsetInCU: 0xEC16D, offset: 0x527EBB, size: 0x8, addend: 0x0, symName: '__ZNSt3__110__function6__funcIZN4onnx11GetOpSchemaINS2_21LogSoftmax_Onnx_ver13EEENS2_8OpSchemaEvE4$_10NS_9allocatorIS6_EEFbRKNS2_24FunctionBodyBuildContextERKS5_RNS2_13FunctionProtoEEE18destroy_deallocateEv', symObjAddr: 0x1DEB8, symBinAddr: 0xBDCEF8, symSize: 0x4 }
  - { offsetInCU: 0xEC198, offset: 0x527EE6, size: 0x8, addend: 0x0, symName: '__ZNSt3__110__function6__funcIZN4onnx11GetOpSchemaINS2_21LogSoftmax_Onnx_ver13EEENS2_8OpSchemaEvE4$_10NS_9allocatorIS6_EEFbRKNS2_24FunctionBodyBuildContextERKS5_RNS2_13FunctionProtoEEE18destroy_deallocateEv', symObjAddr: 0x1DEB8, symBinAddr: 0xBDCEF8, symSize: 0x4 }
  - { offsetInCU: 0xEC1BE, offset: 0x527F0C, size: 0x8, addend: 0x0, symName: '__ZNSt3__110__function6__funcIZN4onnx11GetOpSchemaINS2_21LogSoftmax_Onnx_ver13EEENS2_8OpSchemaEvE4$_10NS_9allocatorIS6_EEFbRKNS2_24FunctionBodyBuildContextERKS5_RNS2_13FunctionProtoEEE18destroy_deallocateEv', symObjAddr: 0x1DEB8, symBinAddr: 0xBDCEF8, symSize: 0x4 }
  - { offsetInCU: 0xEC2D3, offset: 0x528021, size: 0x8, addend: 0x0, symName: '__ZNSt3__110__function6__funcIZN4onnx11GetOpSchemaINS2_21LogSoftmax_Onnx_ver13EEENS2_8OpSchemaEvE4$_10NS_9allocatorIS6_EEFbRKNS2_24FunctionBodyBuildContextERKS5_RNS2_13FunctionProtoEEEclESB_SD_SF_', symObjAddr: 0x1DEBC, symBinAddr: 0xBDCEFC, symSize: 0x280 }
  - { offsetInCU: 0xED997, offset: 0x5296E5, size: 0x8, addend: 0x0, symName: '__ZNKSt3__110__function6__funcIZN4onnx11GetOpSchemaINS2_21LogSoftmax_Onnx_ver13EEENS2_8OpSchemaEvE4$_10NS_9allocatorIS6_EEFbRKNS2_24FunctionBodyBuildContextERKS5_RNS2_13FunctionProtoEEE6targetERKSt9type_info', symObjAddr: 0x1E13C, symBinAddr: 0xBDD17C, symSize: 0x60 }
  - { offsetInCU: 0xEDA1C, offset: 0x52976A, size: 0x8, addend: 0x0, symName: '__ZNKSt3__110__function6__funcIZN4onnx11GetOpSchemaINS2_21LogSoftmax_Onnx_ver13EEENS2_8OpSchemaEvE4$_10NS_9allocatorIS6_EEFbRKNS2_24FunctionBodyBuildContextERKS5_RNS2_13FunctionProtoEEE11target_typeEv', symObjAddr: 0x1E19C, symBinAddr: 0xBDD1DC, symSize: 0xC }
  - { offsetInCU: 0xEDA41, offset: 0x52978F, size: 0x8, addend: 0x0, symName: '__ZNSt3__110__function6__funcIZN4onnx11GetOpSchemaINS2_21LogSoftmax_Onnx_ver13EEENS2_8OpSchemaEvE4$_11NS_9allocatorIS6_EEFbRKNS2_24FunctionBodyBuildContextERKS5_RNS2_13FunctionProtoEEED1Ev', symObjAddr: 0x1E1A8, symBinAddr: 0xBDD1E8, symSize: 0x4 }
  - { offsetInCU: 0xEDA6D, offset: 0x5297BB, size: 0x8, addend: 0x0, symName: '__ZNSt3__110__function6__funcIZN4onnx11GetOpSchemaINS2_21LogSoftmax_Onnx_ver13EEENS2_8OpSchemaEvE4$_11NS_9allocatorIS6_EEFbRKNS2_24FunctionBodyBuildContextERKS5_RNS2_13FunctionProtoEEED0Ev', symObjAddr: 0x1E1AC, symBinAddr: 0xBDD1EC, symSize: 0x4 }
  - { offsetInCU: 0xEDB27, offset: 0x529875, size: 0x8, addend: 0x0, symName: '__ZNKSt3__110__function6__funcIZN4onnx11GetOpSchemaINS2_21LogSoftmax_Onnx_ver13EEENS2_8OpSchemaEvE4$_11NS_9allocatorIS6_EEFbRKNS2_24FunctionBodyBuildContextERKS5_RNS2_13FunctionProtoEEE7__cloneEv', symObjAddr: 0x1E1B0, symBinAddr: 0xBDD1F0, symSize: 0x24 }
  - { offsetInCU: 0xEDC6F, offset: 0x5299BD, size: 0x8, addend: 0x0, symName: '__ZNKSt3__110__function6__funcIZN4onnx11GetOpSchemaINS2_21LogSoftmax_Onnx_ver13EEENS2_8OpSchemaEvE4$_11NS_9allocatorIS6_EEFbRKNS2_24FunctionBodyBuildContextERKS5_RNS2_13FunctionProtoEEE7__cloneEPNS0_6__baseISG_EE', symObjAddr: 0x1E1D4, symBinAddr: 0xBDD214, symSize: 0x10 }
  - { offsetInCU: 0xEDCA5, offset: 0x5299F3, size: 0x8, addend: 0x0, symName: '__ZNKSt3__110__function6__funcIZN4onnx11GetOpSchemaINS2_21LogSoftmax_Onnx_ver13EEENS2_8OpSchemaEvE4$_11NS_9allocatorIS6_EEFbRKNS2_24FunctionBodyBuildContextERKS5_RNS2_13FunctionProtoEEE7__cloneEPNS0_6__baseISG_EE', symObjAddr: 0x1E1D4, symBinAddr: 0xBDD214, symSize: 0x10 }
  - { offsetInCU: 0xEDCC1, offset: 0x529A0F, size: 0x8, addend: 0x0, symName: '__ZNKSt3__110__function6__funcIZN4onnx11GetOpSchemaINS2_21LogSoftmax_Onnx_ver13EEENS2_8OpSchemaEvE4$_11NS_9allocatorIS6_EEFbRKNS2_24FunctionBodyBuildContextERKS5_RNS2_13FunctionProtoEEE7__cloneEPNS0_6__baseISG_EE', symObjAddr: 0x1E1D4, symBinAddr: 0xBDD214, symSize: 0x10 }
  - { offsetInCU: 0xEDCDD, offset: 0x529A2B, size: 0x8, addend: 0x0, symName: '__ZNSt3__110__function6__funcIZN4onnx11GetOpSchemaINS2_21LogSoftmax_Onnx_ver13EEENS2_8OpSchemaEvE4$_11NS_9allocatorIS6_EEFbRKNS2_24FunctionBodyBuildContextERKS5_RNS2_13FunctionProtoEEE7destroyEv', symObjAddr: 0x1E1E4, symBinAddr: 0xBDD224, symSize: 0x4 }
  - { offsetInCU: 0xEDD2E, offset: 0x529A7C, size: 0x8, addend: 0x0, symName: '__ZNSt3__110__function6__funcIZN4onnx11GetOpSchemaINS2_21LogSoftmax_Onnx_ver13EEENS2_8OpSchemaEvE4$_11NS_9allocatorIS6_EEFbRKNS2_24FunctionBodyBuildContextERKS5_RNS2_13FunctionProtoEEE18destroy_deallocateEv', symObjAddr: 0x1E1E8, symBinAddr: 0xBDD228, symSize: 0x4 }
  - { offsetInCU: 0xEDD63, offset: 0x529AB1, size: 0x8, addend: 0x0, symName: '__ZNSt3__110__function6__funcIZN4onnx11GetOpSchemaINS2_21LogSoftmax_Onnx_ver13EEENS2_8OpSchemaEvE4$_11NS_9allocatorIS6_EEFbRKNS2_24FunctionBodyBuildContextERKS5_RNS2_13FunctionProtoEEE18destroy_deallocateEv', symObjAddr: 0x1E1E8, symBinAddr: 0xBDD228, symSize: 0x4 }
  - { offsetInCU: 0xEDD85, offset: 0x529AD3, size: 0x8, addend: 0x0, symName: '__ZNSt3__110__function6__funcIZN4onnx11GetOpSchemaINS2_21LogSoftmax_Onnx_ver13EEENS2_8OpSchemaEvE4$_11NS_9allocatorIS6_EEFbRKNS2_24FunctionBodyBuildContextERKS5_RNS2_13FunctionProtoEEE18destroy_deallocateEv', symObjAddr: 0x1E1E8, symBinAddr: 0xBDD228, symSize: 0x4 }
  - { offsetInCU: 0xEDDB0, offset: 0x529AFE, size: 0x8, addend: 0x0, symName: '__ZNSt3__110__function6__funcIZN4onnx11GetOpSchemaINS2_21LogSoftmax_Onnx_ver13EEENS2_8OpSchemaEvE4$_11NS_9allocatorIS6_EEFbRKNS2_24FunctionBodyBuildContextERKS5_RNS2_13FunctionProtoEEE18destroy_deallocateEv', symObjAddr: 0x1E1E8, symBinAddr: 0xBDD228, symSize: 0x4 }
  - { offsetInCU: 0xEDDD6, offset: 0x529B24, size: 0x8, addend: 0x0, symName: '__ZNSt3__110__function6__funcIZN4onnx11GetOpSchemaINS2_21LogSoftmax_Onnx_ver13EEENS2_8OpSchemaEvE4$_11NS_9allocatorIS6_EEFbRKNS2_24FunctionBodyBuildContextERKS5_RNS2_13FunctionProtoEEE18destroy_deallocateEv', symObjAddr: 0x1E1E8, symBinAddr: 0xBDD228, symSize: 0x4 }
  - { offsetInCU: 0xEDEEB, offset: 0x529C39, size: 0x8, addend: 0x0, symName: '__ZNSt3__110__function6__funcIZN4onnx11GetOpSchemaINS2_21LogSoftmax_Onnx_ver13EEENS2_8OpSchemaEvE4$_11NS_9allocatorIS6_EEFbRKNS2_24FunctionBodyBuildContextERKS5_RNS2_13FunctionProtoEEEclESB_SD_SF_', symObjAddr: 0x1E1EC, symBinAddr: 0xBDD22C, symSize: 0x198 }
  - { offsetInCU: 0xEEB01, offset: 0x52A84F, size: 0x8, addend: 0x0, symName: '__ZNKSt3__110__function6__funcIZN4onnx11GetOpSchemaINS2_21LogSoftmax_Onnx_ver13EEENS2_8OpSchemaEvE4$_11NS_9allocatorIS6_EEFbRKNS2_24FunctionBodyBuildContextERKS5_RNS2_13FunctionProtoEEE6targetERKSt9type_info', symObjAddr: 0x1E384, symBinAddr: 0xBDD3C4, symSize: 0x60 }
  - { offsetInCU: 0xEEB86, offset: 0x52A8D4, size: 0x8, addend: 0x0, symName: '__ZNKSt3__110__function6__funcIZN4onnx11GetOpSchemaINS2_21LogSoftmax_Onnx_ver13EEENS2_8OpSchemaEvE4$_11NS_9allocatorIS6_EEFbRKNS2_24FunctionBodyBuildContextERKS5_RNS2_13FunctionProtoEEE11target_typeEv', symObjAddr: 0x1E3E4, symBinAddr: 0xBDD424, symSize: 0xC }
  - { offsetInCU: 0xEEBAB, offset: 0x52A8F9, size: 0x8, addend: 0x0, symName: '__ZNSt3__110__function6__funcIZN4onnx11GetOpSchemaINS2_15Gemm_Onnx_ver13EEENS2_8OpSchemaEvE4$_12NS_9allocatorIS6_EEFvRNS2_16InferenceContextEEED1Ev', symObjAddr: 0x1E3F0, symBinAddr: 0xBDD430, symSize: 0x4 }
  - { offsetInCU: 0xEEBD7, offset: 0x52A925, size: 0x8, addend: 0x0, symName: '__ZNSt3__110__function6__funcIZN4onnx11GetOpSchemaINS2_15Gemm_Onnx_ver13EEENS2_8OpSchemaEvE4$_12NS_9allocatorIS6_EEFvRNS2_16InferenceContextEEED0Ev', symObjAddr: 0x1E3F4, symBinAddr: 0xBDD434, symSize: 0x4 }
  - { offsetInCU: 0xEEC91, offset: 0x52A9DF, size: 0x8, addend: 0x0, symName: '__ZNKSt3__110__function6__funcIZN4onnx11GetOpSchemaINS2_15Gemm_Onnx_ver13EEENS2_8OpSchemaEvE4$_12NS_9allocatorIS6_EEFvRNS2_16InferenceContextEEE7__cloneEv', symObjAddr: 0x1E3F8, symBinAddr: 0xBDD438, symSize: 0x24 }
  - { offsetInCU: 0xEEDD9, offset: 0x52AB27, size: 0x8, addend: 0x0, symName: '__ZNKSt3__110__function6__funcIZN4onnx11GetOpSchemaINS2_15Gemm_Onnx_ver13EEENS2_8OpSchemaEvE4$_12NS_9allocatorIS6_EEFvRNS2_16InferenceContextEEE7__cloneEPNS0_6__baseISB_EE', symObjAddr: 0x1E41C, symBinAddr: 0xBDD45C, symSize: 0x10 }
  - { offsetInCU: 0xEEE0F, offset: 0x52AB5D, size: 0x8, addend: 0x0, symName: '__ZNKSt3__110__function6__funcIZN4onnx11GetOpSchemaINS2_15Gemm_Onnx_ver13EEENS2_8OpSchemaEvE4$_12NS_9allocatorIS6_EEFvRNS2_16InferenceContextEEE7__cloneEPNS0_6__baseISB_EE', symObjAddr: 0x1E41C, symBinAddr: 0xBDD45C, symSize: 0x10 }
  - { offsetInCU: 0xEEE2B, offset: 0x52AB79, size: 0x8, addend: 0x0, symName: '__ZNKSt3__110__function6__funcIZN4onnx11GetOpSchemaINS2_15Gemm_Onnx_ver13EEENS2_8OpSchemaEvE4$_12NS_9allocatorIS6_EEFvRNS2_16InferenceContextEEE7__cloneEPNS0_6__baseISB_EE', symObjAddr: 0x1E41C, symBinAddr: 0xBDD45C, symSize: 0x10 }
  - { offsetInCU: 0xEEE47, offset: 0x52AB95, size: 0x8, addend: 0x0, symName: '__ZNSt3__110__function6__funcIZN4onnx11GetOpSchemaINS2_15Gemm_Onnx_ver13EEENS2_8OpSchemaEvE4$_12NS_9allocatorIS6_EEFvRNS2_16InferenceContextEEE7destroyEv', symObjAddr: 0x1E42C, symBinAddr: 0xBDD46C, symSize: 0x4 }
  - { offsetInCU: 0xEEE98, offset: 0x52ABE6, size: 0x8, addend: 0x0, symName: '__ZNSt3__110__function6__funcIZN4onnx11GetOpSchemaINS2_15Gemm_Onnx_ver13EEENS2_8OpSchemaEvE4$_12NS_9allocatorIS6_EEFvRNS2_16InferenceContextEEE18destroy_deallocateEv', symObjAddr: 0x1E430, symBinAddr: 0xBDD470, symSize: 0x4 }
  - { offsetInCU: 0xEEECD, offset: 0x52AC1B, size: 0x8, addend: 0x0, symName: '__ZNSt3__110__function6__funcIZN4onnx11GetOpSchemaINS2_15Gemm_Onnx_ver13EEENS2_8OpSchemaEvE4$_12NS_9allocatorIS6_EEFvRNS2_16InferenceContextEEE18destroy_deallocateEv', symObjAddr: 0x1E430, symBinAddr: 0xBDD470, symSize: 0x4 }
  - { offsetInCU: 0xEEEEF, offset: 0x52AC3D, size: 0x8, addend: 0x0, symName: '__ZNSt3__110__function6__funcIZN4onnx11GetOpSchemaINS2_15Gemm_Onnx_ver13EEENS2_8OpSchemaEvE4$_12NS_9allocatorIS6_EEFvRNS2_16InferenceContextEEE18destroy_deallocateEv', symObjAddr: 0x1E430, symBinAddr: 0xBDD470, symSize: 0x4 }
  - { offsetInCU: 0xEEF1A, offset: 0x52AC68, size: 0x8, addend: 0x0, symName: '__ZNSt3__110__function6__funcIZN4onnx11GetOpSchemaINS2_15Gemm_Onnx_ver13EEENS2_8OpSchemaEvE4$_12NS_9allocatorIS6_EEFvRNS2_16InferenceContextEEE18destroy_deallocateEv', symObjAddr: 0x1E430, symBinAddr: 0xBDD470, symSize: 0x4 }
  - { offsetInCU: 0xEEF40, offset: 0x52AC8E, size: 0x8, addend: 0x0, symName: '__ZNSt3__110__function6__funcIZN4onnx11GetOpSchemaINS2_15Gemm_Onnx_ver13EEENS2_8OpSchemaEvE4$_12NS_9allocatorIS6_EEFvRNS2_16InferenceContextEEE18destroy_deallocateEv', symObjAddr: 0x1E430, symBinAddr: 0xBDD470, symSize: 0x4 }
  - { offsetInCU: 0xEF03E, offset: 0x52AD8C, size: 0x8, addend: 0x0, symName: '__ZNSt3__110__function6__funcIZN4onnx11GetOpSchemaINS2_15Gemm_Onnx_ver13EEENS2_8OpSchemaEvE4$_12NS_9allocatorIS6_EEFvRNS2_16InferenceContextEEEclESA_', symObjAddr: 0x1E434, symBinAddr: 0xBDD474, symSize: 0x4EC }
  - { offsetInCU: 0xEFF68, offset: 0x52BCB6, size: 0x8, addend: 0x0, symName: '__ZNKSt3__110__function6__funcIZN4onnx11GetOpSchemaINS2_15Gemm_Onnx_ver13EEENS2_8OpSchemaEvE4$_12NS_9allocatorIS6_EEFvRNS2_16InferenceContextEEE6targetERKSt9type_info', symObjAddr: 0x1E920, symBinAddr: 0xBDD960, symSize: 0x60 }
  - { offsetInCU: 0xEFFED, offset: 0x52BD3B, size: 0x8, addend: 0x0, symName: '__ZNKSt3__110__function6__funcIZN4onnx11GetOpSchemaINS2_15Gemm_Onnx_ver13EEENS2_8OpSchemaEvE4$_12NS_9allocatorIS6_EEFvRNS2_16InferenceContextEEE11target_typeEv', symObjAddr: 0x1E980, symBinAddr: 0xBDD9C0, symSize: 0xC }
  - { offsetInCU: 0xF0044, offset: 0x52BD92, size: 0x8, addend: 0x0, symName: '__ZNSt3__110__function6__funcIZN4onnx11GetOpSchemaINS2_17MatMul_Onnx_ver13EEENS2_8OpSchemaEvE4$_13NS_9allocatorIS6_EEFvRNS2_16InferenceContextEEED1Ev', symObjAddr: 0x1F4A4, symBinAddr: 0xBDD9CC, symSize: 0x4 }
  - { offsetInCU: 0xF0070, offset: 0x52BDBE, size: 0x8, addend: 0x0, symName: '__ZNSt3__110__function6__funcIZN4onnx11GetOpSchemaINS2_17MatMul_Onnx_ver13EEENS2_8OpSchemaEvE4$_13NS_9allocatorIS6_EEFvRNS2_16InferenceContextEEED0Ev', symObjAddr: 0x1F4A8, symBinAddr: 0xBDD9D0, symSize: 0x4 }
  - { offsetInCU: 0xF012A, offset: 0x52BE78, size: 0x8, addend: 0x0, symName: '__ZNKSt3__110__function6__funcIZN4onnx11GetOpSchemaINS2_17MatMul_Onnx_ver13EEENS2_8OpSchemaEvE4$_13NS_9allocatorIS6_EEFvRNS2_16InferenceContextEEE7__cloneEv', symObjAddr: 0x1F4AC, symBinAddr: 0xBDD9D4, symSize: 0x24 }
  - { offsetInCU: 0xF0272, offset: 0x52BFC0, size: 0x8, addend: 0x0, symName: '__ZNKSt3__110__function6__funcIZN4onnx11GetOpSchemaINS2_17MatMul_Onnx_ver13EEENS2_8OpSchemaEvE4$_13NS_9allocatorIS6_EEFvRNS2_16InferenceContextEEE7__cloneEPNS0_6__baseISB_EE', symObjAddr: 0x1F4D0, symBinAddr: 0xBDD9F8, symSize: 0x10 }
  - { offsetInCU: 0xF02A8, offset: 0x52BFF6, size: 0x8, addend: 0x0, symName: '__ZNKSt3__110__function6__funcIZN4onnx11GetOpSchemaINS2_17MatMul_Onnx_ver13EEENS2_8OpSchemaEvE4$_13NS_9allocatorIS6_EEFvRNS2_16InferenceContextEEE7__cloneEPNS0_6__baseISB_EE', symObjAddr: 0x1F4D0, symBinAddr: 0xBDD9F8, symSize: 0x10 }
  - { offsetInCU: 0xF02C4, offset: 0x52C012, size: 0x8, addend: 0x0, symName: '__ZNKSt3__110__function6__funcIZN4onnx11GetOpSchemaINS2_17MatMul_Onnx_ver13EEENS2_8OpSchemaEvE4$_13NS_9allocatorIS6_EEFvRNS2_16InferenceContextEEE7__cloneEPNS0_6__baseISB_EE', symObjAddr: 0x1F4D0, symBinAddr: 0xBDD9F8, symSize: 0x10 }
  - { offsetInCU: 0xF02E0, offset: 0x52C02E, size: 0x8, addend: 0x0, symName: '__ZNSt3__110__function6__funcIZN4onnx11GetOpSchemaINS2_17MatMul_Onnx_ver13EEENS2_8OpSchemaEvE4$_13NS_9allocatorIS6_EEFvRNS2_16InferenceContextEEE7destroyEv', symObjAddr: 0x1F4E0, symBinAddr: 0xBDDA08, symSize: 0x4 }
  - { offsetInCU: 0xF0331, offset: 0x52C07F, size: 0x8, addend: 0x0, symName: '__ZNSt3__110__function6__funcIZN4onnx11GetOpSchemaINS2_17MatMul_Onnx_ver13EEENS2_8OpSchemaEvE4$_13NS_9allocatorIS6_EEFvRNS2_16InferenceContextEEE18destroy_deallocateEv', symObjAddr: 0x1F4E4, symBinAddr: 0xBDDA0C, symSize: 0x4 }
  - { offsetInCU: 0xF0366, offset: 0x52C0B4, size: 0x8, addend: 0x0, symName: '__ZNSt3__110__function6__funcIZN4onnx11GetOpSchemaINS2_17MatMul_Onnx_ver13EEENS2_8OpSchemaEvE4$_13NS_9allocatorIS6_EEFvRNS2_16InferenceContextEEE18destroy_deallocateEv', symObjAddr: 0x1F4E4, symBinAddr: 0xBDDA0C, symSize: 0x4 }
  - { offsetInCU: 0xF0388, offset: 0x52C0D6, size: 0x8, addend: 0x0, symName: '__ZNSt3__110__function6__funcIZN4onnx11GetOpSchemaINS2_17MatMul_Onnx_ver13EEENS2_8OpSchemaEvE4$_13NS_9allocatorIS6_EEFvRNS2_16InferenceContextEEE18destroy_deallocateEv', symObjAddr: 0x1F4E4, symBinAddr: 0xBDDA0C, symSize: 0x4 }
  - { offsetInCU: 0xF03B3, offset: 0x52C101, size: 0x8, addend: 0x0, symName: '__ZNSt3__110__function6__funcIZN4onnx11GetOpSchemaINS2_17MatMul_Onnx_ver13EEENS2_8OpSchemaEvE4$_13NS_9allocatorIS6_EEFvRNS2_16InferenceContextEEE18destroy_deallocateEv', symObjAddr: 0x1F4E4, symBinAddr: 0xBDDA0C, symSize: 0x4 }
  - { offsetInCU: 0xF03D9, offset: 0x52C127, size: 0x8, addend: 0x0, symName: '__ZNSt3__110__function6__funcIZN4onnx11GetOpSchemaINS2_17MatMul_Onnx_ver13EEENS2_8OpSchemaEvE4$_13NS_9allocatorIS6_EEFvRNS2_16InferenceContextEEE18destroy_deallocateEv', symObjAddr: 0x1F4E4, symBinAddr: 0xBDDA0C, symSize: 0x4 }
  - { offsetInCU: 0xF0487, offset: 0x52C1D5, size: 0x8, addend: 0x0, symName: '__ZNSt3__110__function6__funcIZN4onnx11GetOpSchemaINS2_17MatMul_Onnx_ver13EEENS2_8OpSchemaEvE4$_13NS_9allocatorIS6_EEFvRNS2_16InferenceContextEEEclESA_', symObjAddr: 0x1F4E8, symBinAddr: 0xBDDA10, symSize: 0x38 }
  - { offsetInCU: 0xF0574, offset: 0x52C2C2, size: 0x8, addend: 0x0, symName: '__ZNKSt3__110__function6__funcIZN4onnx11GetOpSchemaINS2_17MatMul_Onnx_ver13EEENS2_8OpSchemaEvE4$_13NS_9allocatorIS6_EEFvRNS2_16InferenceContextEEE6targetERKSt9type_info', symObjAddr: 0x1F520, symBinAddr: 0xBDDA48, symSize: 0x60 }
  - { offsetInCU: 0xF05F9, offset: 0x52C347, size: 0x8, addend: 0x0, symName: '__ZNKSt3__110__function6__funcIZN4onnx11GetOpSchemaINS2_17MatMul_Onnx_ver13EEENS2_8OpSchemaEvE4$_13NS_9allocatorIS6_EEFvRNS2_16InferenceContextEEE11target_typeEv', symObjAddr: 0x1F580, symBinAddr: 0xBDDAA8, symSize: 0xC }
  - { offsetInCU: 0xF061E, offset: 0x52C36C, size: 0x8, addend: 0x0, symName: '__ZNSt3__110__function6__funcIZN4onnx11GetOpSchemaINS2_15TopK_Onnx_ver11EEENS2_8OpSchemaEvE4$_14NS_9allocatorIS6_EEFvRNS2_16InferenceContextEEED1Ev', symObjAddr: 0x1F58C, symBinAddr: 0xBDDAB4, symSize: 0x4 }
  - { offsetInCU: 0xF064A, offset: 0x52C398, size: 0x8, addend: 0x0, symName: '__ZNSt3__110__function6__funcIZN4onnx11GetOpSchemaINS2_15TopK_Onnx_ver11EEENS2_8OpSchemaEvE4$_14NS_9allocatorIS6_EEFvRNS2_16InferenceContextEEED0Ev', symObjAddr: 0x1F590, symBinAddr: 0xBDDAB8, symSize: 0x4 }
  - { offsetInCU: 0xF0704, offset: 0x52C452, size: 0x8, addend: 0x0, symName: '__ZNKSt3__110__function6__funcIZN4onnx11GetOpSchemaINS2_15TopK_Onnx_ver11EEENS2_8OpSchemaEvE4$_14NS_9allocatorIS6_EEFvRNS2_16InferenceContextEEE7__cloneEv', symObjAddr: 0x1F594, symBinAddr: 0xBDDABC, symSize: 0x24 }
  - { offsetInCU: 0xF084C, offset: 0x52C59A, size: 0x8, addend: 0x0, symName: '__ZNKSt3__110__function6__funcIZN4onnx11GetOpSchemaINS2_15TopK_Onnx_ver11EEENS2_8OpSchemaEvE4$_14NS_9allocatorIS6_EEFvRNS2_16InferenceContextEEE7__cloneEPNS0_6__baseISB_EE', symObjAddr: 0x1F5B8, symBinAddr: 0xBDDAE0, symSize: 0x10 }
  - { offsetInCU: 0xF0882, offset: 0x52C5D0, size: 0x8, addend: 0x0, symName: '__ZNKSt3__110__function6__funcIZN4onnx11GetOpSchemaINS2_15TopK_Onnx_ver11EEENS2_8OpSchemaEvE4$_14NS_9allocatorIS6_EEFvRNS2_16InferenceContextEEE7__cloneEPNS0_6__baseISB_EE', symObjAddr: 0x1F5B8, symBinAddr: 0xBDDAE0, symSize: 0x10 }
  - { offsetInCU: 0xF089E, offset: 0x52C5EC, size: 0x8, addend: 0x0, symName: '__ZNKSt3__110__function6__funcIZN4onnx11GetOpSchemaINS2_15TopK_Onnx_ver11EEENS2_8OpSchemaEvE4$_14NS_9allocatorIS6_EEFvRNS2_16InferenceContextEEE7__cloneEPNS0_6__baseISB_EE', symObjAddr: 0x1F5B8, symBinAddr: 0xBDDAE0, symSize: 0x10 }
  - { offsetInCU: 0xF08BA, offset: 0x52C608, size: 0x8, addend: 0x0, symName: '__ZNSt3__110__function6__funcIZN4onnx11GetOpSchemaINS2_15TopK_Onnx_ver11EEENS2_8OpSchemaEvE4$_14NS_9allocatorIS6_EEFvRNS2_16InferenceContextEEE7destroyEv', symObjAddr: 0x1F5C8, symBinAddr: 0xBDDAF0, symSize: 0x4 }
  - { offsetInCU: 0xF090B, offset: 0x52C659, size: 0x8, addend: 0x0, symName: '__ZNSt3__110__function6__funcIZN4onnx11GetOpSchemaINS2_15TopK_Onnx_ver11EEENS2_8OpSchemaEvE4$_14NS_9allocatorIS6_EEFvRNS2_16InferenceContextEEE18destroy_deallocateEv', symObjAddr: 0x1F5CC, symBinAddr: 0xBDDAF4, symSize: 0x4 }
  - { offsetInCU: 0xF0940, offset: 0x52C68E, size: 0x8, addend: 0x0, symName: '__ZNSt3__110__function6__funcIZN4onnx11GetOpSchemaINS2_15TopK_Onnx_ver11EEENS2_8OpSchemaEvE4$_14NS_9allocatorIS6_EEFvRNS2_16InferenceContextEEE18destroy_deallocateEv', symObjAddr: 0x1F5CC, symBinAddr: 0xBDDAF4, symSize: 0x4 }
  - { offsetInCU: 0xF0962, offset: 0x52C6B0, size: 0x8, addend: 0x0, symName: '__ZNSt3__110__function6__funcIZN4onnx11GetOpSchemaINS2_15TopK_Onnx_ver11EEENS2_8OpSchemaEvE4$_14NS_9allocatorIS6_EEFvRNS2_16InferenceContextEEE18destroy_deallocateEv', symObjAddr: 0x1F5CC, symBinAddr: 0xBDDAF4, symSize: 0x4 }
  - { offsetInCU: 0xF098D, offset: 0x52C6DB, size: 0x8, addend: 0x0, symName: '__ZNSt3__110__function6__funcIZN4onnx11GetOpSchemaINS2_15TopK_Onnx_ver11EEENS2_8OpSchemaEvE4$_14NS_9allocatorIS6_EEFvRNS2_16InferenceContextEEE18destroy_deallocateEv', symObjAddr: 0x1F5CC, symBinAddr: 0xBDDAF4, symSize: 0x4 }
  - { offsetInCU: 0xF09B3, offset: 0x52C701, size: 0x8, addend: 0x0, symName: '__ZNSt3__110__function6__funcIZN4onnx11GetOpSchemaINS2_15TopK_Onnx_ver11EEENS2_8OpSchemaEvE4$_14NS_9allocatorIS6_EEFvRNS2_16InferenceContextEEE18destroy_deallocateEv', symObjAddr: 0x1F5CC, symBinAddr: 0xBDDAF4, symSize: 0x4 }
  - { offsetInCU: 0xF0C69, offset: 0x52C9B7, size: 0x8, addend: 0x0, symName: '__ZNSt3__110__function6__funcIZN4onnx11GetOpSchemaINS2_15TopK_Onnx_ver11EEENS2_8OpSchemaEvE4$_14NS_9allocatorIS6_EEFvRNS2_16InferenceContextEEEclESA_', symObjAddr: 0x1F5D0, symBinAddr: 0xBDDAF8, symSize: 0x5C0 }
  - { offsetInCU: 0xF20AA, offset: 0x52DDF8, size: 0x8, addend: 0x0, symName: '__ZNKSt3__110__function6__funcIZN4onnx11GetOpSchemaINS2_15TopK_Onnx_ver11EEENS2_8OpSchemaEvE4$_14NS_9allocatorIS6_EEFvRNS2_16InferenceContextEEE6targetERKSt9type_info', symObjAddr: 0x1FB90, symBinAddr: 0xBDE0B8, symSize: 0x60 }
  - { offsetInCU: 0xF212F, offset: 0x52DE7D, size: 0x8, addend: 0x0, symName: '__ZNKSt3__110__function6__funcIZN4onnx11GetOpSchemaINS2_15TopK_Onnx_ver11EEENS2_8OpSchemaEvE4$_14NS_9allocatorIS6_EEFvRNS2_16InferenceContextEEE11target_typeEv', symObjAddr: 0x1FBF0, symBinAddr: 0xBDE118, symSize: 0xC }
  - { offsetInCU: 0xF21B8, offset: 0x52DF06, size: 0x8, addend: 0x0, symName: '__ZNSt3__110__function6__funcIZN4onnx11GetOpSchemaINS2_17Expand_Onnx_ver13EEENS2_8OpSchemaEvE4$_15NS_9allocatorIS6_EEFvRNS2_16InferenceContextEEED1Ev', symObjAddr: 0x2075C, symBinAddr: 0xBDE124, symSize: 0x4 }
  - { offsetInCU: 0xF21E4, offset: 0x52DF32, size: 0x8, addend: 0x0, symName: '__ZNSt3__110__function6__funcIZN4onnx11GetOpSchemaINS2_17Expand_Onnx_ver13EEENS2_8OpSchemaEvE4$_15NS_9allocatorIS6_EEFvRNS2_16InferenceContextEEED0Ev', symObjAddr: 0x20760, symBinAddr: 0xBDE128, symSize: 0x4 }
  - { offsetInCU: 0xF229E, offset: 0x52DFEC, size: 0x8, addend: 0x0, symName: '__ZNKSt3__110__function6__funcIZN4onnx11GetOpSchemaINS2_17Expand_Onnx_ver13EEENS2_8OpSchemaEvE4$_15NS_9allocatorIS6_EEFvRNS2_16InferenceContextEEE7__cloneEv', symObjAddr: 0x20764, symBinAddr: 0xBDE12C, symSize: 0x24 }
  - { offsetInCU: 0xF23E6, offset: 0x52E134, size: 0x8, addend: 0x0, symName: '__ZNKSt3__110__function6__funcIZN4onnx11GetOpSchemaINS2_17Expand_Onnx_ver13EEENS2_8OpSchemaEvE4$_15NS_9allocatorIS6_EEFvRNS2_16InferenceContextEEE7__cloneEPNS0_6__baseISB_EE', symObjAddr: 0x20788, symBinAddr: 0xBDE150, symSize: 0x10 }
  - { offsetInCU: 0xF241C, offset: 0x52E16A, size: 0x8, addend: 0x0, symName: '__ZNKSt3__110__function6__funcIZN4onnx11GetOpSchemaINS2_17Expand_Onnx_ver13EEENS2_8OpSchemaEvE4$_15NS_9allocatorIS6_EEFvRNS2_16InferenceContextEEE7__cloneEPNS0_6__baseISB_EE', symObjAddr: 0x20788, symBinAddr: 0xBDE150, symSize: 0x10 }
  - { offsetInCU: 0xF2438, offset: 0x52E186, size: 0x8, addend: 0x0, symName: '__ZNKSt3__110__function6__funcIZN4onnx11GetOpSchemaINS2_17Expand_Onnx_ver13EEENS2_8OpSchemaEvE4$_15NS_9allocatorIS6_EEFvRNS2_16InferenceContextEEE7__cloneEPNS0_6__baseISB_EE', symObjAddr: 0x20788, symBinAddr: 0xBDE150, symSize: 0x10 }
  - { offsetInCU: 0xF2454, offset: 0x52E1A2, size: 0x8, addend: 0x0, symName: '__ZNSt3__110__function6__funcIZN4onnx11GetOpSchemaINS2_17Expand_Onnx_ver13EEENS2_8OpSchemaEvE4$_15NS_9allocatorIS6_EEFvRNS2_16InferenceContextEEE7destroyEv', symObjAddr: 0x20798, symBinAddr: 0xBDE160, symSize: 0x4 }
  - { offsetInCU: 0xF24A5, offset: 0x52E1F3, size: 0x8, addend: 0x0, symName: '__ZNSt3__110__function6__funcIZN4onnx11GetOpSchemaINS2_17Expand_Onnx_ver13EEENS2_8OpSchemaEvE4$_15NS_9allocatorIS6_EEFvRNS2_16InferenceContextEEE18destroy_deallocateEv', symObjAddr: 0x2079C, symBinAddr: 0xBDE164, symSize: 0x4 }
  - { offsetInCU: 0xF24DA, offset: 0x52E228, size: 0x8, addend: 0x0, symName: '__ZNSt3__110__function6__funcIZN4onnx11GetOpSchemaINS2_17Expand_Onnx_ver13EEENS2_8OpSchemaEvE4$_15NS_9allocatorIS6_EEFvRNS2_16InferenceContextEEE18destroy_deallocateEv', symObjAddr: 0x2079C, symBinAddr: 0xBDE164, symSize: 0x4 }
  - { offsetInCU: 0xF24FC, offset: 0x52E24A, size: 0x8, addend: 0x0, symName: '__ZNSt3__110__function6__funcIZN4onnx11GetOpSchemaINS2_17Expand_Onnx_ver13EEENS2_8OpSchemaEvE4$_15NS_9allocatorIS6_EEFvRNS2_16InferenceContextEEE18destroy_deallocateEv', symObjAddr: 0x2079C, symBinAddr: 0xBDE164, symSize: 0x4 }
  - { offsetInCU: 0xF2527, offset: 0x52E275, size: 0x8, addend: 0x0, symName: '__ZNSt3__110__function6__funcIZN4onnx11GetOpSchemaINS2_17Expand_Onnx_ver13EEENS2_8OpSchemaEvE4$_15NS_9allocatorIS6_EEFvRNS2_16InferenceContextEEE18destroy_deallocateEv', symObjAddr: 0x2079C, symBinAddr: 0xBDE164, symSize: 0x4 }
  - { offsetInCU: 0xF254D, offset: 0x52E29B, size: 0x8, addend: 0x0, symName: '__ZNSt3__110__function6__funcIZN4onnx11GetOpSchemaINS2_17Expand_Onnx_ver13EEENS2_8OpSchemaEvE4$_15NS_9allocatorIS6_EEFvRNS2_16InferenceContextEEE18destroy_deallocateEv', symObjAddr: 0x2079C, symBinAddr: 0xBDE164, symSize: 0x4 }
  - { offsetInCU: 0xF2621, offset: 0x52E36F, size: 0x8, addend: 0x0, symName: '__ZNSt3__110__function6__funcIZN4onnx11GetOpSchemaINS2_17Expand_Onnx_ver13EEENS2_8OpSchemaEvE4$_15NS_9allocatorIS6_EEFvRNS2_16InferenceContextEEEclESA_', symObjAddr: 0x207A0, symBinAddr: 0xBDE168, symSize: 0x2B4 }
  - { offsetInCU: 0xF3062, offset: 0x52EDB0, size: 0x8, addend: 0x0, symName: '__ZNKSt3__110__function6__funcIZN4onnx11GetOpSchemaINS2_17Expand_Onnx_ver13EEENS2_8OpSchemaEvE4$_15NS_9allocatorIS6_EEFvRNS2_16InferenceContextEEE6targetERKSt9type_info', symObjAddr: 0x20A54, symBinAddr: 0xBDE41C, symSize: 0x60 }
  - { offsetInCU: 0xF30E7, offset: 0x52EE35, size: 0x8, addend: 0x0, symName: '__ZNKSt3__110__function6__funcIZN4onnx11GetOpSchemaINS2_17Expand_Onnx_ver13EEENS2_8OpSchemaEvE4$_15NS_9allocatorIS6_EEFvRNS2_16InferenceContextEEE11target_typeEv', symObjAddr: 0x20AB4, symBinAddr: 0xBDE47C, symSize: 0xC }
  - { offsetInCU: 0xF310C, offset: 0x52EE5A, size: 0x8, addend: 0x0, symName: '__ZNSt3__110__function6__funcIZN4onnx11GetOpSchemaINS2_24MatMulInteger_Onnx_ver10EEENS2_8OpSchemaEvE4$_16NS_9allocatorIS6_EEFvRNS2_16InferenceContextEEED1Ev', symObjAddr: 0x20AC0, symBinAddr: 0xBDE488, symSize: 0x4 }
  - { offsetInCU: 0xF3138, offset: 0x52EE86, size: 0x8, addend: 0x0, symName: '__ZNSt3__110__function6__funcIZN4onnx11GetOpSchemaINS2_24MatMulInteger_Onnx_ver10EEENS2_8OpSchemaEvE4$_16NS_9allocatorIS6_EEFvRNS2_16InferenceContextEEED0Ev', symObjAddr: 0x20AC4, symBinAddr: 0xBDE48C, symSize: 0x4 }
  - { offsetInCU: 0xF31F2, offset: 0x52EF40, size: 0x8, addend: 0x0, symName: '__ZNKSt3__110__function6__funcIZN4onnx11GetOpSchemaINS2_24MatMulInteger_Onnx_ver10EEENS2_8OpSchemaEvE4$_16NS_9allocatorIS6_EEFvRNS2_16InferenceContextEEE7__cloneEv', symObjAddr: 0x20AC8, symBinAddr: 0xBDE490, symSize: 0x24 }
  - { offsetInCU: 0xF333A, offset: 0x52F088, size: 0x8, addend: 0x0, symName: '__ZNKSt3__110__function6__funcIZN4onnx11GetOpSchemaINS2_24MatMulInteger_Onnx_ver10EEENS2_8OpSchemaEvE4$_16NS_9allocatorIS6_EEFvRNS2_16InferenceContextEEE7__cloneEPNS0_6__baseISB_EE', symObjAddr: 0x20AEC, symBinAddr: 0xBDE4B4, symSize: 0x10 }
  - { offsetInCU: 0xF3370, offset: 0x52F0BE, size: 0x8, addend: 0x0, symName: '__ZNKSt3__110__function6__funcIZN4onnx11GetOpSchemaINS2_24MatMulInteger_Onnx_ver10EEENS2_8OpSchemaEvE4$_16NS_9allocatorIS6_EEFvRNS2_16InferenceContextEEE7__cloneEPNS0_6__baseISB_EE', symObjAddr: 0x20AEC, symBinAddr: 0xBDE4B4, symSize: 0x10 }
  - { offsetInCU: 0xF338C, offset: 0x52F0DA, size: 0x8, addend: 0x0, symName: '__ZNKSt3__110__function6__funcIZN4onnx11GetOpSchemaINS2_24MatMulInteger_Onnx_ver10EEENS2_8OpSchemaEvE4$_16NS_9allocatorIS6_EEFvRNS2_16InferenceContextEEE7__cloneEPNS0_6__baseISB_EE', symObjAddr: 0x20AEC, symBinAddr: 0xBDE4B4, symSize: 0x10 }
  - { offsetInCU: 0xF33A8, offset: 0x52F0F6, size: 0x8, addend: 0x0, symName: '__ZNSt3__110__function6__funcIZN4onnx11GetOpSchemaINS2_24MatMulInteger_Onnx_ver10EEENS2_8OpSchemaEvE4$_16NS_9allocatorIS6_EEFvRNS2_16InferenceContextEEE7destroyEv', symObjAddr: 0x20AFC, symBinAddr: 0xBDE4C4, symSize: 0x4 }
  - { offsetInCU: 0xF33F9, offset: 0x52F147, size: 0x8, addend: 0x0, symName: '__ZNSt3__110__function6__funcIZN4onnx11GetOpSchemaINS2_24MatMulInteger_Onnx_ver10EEENS2_8OpSchemaEvE4$_16NS_9allocatorIS6_EEFvRNS2_16InferenceContextEEE18destroy_deallocateEv', symObjAddr: 0x20B00, symBinAddr: 0xBDE4C8, symSize: 0x4 }
  - { offsetInCU: 0xF342E, offset: 0x52F17C, size: 0x8, addend: 0x0, symName: '__ZNSt3__110__function6__funcIZN4onnx11GetOpSchemaINS2_24MatMulInteger_Onnx_ver10EEENS2_8OpSchemaEvE4$_16NS_9allocatorIS6_EEFvRNS2_16InferenceContextEEE18destroy_deallocateEv', symObjAddr: 0x20B00, symBinAddr: 0xBDE4C8, symSize: 0x4 }
  - { offsetInCU: 0xF3450, offset: 0x52F19E, size: 0x8, addend: 0x0, symName: '__ZNSt3__110__function6__funcIZN4onnx11GetOpSchemaINS2_24MatMulInteger_Onnx_ver10EEENS2_8OpSchemaEvE4$_16NS_9allocatorIS6_EEFvRNS2_16InferenceContextEEE18destroy_deallocateEv', symObjAddr: 0x20B00, symBinAddr: 0xBDE4C8, symSize: 0x4 }
  - { offsetInCU: 0xF347B, offset: 0x52F1C9, size: 0x8, addend: 0x0, symName: '__ZNSt3__110__function6__funcIZN4onnx11GetOpSchemaINS2_24MatMulInteger_Onnx_ver10EEENS2_8OpSchemaEvE4$_16NS_9allocatorIS6_EEFvRNS2_16InferenceContextEEE18destroy_deallocateEv', symObjAddr: 0x20B00, symBinAddr: 0xBDE4C8, symSize: 0x4 }
  - { offsetInCU: 0xF34A1, offset: 0x52F1EF, size: 0x8, addend: 0x0, symName: '__ZNSt3__110__function6__funcIZN4onnx11GetOpSchemaINS2_24MatMulInteger_Onnx_ver10EEENS2_8OpSchemaEvE4$_16NS_9allocatorIS6_EEFvRNS2_16InferenceContextEEE18destroy_deallocateEv', symObjAddr: 0x20B00, symBinAddr: 0xBDE4C8, symSize: 0x4 }
  - { offsetInCU: 0xF35BD, offset: 0x52F30B, size: 0x8, addend: 0x0, symName: '__ZNSt3__110__function6__funcIZN4onnx11GetOpSchemaINS2_24MatMulInteger_Onnx_ver10EEENS2_8OpSchemaEvE4$_16NS_9allocatorIS6_EEFvRNS2_16InferenceContextEEEclESA_', symObjAddr: 0x20B04, symBinAddr: 0xBDE4CC, symSize: 0x1C8 }
  - { offsetInCU: 0xF3A54, offset: 0x52F7A2, size: 0x8, addend: 0x0, symName: '__ZNKSt3__110__function6__funcIZN4onnx11GetOpSchemaINS2_24MatMulInteger_Onnx_ver10EEENS2_8OpSchemaEvE4$_16NS_9allocatorIS6_EEFvRNS2_16InferenceContextEEE6targetERKSt9type_info', symObjAddr: 0x20CCC, symBinAddr: 0xBDE694, symSize: 0x60 }
  - { offsetInCU: 0xF3AD9, offset: 0x52F827, size: 0x8, addend: 0x0, symName: '__ZNKSt3__110__function6__funcIZN4onnx11GetOpSchemaINS2_24MatMulInteger_Onnx_ver10EEENS2_8OpSchemaEvE4$_16NS_9allocatorIS6_EEFvRNS2_16InferenceContextEEE11target_typeEv', symObjAddr: 0x20D2C, symBinAddr: 0xBDE6F4, symSize: 0xC }
  - { offsetInCU: 0xF3B17, offset: 0x52F865, size: 0x8, addend: 0x0, symName: '__ZNSt3__110__function6__funcIZN4onnx11GetOpSchemaINS2_14Det_Onnx_ver22EEENS2_8OpSchemaEvE4$_17NS_9allocatorIS6_EEFvRNS2_16InferenceContextEEED1Ev', symObjAddr: 0x20F10, symBinAddr: 0xBDE700, symSize: 0x4 }
  - { offsetInCU: 0xF3B43, offset: 0x52F891, size: 0x8, addend: 0x0, symName: '__ZNSt3__110__function6__funcIZN4onnx11GetOpSchemaINS2_14Det_Onnx_ver22EEENS2_8OpSchemaEvE4$_17NS_9allocatorIS6_EEFvRNS2_16InferenceContextEEED0Ev', symObjAddr: 0x20F14, symBinAddr: 0xBDE704, symSize: 0x4 }
  - { offsetInCU: 0xF3BFD, offset: 0x52F94B, size: 0x8, addend: 0x0, symName: '__ZNKSt3__110__function6__funcIZN4onnx11GetOpSchemaINS2_14Det_Onnx_ver22EEENS2_8OpSchemaEvE4$_17NS_9allocatorIS6_EEFvRNS2_16InferenceContextEEE7__cloneEv', symObjAddr: 0x20F18, symBinAddr: 0xBDE708, symSize: 0x24 }
  - { offsetInCU: 0xF3D45, offset: 0x52FA93, size: 0x8, addend: 0x0, symName: '__ZNKSt3__110__function6__funcIZN4onnx11GetOpSchemaINS2_14Det_Onnx_ver22EEENS2_8OpSchemaEvE4$_17NS_9allocatorIS6_EEFvRNS2_16InferenceContextEEE7__cloneEPNS0_6__baseISB_EE', symObjAddr: 0x20F3C, symBinAddr: 0xBDE72C, symSize: 0x10 }
  - { offsetInCU: 0xF3D7B, offset: 0x52FAC9, size: 0x8, addend: 0x0, symName: '__ZNKSt3__110__function6__funcIZN4onnx11GetOpSchemaINS2_14Det_Onnx_ver22EEENS2_8OpSchemaEvE4$_17NS_9allocatorIS6_EEFvRNS2_16InferenceContextEEE7__cloneEPNS0_6__baseISB_EE', symObjAddr: 0x20F3C, symBinAddr: 0xBDE72C, symSize: 0x10 }
  - { offsetInCU: 0xF3D97, offset: 0x52FAE5, size: 0x8, addend: 0x0, symName: '__ZNKSt3__110__function6__funcIZN4onnx11GetOpSchemaINS2_14Det_Onnx_ver22EEENS2_8OpSchemaEvE4$_17NS_9allocatorIS6_EEFvRNS2_16InferenceContextEEE7__cloneEPNS0_6__baseISB_EE', symObjAddr: 0x20F3C, symBinAddr: 0xBDE72C, symSize: 0x10 }
  - { offsetInCU: 0xF3DB3, offset: 0x52FB01, size: 0x8, addend: 0x0, symName: '__ZNSt3__110__function6__funcIZN4onnx11GetOpSchemaINS2_14Det_Onnx_ver22EEENS2_8OpSchemaEvE4$_17NS_9allocatorIS6_EEFvRNS2_16InferenceContextEEE7destroyEv', symObjAddr: 0x20F4C, symBinAddr: 0xBDE73C, symSize: 0x4 }
  - { offsetInCU: 0xF3E04, offset: 0x52FB52, size: 0x8, addend: 0x0, symName: '__ZNSt3__110__function6__funcIZN4onnx11GetOpSchemaINS2_14Det_Onnx_ver22EEENS2_8OpSchemaEvE4$_17NS_9allocatorIS6_EEFvRNS2_16InferenceContextEEE18destroy_deallocateEv', symObjAddr: 0x20F50, symBinAddr: 0xBDE740, symSize: 0x4 }
  - { offsetInCU: 0xF3E39, offset: 0x52FB87, size: 0x8, addend: 0x0, symName: '__ZNSt3__110__function6__funcIZN4onnx11GetOpSchemaINS2_14Det_Onnx_ver22EEENS2_8OpSchemaEvE4$_17NS_9allocatorIS6_EEFvRNS2_16InferenceContextEEE18destroy_deallocateEv', symObjAddr: 0x20F50, symBinAddr: 0xBDE740, symSize: 0x4 }
  - { offsetInCU: 0xF3E5B, offset: 0x52FBA9, size: 0x8, addend: 0x0, symName: '__ZNSt3__110__function6__funcIZN4onnx11GetOpSchemaINS2_14Det_Onnx_ver22EEENS2_8OpSchemaEvE4$_17NS_9allocatorIS6_EEFvRNS2_16InferenceContextEEE18destroy_deallocateEv', symObjAddr: 0x20F50, symBinAddr: 0xBDE740, symSize: 0x4 }
  - { offsetInCU: 0xF3E86, offset: 0x52FBD4, size: 0x8, addend: 0x0, symName: '__ZNSt3__110__function6__funcIZN4onnx11GetOpSchemaINS2_14Det_Onnx_ver22EEENS2_8OpSchemaEvE4$_17NS_9allocatorIS6_EEFvRNS2_16InferenceContextEEE18destroy_deallocateEv', symObjAddr: 0x20F50, symBinAddr: 0xBDE740, symSize: 0x4 }
  - { offsetInCU: 0xF3EAC, offset: 0x52FBFA, size: 0x8, addend: 0x0, symName: '__ZNSt3__110__function6__funcIZN4onnx11GetOpSchemaINS2_14Det_Onnx_ver22EEENS2_8OpSchemaEvE4$_17NS_9allocatorIS6_EEFvRNS2_16InferenceContextEEE18destroy_deallocateEv', symObjAddr: 0x20F50, symBinAddr: 0xBDE740, symSize: 0x4 }
  - { offsetInCU: 0xF3FB4, offset: 0x52FD02, size: 0x8, addend: 0x0, symName: '__ZNSt3__110__function6__funcIZN4onnx11GetOpSchemaINS2_14Det_Onnx_ver22EEENS2_8OpSchemaEvE4$_17NS_9allocatorIS6_EEFvRNS2_16InferenceContextEEEclESA_', symObjAddr: 0x20F54, symBinAddr: 0xBDE744, symSize: 0x46C }
  - { offsetInCU: 0xF4DB0, offset: 0x530AFE, size: 0x8, addend: 0x0, symName: '__ZNKSt3__110__function6__funcIZN4onnx11GetOpSchemaINS2_14Det_Onnx_ver22EEENS2_8OpSchemaEvE4$_17NS_9allocatorIS6_EEFvRNS2_16InferenceContextEEE6targetERKSt9type_info', symObjAddr: 0x213C0, symBinAddr: 0xBDEBB0, symSize: 0x60 }
  - { offsetInCU: 0xF4E35, offset: 0x530B83, size: 0x8, addend: 0x0, symName: '__ZNKSt3__110__function6__funcIZN4onnx11GetOpSchemaINS2_14Det_Onnx_ver22EEENS2_8OpSchemaEvE4$_17NS_9allocatorIS6_EEFvRNS2_16InferenceContextEEE11target_typeEv', symObjAddr: 0x21420, symBinAddr: 0xBDEC10, symSize: 0xC }
  - { offsetInCU: 0xF4E73, offset: 0x530BC1, size: 0x8, addend: 0x0, symName: '__ZNSt3__110__function6__funcIZN4onnx11GetOpSchemaINS2_36NegativeLogLikelihoodLoss_Onnx_ver22EEENS2_8OpSchemaEvE4$_18NS_9allocatorIS6_EEFvRNS2_16InferenceContextEEED1Ev', symObjAddr: 0x21844, symBinAddr: 0xBDEC1C, symSize: 0x4 }
  - { offsetInCU: 0xF4E9F, offset: 0x530BED, size: 0x8, addend: 0x0, symName: '__ZNSt3__110__function6__funcIZN4onnx11GetOpSchemaINS2_36NegativeLogLikelihoodLoss_Onnx_ver22EEENS2_8OpSchemaEvE4$_18NS_9allocatorIS6_EEFvRNS2_16InferenceContextEEED0Ev', symObjAddr: 0x21848, symBinAddr: 0xBDEC20, symSize: 0x4 }
  - { offsetInCU: 0xF4F59, offset: 0x530CA7, size: 0x8, addend: 0x0, symName: '__ZNKSt3__110__function6__funcIZN4onnx11GetOpSchemaINS2_36NegativeLogLikelihoodLoss_Onnx_ver22EEENS2_8OpSchemaEvE4$_18NS_9allocatorIS6_EEFvRNS2_16InferenceContextEEE7__cloneEv', symObjAddr: 0x2184C, symBinAddr: 0xBDEC24, symSize: 0x24 }
  - { offsetInCU: 0xF50A1, offset: 0x530DEF, size: 0x8, addend: 0x0, symName: '__ZNKSt3__110__function6__funcIZN4onnx11GetOpSchemaINS2_36NegativeLogLikelihoodLoss_Onnx_ver22EEENS2_8OpSchemaEvE4$_18NS_9allocatorIS6_EEFvRNS2_16InferenceContextEEE7__cloneEPNS0_6__baseISB_EE', symObjAddr: 0x21870, symBinAddr: 0xBDEC48, symSize: 0x10 }
  - { offsetInCU: 0xF50D7, offset: 0x530E25, size: 0x8, addend: 0x0, symName: '__ZNKSt3__110__function6__funcIZN4onnx11GetOpSchemaINS2_36NegativeLogLikelihoodLoss_Onnx_ver22EEENS2_8OpSchemaEvE4$_18NS_9allocatorIS6_EEFvRNS2_16InferenceContextEEE7__cloneEPNS0_6__baseISB_EE', symObjAddr: 0x21870, symBinAddr: 0xBDEC48, symSize: 0x10 }
  - { offsetInCU: 0xF50F3, offset: 0x530E41, size: 0x8, addend: 0x0, symName: '__ZNKSt3__110__function6__funcIZN4onnx11GetOpSchemaINS2_36NegativeLogLikelihoodLoss_Onnx_ver22EEENS2_8OpSchemaEvE4$_18NS_9allocatorIS6_EEFvRNS2_16InferenceContextEEE7__cloneEPNS0_6__baseISB_EE', symObjAddr: 0x21870, symBinAddr: 0xBDEC48, symSize: 0x10 }
  - { offsetInCU: 0xF510F, offset: 0x530E5D, size: 0x8, addend: 0x0, symName: '__ZNSt3__110__function6__funcIZN4onnx11GetOpSchemaINS2_36NegativeLogLikelihoodLoss_Onnx_ver22EEENS2_8OpSchemaEvE4$_18NS_9allocatorIS6_EEFvRNS2_16InferenceContextEEE7destroyEv', symObjAddr: 0x21880, symBinAddr: 0xBDEC58, symSize: 0x4 }
  - { offsetInCU: 0xF5160, offset: 0x530EAE, size: 0x8, addend: 0x0, symName: '__ZNSt3__110__function6__funcIZN4onnx11GetOpSchemaINS2_36NegativeLogLikelihoodLoss_Onnx_ver22EEENS2_8OpSchemaEvE4$_18NS_9allocatorIS6_EEFvRNS2_16InferenceContextEEE18destroy_deallocateEv', symObjAddr: 0x21884, symBinAddr: 0xBDEC5C, symSize: 0x4 }
  - { offsetInCU: 0xF5195, offset: 0x530EE3, size: 0x8, addend: 0x0, symName: '__ZNSt3__110__function6__funcIZN4onnx11GetOpSchemaINS2_36NegativeLogLikelihoodLoss_Onnx_ver22EEENS2_8OpSchemaEvE4$_18NS_9allocatorIS6_EEFvRNS2_16InferenceContextEEE18destroy_deallocateEv', symObjAddr: 0x21884, symBinAddr: 0xBDEC5C, symSize: 0x4 }
  - { offsetInCU: 0xF51B7, offset: 0x530F05, size: 0x8, addend: 0x0, symName: '__ZNSt3__110__function6__funcIZN4onnx11GetOpSchemaINS2_36NegativeLogLikelihoodLoss_Onnx_ver22EEENS2_8OpSchemaEvE4$_18NS_9allocatorIS6_EEFvRNS2_16InferenceContextEEE18destroy_deallocateEv', symObjAddr: 0x21884, symBinAddr: 0xBDEC5C, symSize: 0x4 }
  - { offsetInCU: 0xF51E2, offset: 0x530F30, size: 0x8, addend: 0x0, symName: '__ZNSt3__110__function6__funcIZN4onnx11GetOpSchemaINS2_36NegativeLogLikelihoodLoss_Onnx_ver22EEENS2_8OpSchemaEvE4$_18NS_9allocatorIS6_EEFvRNS2_16InferenceContextEEE18destroy_deallocateEv', symObjAddr: 0x21884, symBinAddr: 0xBDEC5C, symSize: 0x4 }
  - { offsetInCU: 0xF5208, offset: 0x530F56, size: 0x8, addend: 0x0, symName: '__ZNSt3__110__function6__funcIZN4onnx11GetOpSchemaINS2_36NegativeLogLikelihoodLoss_Onnx_ver22EEENS2_8OpSchemaEvE4$_18NS_9allocatorIS6_EEFvRNS2_16InferenceContextEEE18destroy_deallocateEv', symObjAddr: 0x21884, symBinAddr: 0xBDEC5C, symSize: 0x4 }
  - { offsetInCU: 0xF5352, offset: 0x5310A0, size: 0x8, addend: 0x0, symName: '__ZNSt3__110__function6__funcIZN4onnx11GetOpSchemaINS2_36NegativeLogLikelihoodLoss_Onnx_ver22EEENS2_8OpSchemaEvE4$_18NS_9allocatorIS6_EEFvRNS2_16InferenceContextEEEclESA_', symObjAddr: 0x21888, symBinAddr: 0xBDEC60, symSize: 0x940 }
  - { offsetInCU: 0xF722E, offset: 0x532F7C, size: 0x8, addend: 0x0, symName: '__ZNKSt3__110__function6__funcIZN4onnx11GetOpSchemaINS2_36NegativeLogLikelihoodLoss_Onnx_ver22EEENS2_8OpSchemaEvE4$_18NS_9allocatorIS6_EEFvRNS2_16InferenceContextEEE6targetERKSt9type_info', symObjAddr: 0x221C8, symBinAddr: 0xBDF5A0, symSize: 0x60 }
  - { offsetInCU: 0xF72B3, offset: 0x533001, size: 0x8, addend: 0x0, symName: '__ZNKSt3__110__function6__funcIZN4onnx11GetOpSchemaINS2_36NegativeLogLikelihoodLoss_Onnx_ver22EEENS2_8OpSchemaEvE4$_18NS_9allocatorIS6_EEFvRNS2_16InferenceContextEEE11target_typeEv', symObjAddr: 0x22228, symBinAddr: 0xBDF600, symSize: 0xC }
  - { offsetInCU: 0xF7566, offset: 0x5332B4, size: 0x8, addend: 0x0, symName: '__ZNSt3__110__function6__funcIZN4onnx11GetOpSchemaINS2_17Einsum_Onnx_ver12EEENS2_8OpSchemaEvE4$_20NS_9allocatorIS6_EEFvRNS2_16InferenceContextEEED1Ev', symObjAddr: 0x22D18, symBinAddr: 0xBDFF90, symSize: 0x4 }
  - { offsetInCU: 0xF7592, offset: 0x5332E0, size: 0x8, addend: 0x0, symName: '__ZNSt3__110__function6__funcIZN4onnx11GetOpSchemaINS2_17Einsum_Onnx_ver12EEENS2_8OpSchemaEvE4$_20NS_9allocatorIS6_EEFvRNS2_16InferenceContextEEED0Ev', symObjAddr: 0x22D1C, symBinAddr: 0xBDFF94, symSize: 0x4 }
  - { offsetInCU: 0xF764C, offset: 0x53339A, size: 0x8, addend: 0x0, symName: '__ZNKSt3__110__function6__funcIZN4onnx11GetOpSchemaINS2_17Einsum_Onnx_ver12EEENS2_8OpSchemaEvE4$_20NS_9allocatorIS6_EEFvRNS2_16InferenceContextEEE7__cloneEv', symObjAddr: 0x22D20, symBinAddr: 0xBDFF98, symSize: 0x24 }
  - { offsetInCU: 0xF7794, offset: 0x5334E2, size: 0x8, addend: 0x0, symName: '__ZNKSt3__110__function6__funcIZN4onnx11GetOpSchemaINS2_17Einsum_Onnx_ver12EEENS2_8OpSchemaEvE4$_20NS_9allocatorIS6_EEFvRNS2_16InferenceContextEEE7__cloneEPNS0_6__baseISB_EE', symObjAddr: 0x22D44, symBinAddr: 0xBDFFBC, symSize: 0x10 }
  - { offsetInCU: 0xF77CA, offset: 0x533518, size: 0x8, addend: 0x0, symName: '__ZNKSt3__110__function6__funcIZN4onnx11GetOpSchemaINS2_17Einsum_Onnx_ver12EEENS2_8OpSchemaEvE4$_20NS_9allocatorIS6_EEFvRNS2_16InferenceContextEEE7__cloneEPNS0_6__baseISB_EE', symObjAddr: 0x22D44, symBinAddr: 0xBDFFBC, symSize: 0x10 }
  - { offsetInCU: 0xF77E6, offset: 0x533534, size: 0x8, addend: 0x0, symName: '__ZNKSt3__110__function6__funcIZN4onnx11GetOpSchemaINS2_17Einsum_Onnx_ver12EEENS2_8OpSchemaEvE4$_20NS_9allocatorIS6_EEFvRNS2_16InferenceContextEEE7__cloneEPNS0_6__baseISB_EE', symObjAddr: 0x22D44, symBinAddr: 0xBDFFBC, symSize: 0x10 }
  - { offsetInCU: 0xF7802, offset: 0x533550, size: 0x8, addend: 0x0, symName: '__ZNSt3__110__function6__funcIZN4onnx11GetOpSchemaINS2_17Einsum_Onnx_ver12EEENS2_8OpSchemaEvE4$_20NS_9allocatorIS6_EEFvRNS2_16InferenceContextEEE7destroyEv', symObjAddr: 0x22D54, symBinAddr: 0xBDFFCC, symSize: 0x4 }
  - { offsetInCU: 0xF7853, offset: 0x5335A1, size: 0x8, addend: 0x0, symName: '__ZNSt3__110__function6__funcIZN4onnx11GetOpSchemaINS2_17Einsum_Onnx_ver12EEENS2_8OpSchemaEvE4$_20NS_9allocatorIS6_EEFvRNS2_16InferenceContextEEE18destroy_deallocateEv', symObjAddr: 0x22D58, symBinAddr: 0xBDFFD0, symSize: 0x4 }
  - { offsetInCU: 0xF7888, offset: 0x5335D6, size: 0x8, addend: 0x0, symName: '__ZNSt3__110__function6__funcIZN4onnx11GetOpSchemaINS2_17Einsum_Onnx_ver12EEENS2_8OpSchemaEvE4$_20NS_9allocatorIS6_EEFvRNS2_16InferenceContextEEE18destroy_deallocateEv', symObjAddr: 0x22D58, symBinAddr: 0xBDFFD0, symSize: 0x4 }
  - { offsetInCU: 0xF78AA, offset: 0x5335F8, size: 0x8, addend: 0x0, symName: '__ZNSt3__110__function6__funcIZN4onnx11GetOpSchemaINS2_17Einsum_Onnx_ver12EEENS2_8OpSchemaEvE4$_20NS_9allocatorIS6_EEFvRNS2_16InferenceContextEEE18destroy_deallocateEv', symObjAddr: 0x22D58, symBinAddr: 0xBDFFD0, symSize: 0x4 }
  - { offsetInCU: 0xF78D5, offset: 0x533623, size: 0x8, addend: 0x0, symName: '__ZNSt3__110__function6__funcIZN4onnx11GetOpSchemaINS2_17Einsum_Onnx_ver12EEENS2_8OpSchemaEvE4$_20NS_9allocatorIS6_EEFvRNS2_16InferenceContextEEE18destroy_deallocateEv', symObjAddr: 0x22D58, symBinAddr: 0xBDFFD0, symSize: 0x4 }
  - { offsetInCU: 0xF78FB, offset: 0x533649, size: 0x8, addend: 0x0, symName: '__ZNSt3__110__function6__funcIZN4onnx11GetOpSchemaINS2_17Einsum_Onnx_ver12EEENS2_8OpSchemaEvE4$_20NS_9allocatorIS6_EEFvRNS2_16InferenceContextEEE18destroy_deallocateEv', symObjAddr: 0x22D58, symBinAddr: 0xBDFFD0, symSize: 0x4 }
  - { offsetInCU: 0xF7BBE, offset: 0x53390C, size: 0x8, addend: 0x0, symName: '__ZNSt3__110__function6__funcIZN4onnx11GetOpSchemaINS2_17Einsum_Onnx_ver12EEENS2_8OpSchemaEvE4$_20NS_9allocatorIS6_EEFvRNS2_16InferenceContextEEEclESA_', symObjAddr: 0x22D5C, symBinAddr: 0xBDFFD4, symSize: 0x2B4 }
  - { offsetInCU: 0xF8952, offset: 0x5346A0, size: 0x8, addend: 0x0, symName: '__ZNKSt3__110__function6__funcIZN4onnx11GetOpSchemaINS2_17Einsum_Onnx_ver12EEENS2_8OpSchemaEvE4$_20NS_9allocatorIS6_EEFvRNS2_16InferenceContextEEE6targetERKSt9type_info', symObjAddr: 0x23010, symBinAddr: 0xBE0288, symSize: 0x60 }
  - { offsetInCU: 0xF89D7, offset: 0x534725, size: 0x8, addend: 0x0, symName: '__ZNKSt3__110__function6__funcIZN4onnx11GetOpSchemaINS2_17Einsum_Onnx_ver12EEENS2_8OpSchemaEvE4$_20NS_9allocatorIS6_EEFvRNS2_16InferenceContextEEE11target_typeEv', symObjAddr: 0x23070, symBinAddr: 0xBE02E8, symSize: 0xC }
  - { offsetInCU: 0xF89FC, offset: 0x53474A, size: 0x8, addend: 0x0, symName: '__ZNSt3__110__function6__funcIZN4onnx11GetOpSchemaINS2_34SoftmaxCrossEntropyLoss_Onnx_ver13EEENS2_8OpSchemaEvE4$_21NS_9allocatorIS6_EEFvRNS2_16InferenceContextEEED1Ev', symObjAddr: 0x2307C, symBinAddr: 0xBE02F4, symSize: 0x4 }
  - { offsetInCU: 0xF8A28, offset: 0x534776, size: 0x8, addend: 0x0, symName: '__ZNSt3__110__function6__funcIZN4onnx11GetOpSchemaINS2_34SoftmaxCrossEntropyLoss_Onnx_ver13EEENS2_8OpSchemaEvE4$_21NS_9allocatorIS6_EEFvRNS2_16InferenceContextEEED0Ev', symObjAddr: 0x23080, symBinAddr: 0xBE02F8, symSize: 0x4 }
  - { offsetInCU: 0xF8AE2, offset: 0x534830, size: 0x8, addend: 0x0, symName: '__ZNKSt3__110__function6__funcIZN4onnx11GetOpSchemaINS2_34SoftmaxCrossEntropyLoss_Onnx_ver13EEENS2_8OpSchemaEvE4$_21NS_9allocatorIS6_EEFvRNS2_16InferenceContextEEE7__cloneEv', symObjAddr: 0x23084, symBinAddr: 0xBE02FC, symSize: 0x24 }
  - { offsetInCU: 0xF8C2A, offset: 0x534978, size: 0x8, addend: 0x0, symName: '__ZNKSt3__110__function6__funcIZN4onnx11GetOpSchemaINS2_34SoftmaxCrossEntropyLoss_Onnx_ver13EEENS2_8OpSchemaEvE4$_21NS_9allocatorIS6_EEFvRNS2_16InferenceContextEEE7__cloneEPNS0_6__baseISB_EE', symObjAddr: 0x230A8, symBinAddr: 0xBE0320, symSize: 0x10 }
  - { offsetInCU: 0xF8C60, offset: 0x5349AE, size: 0x8, addend: 0x0, symName: '__ZNKSt3__110__function6__funcIZN4onnx11GetOpSchemaINS2_34SoftmaxCrossEntropyLoss_Onnx_ver13EEENS2_8OpSchemaEvE4$_21NS_9allocatorIS6_EEFvRNS2_16InferenceContextEEE7__cloneEPNS0_6__baseISB_EE', symObjAddr: 0x230A8, symBinAddr: 0xBE0320, symSize: 0x10 }
  - { offsetInCU: 0xF8C7C, offset: 0x5349CA, size: 0x8, addend: 0x0, symName: '__ZNKSt3__110__function6__funcIZN4onnx11GetOpSchemaINS2_34SoftmaxCrossEntropyLoss_Onnx_ver13EEENS2_8OpSchemaEvE4$_21NS_9allocatorIS6_EEFvRNS2_16InferenceContextEEE7__cloneEPNS0_6__baseISB_EE', symObjAddr: 0x230A8, symBinAddr: 0xBE0320, symSize: 0x10 }
  - { offsetInCU: 0xF8C98, offset: 0x5349E6, size: 0x8, addend: 0x0, symName: '__ZNSt3__110__function6__funcIZN4onnx11GetOpSchemaINS2_34SoftmaxCrossEntropyLoss_Onnx_ver13EEENS2_8OpSchemaEvE4$_21NS_9allocatorIS6_EEFvRNS2_16InferenceContextEEE7destroyEv', symObjAddr: 0x230B8, symBinAddr: 0xBE0330, symSize: 0x4 }
  - { offsetInCU: 0xF8CE9, offset: 0x534A37, size: 0x8, addend: 0x0, symName: '__ZNSt3__110__function6__funcIZN4onnx11GetOpSchemaINS2_34SoftmaxCrossEntropyLoss_Onnx_ver13EEENS2_8OpSchemaEvE4$_21NS_9allocatorIS6_EEFvRNS2_16InferenceContextEEE18destroy_deallocateEv', symObjAddr: 0x230BC, symBinAddr: 0xBE0334, symSize: 0x4 }
  - { offsetInCU: 0xF8D1E, offset: 0x534A6C, size: 0x8, addend: 0x0, symName: '__ZNSt3__110__function6__funcIZN4onnx11GetOpSchemaINS2_34SoftmaxCrossEntropyLoss_Onnx_ver13EEENS2_8OpSchemaEvE4$_21NS_9allocatorIS6_EEFvRNS2_16InferenceContextEEE18destroy_deallocateEv', symObjAddr: 0x230BC, symBinAddr: 0xBE0334, symSize: 0x4 }
  - { offsetInCU: 0xF8D40, offset: 0x534A8E, size: 0x8, addend: 0x0, symName: '__ZNSt3__110__function6__funcIZN4onnx11GetOpSchemaINS2_34SoftmaxCrossEntropyLoss_Onnx_ver13EEENS2_8OpSchemaEvE4$_21NS_9allocatorIS6_EEFvRNS2_16InferenceContextEEE18destroy_deallocateEv', symObjAddr: 0x230BC, symBinAddr: 0xBE0334, symSize: 0x4 }
  - { offsetInCU: 0xF8D6B, offset: 0x534AB9, size: 0x8, addend: 0x0, symName: '__ZNSt3__110__function6__funcIZN4onnx11GetOpSchemaINS2_34SoftmaxCrossEntropyLoss_Onnx_ver13EEENS2_8OpSchemaEvE4$_21NS_9allocatorIS6_EEFvRNS2_16InferenceContextEEE18destroy_deallocateEv', symObjAddr: 0x230BC, symBinAddr: 0xBE0334, symSize: 0x4 }
  - { offsetInCU: 0xF8D91, offset: 0x534ADF, size: 0x8, addend: 0x0, symName: '__ZNSt3__110__function6__funcIZN4onnx11GetOpSchemaINS2_34SoftmaxCrossEntropyLoss_Onnx_ver13EEENS2_8OpSchemaEvE4$_21NS_9allocatorIS6_EEFvRNS2_16InferenceContextEEE18destroy_deallocateEv', symObjAddr: 0x230BC, symBinAddr: 0xBE0334, symSize: 0x4 }
  - { offsetInCU: 0xF8E4B, offset: 0x534B99, size: 0x8, addend: 0x0, symName: '__ZNSt3__110__function6__funcIZN4onnx11GetOpSchemaINS2_34SoftmaxCrossEntropyLoss_Onnx_ver13EEENS2_8OpSchemaEvE4$_21NS_9allocatorIS6_EEFvRNS2_16InferenceContextEEEclESA_', symObjAddr: 0x230C0, symBinAddr: 0xBE0338, symSize: 0x2DC }
  - { offsetInCU: 0xF9C48, offset: 0x535996, size: 0x8, addend: 0x0, symName: '__ZNKSt3__110__function6__funcIZN4onnx11GetOpSchemaINS2_34SoftmaxCrossEntropyLoss_Onnx_ver13EEENS2_8OpSchemaEvE4$_21NS_9allocatorIS6_EEFvRNS2_16InferenceContextEEE6targetERKSt9type_info', symObjAddr: 0x2339C, symBinAddr: 0xBE0614, symSize: 0x60 }
  - { offsetInCU: 0xF9CCD, offset: 0x535A1B, size: 0x8, addend: 0x0, symName: '__ZNKSt3__110__function6__funcIZN4onnx11GetOpSchemaINS2_34SoftmaxCrossEntropyLoss_Onnx_ver13EEENS2_8OpSchemaEvE4$_21NS_9allocatorIS6_EEFvRNS2_16InferenceContextEEE11target_typeEv', symObjAddr: 0x233FC, symBinAddr: 0xBE0674, symSize: 0xC }
  - { offsetInCU: 0xF9CF2, offset: 0x535A40, size: 0x8, addend: 0x0, symName: '__ZNSt3__110__function6__funcIZN4onnx11GetOpSchemaINS2_14DFT_Onnx_ver20EEENS2_8OpSchemaEvE4$_22NS_9allocatorIS6_EEFvRNS2_16InferenceContextEEED1Ev', symObjAddr: 0x23408, symBinAddr: 0xBE0680, symSize: 0x4 }
  - { offsetInCU: 0xF9D1E, offset: 0x535A6C, size: 0x8, addend: 0x0, symName: '__ZNSt3__110__function6__funcIZN4onnx11GetOpSchemaINS2_14DFT_Onnx_ver20EEENS2_8OpSchemaEvE4$_22NS_9allocatorIS6_EEFvRNS2_16InferenceContextEEED0Ev', symObjAddr: 0x2340C, symBinAddr: 0xBE0684, symSize: 0x4 }
  - { offsetInCU: 0xF9DD8, offset: 0x535B26, size: 0x8, addend: 0x0, symName: '__ZNKSt3__110__function6__funcIZN4onnx11GetOpSchemaINS2_14DFT_Onnx_ver20EEENS2_8OpSchemaEvE4$_22NS_9allocatorIS6_EEFvRNS2_16InferenceContextEEE7__cloneEv', symObjAddr: 0x23410, symBinAddr: 0xBE0688, symSize: 0x24 }
  - { offsetInCU: 0xF9F20, offset: 0x535C6E, size: 0x8, addend: 0x0, symName: '__ZNKSt3__110__function6__funcIZN4onnx11GetOpSchemaINS2_14DFT_Onnx_ver20EEENS2_8OpSchemaEvE4$_22NS_9allocatorIS6_EEFvRNS2_16InferenceContextEEE7__cloneEPNS0_6__baseISB_EE', symObjAddr: 0x23434, symBinAddr: 0xBE06AC, symSize: 0x10 }
  - { offsetInCU: 0xF9F56, offset: 0x535CA4, size: 0x8, addend: 0x0, symName: '__ZNKSt3__110__function6__funcIZN4onnx11GetOpSchemaINS2_14DFT_Onnx_ver20EEENS2_8OpSchemaEvE4$_22NS_9allocatorIS6_EEFvRNS2_16InferenceContextEEE7__cloneEPNS0_6__baseISB_EE', symObjAddr: 0x23434, symBinAddr: 0xBE06AC, symSize: 0x10 }
  - { offsetInCU: 0xF9F72, offset: 0x535CC0, size: 0x8, addend: 0x0, symName: '__ZNKSt3__110__function6__funcIZN4onnx11GetOpSchemaINS2_14DFT_Onnx_ver20EEENS2_8OpSchemaEvE4$_22NS_9allocatorIS6_EEFvRNS2_16InferenceContextEEE7__cloneEPNS0_6__baseISB_EE', symObjAddr: 0x23434, symBinAddr: 0xBE06AC, symSize: 0x10 }
  - { offsetInCU: 0xF9F8E, offset: 0x535CDC, size: 0x8, addend: 0x0, symName: '__ZNSt3__110__function6__funcIZN4onnx11GetOpSchemaINS2_14DFT_Onnx_ver20EEENS2_8OpSchemaEvE4$_22NS_9allocatorIS6_EEFvRNS2_16InferenceContextEEE7destroyEv', symObjAddr: 0x23444, symBinAddr: 0xBE06BC, symSize: 0x4 }
  - { offsetInCU: 0xF9FDF, offset: 0x535D2D, size: 0x8, addend: 0x0, symName: '__ZNSt3__110__function6__funcIZN4onnx11GetOpSchemaINS2_14DFT_Onnx_ver20EEENS2_8OpSchemaEvE4$_22NS_9allocatorIS6_EEFvRNS2_16InferenceContextEEE18destroy_deallocateEv', symObjAddr: 0x23448, symBinAddr: 0xBE06C0, symSize: 0x4 }
  - { offsetInCU: 0xFA014, offset: 0x535D62, size: 0x8, addend: 0x0, symName: '__ZNSt3__110__function6__funcIZN4onnx11GetOpSchemaINS2_14DFT_Onnx_ver20EEENS2_8OpSchemaEvE4$_22NS_9allocatorIS6_EEFvRNS2_16InferenceContextEEE18destroy_deallocateEv', symObjAddr: 0x23448, symBinAddr: 0xBE06C0, symSize: 0x4 }
  - { offsetInCU: 0xFA036, offset: 0x535D84, size: 0x8, addend: 0x0, symName: '__ZNSt3__110__function6__funcIZN4onnx11GetOpSchemaINS2_14DFT_Onnx_ver20EEENS2_8OpSchemaEvE4$_22NS_9allocatorIS6_EEFvRNS2_16InferenceContextEEE18destroy_deallocateEv', symObjAddr: 0x23448, symBinAddr: 0xBE06C0, symSize: 0x4 }
  - { offsetInCU: 0xFA061, offset: 0x535DAF, size: 0x8, addend: 0x0, symName: '__ZNSt3__110__function6__funcIZN4onnx11GetOpSchemaINS2_14DFT_Onnx_ver20EEENS2_8OpSchemaEvE4$_22NS_9allocatorIS6_EEFvRNS2_16InferenceContextEEE18destroy_deallocateEv', symObjAddr: 0x23448, symBinAddr: 0xBE06C0, symSize: 0x4 }
  - { offsetInCU: 0xFA087, offset: 0x535DD5, size: 0x8, addend: 0x0, symName: '__ZNSt3__110__function6__funcIZN4onnx11GetOpSchemaINS2_14DFT_Onnx_ver20EEENS2_8OpSchemaEvE4$_22NS_9allocatorIS6_EEFvRNS2_16InferenceContextEEE18destroy_deallocateEv', symObjAddr: 0x23448, symBinAddr: 0xBE06C0, symSize: 0x4 }
  - { offsetInCU: 0xFA299, offset: 0x535FE7, size: 0x8, addend: 0x0, symName: '__ZNSt3__110__function6__funcIZN4onnx11GetOpSchemaINS2_14DFT_Onnx_ver20EEENS2_8OpSchemaEvE4$_22NS_9allocatorIS6_EEFvRNS2_16InferenceContextEEEclESA_', symObjAddr: 0x2344C, symBinAddr: 0xBE06C4, symSize: 0x98C }
  - { offsetInCU: 0xFC300, offset: 0x53804E, size: 0x8, addend: 0x0, symName: '__ZNKSt3__110__function6__funcIZN4onnx11GetOpSchemaINS2_14DFT_Onnx_ver20EEENS2_8OpSchemaEvE4$_22NS_9allocatorIS6_EEFvRNS2_16InferenceContextEEE6targetERKSt9type_info', symObjAddr: 0x23DD8, symBinAddr: 0xBE1050, symSize: 0x60 }
  - { offsetInCU: 0xFC385, offset: 0x5380D3, size: 0x8, addend: 0x0, symName: '__ZNKSt3__110__function6__funcIZN4onnx11GetOpSchemaINS2_14DFT_Onnx_ver20EEENS2_8OpSchemaEvE4$_22NS_9allocatorIS6_EEFvRNS2_16InferenceContextEEE11target_typeEv', symObjAddr: 0x23E38, symBinAddr: 0xBE10B0, symSize: 0xC }
  - { offsetInCU: 0xFC4BF, offset: 0x53820D, size: 0x8, addend: 0x0, symName: __ZNKSt3__16vectorIxNS_9allocatorIxEEE20__throw_out_of_rangeB8ue170006Ev, symObjAddr: 0x24C14, symBinAddr: 0xBE1CB4, symSize: 0x14 }
  - { offsetInCU: 0xFC4E8, offset: 0x538236, size: 0x8, addend: 0x0, symName: '__ZNSt3__110__function6__funcIZN4onnx29CosineSumWindowOpDocGeneratorEPKcE4$_23NS_9allocatorIS5_EEFvRNS2_8OpSchemaEEED1Ev', symObjAddr: 0x24C28, symBinAddr: 0xBE1CC8, symSize: 0x4 }
  - { offsetInCU: 0xFC4F3, offset: 0x538241, size: 0x8, addend: 0x0, symName: __ZNKSt3__16vectorIfNS_9allocatorIfEEE20__throw_out_of_rangeB8ue170006Ev, symObjAddr: 0x24BD8, symBinAddr: 0xBE1C78, symSize: 0x14 }
  - { offsetInCU: 0xFC51C, offset: 0x53826A, size: 0x8, addend: 0x0, symName: __ZNKSt3__16vectorIdNS_9allocatorIdEEE20__throw_out_of_rangeB8ue170006Ev, symObjAddr: 0x24BEC, symBinAddr: 0xBE1C8C, symSize: 0x14 }
  - { offsetInCU: 0xFC527, offset: 0x538275, size: 0x8, addend: 0x0, symName: __ZNKSt3__16vectorIdNS_9allocatorIdEEE20__throw_out_of_rangeB8ue170006Ev, symObjAddr: 0x24BEC, symBinAddr: 0xBE1C8C, symSize: 0x14 }
  - { offsetInCU: 0xFC550, offset: 0x53829E, size: 0x8, addend: 0x0, symName: __ZNKSt3__16vectorIiNS_9allocatorIiEEE20__throw_out_of_rangeB8ue170006Ev, symObjAddr: 0x24C00, symBinAddr: 0xBE1CA0, symSize: 0x14 }
  - { offsetInCU: 0xFC55B, offset: 0x5382A9, size: 0x8, addend: 0x0, symName: __ZNKSt3__16vectorIiNS_9allocatorIiEEE20__throw_out_of_rangeB8ue170006Ev, symObjAddr: 0x24C00, symBinAddr: 0xBE1CA0, symSize: 0x14 }
  - { offsetInCU: 0xFC584, offset: 0x5382D2, size: 0x8, addend: 0x0, symName: __ZNKSt3__16vectorIxNS_9allocatorIxEEE20__throw_out_of_rangeB8ue170006Ev, symObjAddr: 0x24C14, symBinAddr: 0xBE1CB4, symSize: 0x14 }
  - { offsetInCU: 0xFC5C1, offset: 0x53830F, size: 0x8, addend: 0x0, symName: '__ZNSt3__110__function6__funcIZN4onnx29CosineSumWindowOpDocGeneratorEPKcE4$_23NS_9allocatorIS5_EEFvRNS2_8OpSchemaEEED1Ev', symObjAddr: 0x24C28, symBinAddr: 0xBE1CC8, symSize: 0x4 }
  - { offsetInCU: 0xFC5ED, offset: 0x53833B, size: 0x8, addend: 0x0, symName: '__ZNSt3__110__function6__funcIZN4onnx29CosineSumWindowOpDocGeneratorEPKcE4$_23NS_9allocatorIS5_EEFvRNS2_8OpSchemaEEED0Ev', symObjAddr: 0x24C2C, symBinAddr: 0xBE1CCC, symSize: 0x4 }
  - { offsetInCU: 0xFC6A7, offset: 0x5383F5, size: 0x8, addend: 0x0, symName: '__ZNKSt3__110__function6__funcIZN4onnx29CosineSumWindowOpDocGeneratorEPKcE4$_23NS_9allocatorIS5_EEFvRNS2_8OpSchemaEEE7__cloneEv', symObjAddr: 0x24C30, symBinAddr: 0xBE1CD0, symSize: 0x34 }
  - { offsetInCU: 0xFC7F3, offset: 0x538541, size: 0x8, addend: 0x0, symName: '__ZNKSt3__110__function6__funcIZN4onnx29CosineSumWindowOpDocGeneratorEPKcE4$_23NS_9allocatorIS5_EEFvRNS2_8OpSchemaEEE7__cloneEPNS0_6__baseISA_EE', symObjAddr: 0x24C64, symBinAddr: 0xBE1D04, symSize: 0x14 }
  - { offsetInCU: 0xFC863, offset: 0x5385B1, size: 0x8, addend: 0x0, symName: '__ZNSt3__110__function6__funcIZN4onnx29CosineSumWindowOpDocGeneratorEPKcE4$_23NS_9allocatorIS5_EEFvRNS2_8OpSchemaEEE7destroyEv', symObjAddr: 0x24C78, symBinAddr: 0xBE1D18, symSize: 0x4 }
  - { offsetInCU: 0xFC8B4, offset: 0x538602, size: 0x8, addend: 0x0, symName: '__ZNSt3__110__function6__funcIZN4onnx29CosineSumWindowOpDocGeneratorEPKcE4$_23NS_9allocatorIS5_EEFvRNS2_8OpSchemaEEE18destroy_deallocateEv', symObjAddr: 0x24C7C, symBinAddr: 0xBE1D1C, symSize: 0x4 }
  - { offsetInCU: 0xFC8E9, offset: 0x538637, size: 0x8, addend: 0x0, symName: '__ZNSt3__110__function6__funcIZN4onnx29CosineSumWindowOpDocGeneratorEPKcE4$_23NS_9allocatorIS5_EEFvRNS2_8OpSchemaEEE18destroy_deallocateEv', symObjAddr: 0x24C7C, symBinAddr: 0xBE1D1C, symSize: 0x4 }
  - { offsetInCU: 0xFC90B, offset: 0x538659, size: 0x8, addend: 0x0, symName: '__ZNSt3__110__function6__funcIZN4onnx29CosineSumWindowOpDocGeneratorEPKcE4$_23NS_9allocatorIS5_EEFvRNS2_8OpSchemaEEE18destroy_deallocateEv', symObjAddr: 0x24C7C, symBinAddr: 0xBE1D1C, symSize: 0x4 }
  - { offsetInCU: 0xFC936, offset: 0x538684, size: 0x8, addend: 0x0, symName: '__ZNSt3__110__function6__funcIZN4onnx29CosineSumWindowOpDocGeneratorEPKcE4$_23NS_9allocatorIS5_EEFvRNS2_8OpSchemaEEE18destroy_deallocateEv', symObjAddr: 0x24C7C, symBinAddr: 0xBE1D1C, symSize: 0x4 }
  - { offsetInCU: 0xFC95C, offset: 0x5386AA, size: 0x8, addend: 0x0, symName: '__ZNSt3__110__function6__funcIZN4onnx29CosineSumWindowOpDocGeneratorEPKcE4$_23NS_9allocatorIS5_EEFvRNS2_8OpSchemaEEE18destroy_deallocateEv', symObjAddr: 0x24C7C, symBinAddr: 0xBE1D1C, symSize: 0x4 }
  - { offsetInCU: 0xFCBD8, offset: 0x538926, size: 0x8, addend: 0x0, symName: '__ZNSt3__110__function6__funcIZN4onnx29CosineSumWindowOpDocGeneratorEPKcE4$_23NS_9allocatorIS5_EEFvRNS2_8OpSchemaEEEclES9_', symObjAddr: 0x24C80, symBinAddr: 0xBE1D20, symSize: 0x394 }
  - { offsetInCU: 0xFE1CA, offset: 0x539F18, size: 0x8, addend: 0x0, symName: '__ZNKSt3__110__function6__funcIZN4onnx29CosineSumWindowOpDocGeneratorEPKcE4$_23NS_9allocatorIS5_EEFvRNS2_8OpSchemaEEE6targetERKSt9type_info', symObjAddr: 0x25014, symBinAddr: 0xBE20B4, symSize: 0x60 }
  - { offsetInCU: 0xFE24F, offset: 0x539F9D, size: 0x8, addend: 0x0, symName: '__ZNKSt3__110__function6__funcIZN4onnx29CosineSumWindowOpDocGeneratorEPKcE4$_23NS_9allocatorIS5_EEFvRNS2_8OpSchemaEEE11target_typeEv', symObjAddr: 0x25074, symBinAddr: 0xBE2114, symSize: 0xC }
  - { offsetInCU: 0xFE274, offset: 0x539FC2, size: 0x8, addend: 0x0, symName: '__ZNSt3__110__function6__funcIZZN4onnx29CosineSumWindowOpDocGeneratorEPKcENK4$_23clERNS2_8OpSchemaEEUlRNS2_16InferenceContextEE_NS_9allocatorISA_EEFvS9_EED1Ev', symObjAddr: 0x25080, symBinAddr: 0xBE2120, symSize: 0x4 }
  - { offsetInCU: 0xFE2A0, offset: 0x539FEE, size: 0x8, addend: 0x0, symName: '__ZNSt3__110__function6__funcIZZN4onnx29CosineSumWindowOpDocGeneratorEPKcENK4$_23clERNS2_8OpSchemaEEUlRNS2_16InferenceContextEE_NS_9allocatorISA_EEFvS9_EED0Ev', symObjAddr: 0x25084, symBinAddr: 0xBE2124, symSize: 0x4 }
  - { offsetInCU: 0xFE35A, offset: 0x53A0A8, size: 0x8, addend: 0x0, symName: '__ZNKSt3__110__function6__funcIZZN4onnx29CosineSumWindowOpDocGeneratorEPKcENK4$_23clERNS2_8OpSchemaEEUlRNS2_16InferenceContextEE_NS_9allocatorISA_EEFvS9_EE7__cloneEv', symObjAddr: 0x25088, symBinAddr: 0xBE2128, symSize: 0x24 }
  - { offsetInCU: 0xFE4A2, offset: 0x53A1F0, size: 0x8, addend: 0x0, symName: '__ZNKSt3__110__function6__funcIZZN4onnx29CosineSumWindowOpDocGeneratorEPKcENK4$_23clERNS2_8OpSchemaEEUlRNS2_16InferenceContextEE_NS_9allocatorISA_EEFvS9_EE7__cloneEPNS0_6__baseISD_EE', symObjAddr: 0x250AC, symBinAddr: 0xBE214C, symSize: 0x10 }
  - { offsetInCU: 0xFE4D8, offset: 0x53A226, size: 0x8, addend: 0x0, symName: '__ZNKSt3__110__function6__funcIZZN4onnx29CosineSumWindowOpDocGeneratorEPKcENK4$_23clERNS2_8OpSchemaEEUlRNS2_16InferenceContextEE_NS_9allocatorISA_EEFvS9_EE7__cloneEPNS0_6__baseISD_EE', symObjAddr: 0x250AC, symBinAddr: 0xBE214C, symSize: 0x10 }
  - { offsetInCU: 0xFE4F4, offset: 0x53A242, size: 0x8, addend: 0x0, symName: '__ZNKSt3__110__function6__funcIZZN4onnx29CosineSumWindowOpDocGeneratorEPKcENK4$_23clERNS2_8OpSchemaEEUlRNS2_16InferenceContextEE_NS_9allocatorISA_EEFvS9_EE7__cloneEPNS0_6__baseISD_EE', symObjAddr: 0x250AC, symBinAddr: 0xBE214C, symSize: 0x10 }
  - { offsetInCU: 0xFE510, offset: 0x53A25E, size: 0x8, addend: 0x0, symName: '__ZNSt3__110__function6__funcIZZN4onnx29CosineSumWindowOpDocGeneratorEPKcENK4$_23clERNS2_8OpSchemaEEUlRNS2_16InferenceContextEE_NS_9allocatorISA_EEFvS9_EE7destroyEv', symObjAddr: 0x250BC, symBinAddr: 0xBE215C, symSize: 0x4 }
  - { offsetInCU: 0xFE561, offset: 0x53A2AF, size: 0x8, addend: 0x0, symName: '__ZNSt3__110__function6__funcIZZN4onnx29CosineSumWindowOpDocGeneratorEPKcENK4$_23clERNS2_8OpSchemaEEUlRNS2_16InferenceContextEE_NS_9allocatorISA_EEFvS9_EE18destroy_deallocateEv', symObjAddr: 0x250C0, symBinAddr: 0xBE2160, symSize: 0x4 }
  - { offsetInCU: 0xFE596, offset: 0x53A2E4, size: 0x8, addend: 0x0, symName: '__ZNSt3__110__function6__funcIZZN4onnx29CosineSumWindowOpDocGeneratorEPKcENK4$_23clERNS2_8OpSchemaEEUlRNS2_16InferenceContextEE_NS_9allocatorISA_EEFvS9_EE18destroy_deallocateEv', symObjAddr: 0x250C0, symBinAddr: 0xBE2160, symSize: 0x4 }
  - { offsetInCU: 0xFE5B8, offset: 0x53A306, size: 0x8, addend: 0x0, symName: '__ZNSt3__110__function6__funcIZZN4onnx29CosineSumWindowOpDocGeneratorEPKcENK4$_23clERNS2_8OpSchemaEEUlRNS2_16InferenceContextEE_NS_9allocatorISA_EEFvS9_EE18destroy_deallocateEv', symObjAddr: 0x250C0, symBinAddr: 0xBE2160, symSize: 0x4 }
  - { offsetInCU: 0xFE5E3, offset: 0x53A331, size: 0x8, addend: 0x0, symName: '__ZNSt3__110__function6__funcIZZN4onnx29CosineSumWindowOpDocGeneratorEPKcENK4$_23clERNS2_8OpSchemaEEUlRNS2_16InferenceContextEE_NS_9allocatorISA_EEFvS9_EE18destroy_deallocateEv', symObjAddr: 0x250C0, symBinAddr: 0xBE2160, symSize: 0x4 }
  - { offsetInCU: 0xFE609, offset: 0x53A357, size: 0x8, addend: 0x0, symName: '__ZNSt3__110__function6__funcIZZN4onnx29CosineSumWindowOpDocGeneratorEPKcENK4$_23clERNS2_8OpSchemaEEUlRNS2_16InferenceContextEE_NS_9allocatorISA_EEFvS9_EE18destroy_deallocateEv', symObjAddr: 0x250C0, symBinAddr: 0xBE2160, symSize: 0x4 }
  - { offsetInCU: 0xFE6E7, offset: 0x53A435, size: 0x8, addend: 0x0, symName: '__ZNSt3__110__function6__funcIZZN4onnx29CosineSumWindowOpDocGeneratorEPKcENK4$_23clERNS2_8OpSchemaEEUlRNS2_16InferenceContextEE_NS_9allocatorISA_EEFvS9_EEclES9_', symObjAddr: 0x250C4, symBinAddr: 0xBE2164, symSize: 0x378 }
  - { offsetInCU: 0xFF281, offset: 0x53AFCF, size: 0x8, addend: 0x0, symName: '__ZNKSt3__110__function6__funcIZZN4onnx29CosineSumWindowOpDocGeneratorEPKcENK4$_23clERNS2_8OpSchemaEEUlRNS2_16InferenceContextEE_NS_9allocatorISA_EEFvS9_EE6targetERKSt9type_info', symObjAddr: 0x2543C, symBinAddr: 0xBE24DC, symSize: 0x60 }
  - { offsetInCU: 0xFF306, offset: 0x53B054, size: 0x8, addend: 0x0, symName: '__ZNKSt3__110__function6__funcIZZN4onnx29CosineSumWindowOpDocGeneratorEPKcENK4$_23clERNS2_8OpSchemaEEUlRNS2_16InferenceContextEE_NS_9allocatorISA_EEFvS9_EE11target_typeEv', symObjAddr: 0x2549C, symBinAddr: 0xBE253C, symSize: 0xC }
  - { offsetInCU: 0xFF32B, offset: 0x53B079, size: 0x8, addend: 0x0, symName: '__ZNSt3__110__function6__funcIZN4onnx11GetOpSchemaINS2_26MelWeightMatrix_Onnx_ver17EEENS2_8OpSchemaEvE4$_24NS_9allocatorIS6_EEFvRNS2_16InferenceContextEEED1Ev', symObjAddr: 0x254A8, symBinAddr: 0xBE2548, symSize: 0x4 }
  - { offsetInCU: 0xFF357, offset: 0x53B0A5, size: 0x8, addend: 0x0, symName: '__ZNSt3__110__function6__funcIZN4onnx11GetOpSchemaINS2_26MelWeightMatrix_Onnx_ver17EEENS2_8OpSchemaEvE4$_24NS_9allocatorIS6_EEFvRNS2_16InferenceContextEEED0Ev', symObjAddr: 0x254AC, symBinAddr: 0xBE254C, symSize: 0x4 }
  - { offsetInCU: 0xFF411, offset: 0x53B15F, size: 0x8, addend: 0x0, symName: '__ZNKSt3__110__function6__funcIZN4onnx11GetOpSchemaINS2_26MelWeightMatrix_Onnx_ver17EEENS2_8OpSchemaEvE4$_24NS_9allocatorIS6_EEFvRNS2_16InferenceContextEEE7__cloneEv', symObjAddr: 0x254B0, symBinAddr: 0xBE2550, symSize: 0x24 }
  - { offsetInCU: 0xFF559, offset: 0x53B2A7, size: 0x8, addend: 0x0, symName: '__ZNKSt3__110__function6__funcIZN4onnx11GetOpSchemaINS2_26MelWeightMatrix_Onnx_ver17EEENS2_8OpSchemaEvE4$_24NS_9allocatorIS6_EEFvRNS2_16InferenceContextEEE7__cloneEPNS0_6__baseISB_EE', symObjAddr: 0x254D4, symBinAddr: 0xBE2574, symSize: 0x10 }
  - { offsetInCU: 0xFF58F, offset: 0x53B2DD, size: 0x8, addend: 0x0, symName: '__ZNKSt3__110__function6__funcIZN4onnx11GetOpSchemaINS2_26MelWeightMatrix_Onnx_ver17EEENS2_8OpSchemaEvE4$_24NS_9allocatorIS6_EEFvRNS2_16InferenceContextEEE7__cloneEPNS0_6__baseISB_EE', symObjAddr: 0x254D4, symBinAddr: 0xBE2574, symSize: 0x10 }
  - { offsetInCU: 0xFF5AB, offset: 0x53B2F9, size: 0x8, addend: 0x0, symName: '__ZNKSt3__110__function6__funcIZN4onnx11GetOpSchemaINS2_26MelWeightMatrix_Onnx_ver17EEENS2_8OpSchemaEvE4$_24NS_9allocatorIS6_EEFvRNS2_16InferenceContextEEE7__cloneEPNS0_6__baseISB_EE', symObjAddr: 0x254D4, symBinAddr: 0xBE2574, symSize: 0x10 }
  - { offsetInCU: 0xFF5C7, offset: 0x53B315, size: 0x8, addend: 0x0, symName: '__ZNSt3__110__function6__funcIZN4onnx11GetOpSchemaINS2_26MelWeightMatrix_Onnx_ver17EEENS2_8OpSchemaEvE4$_24NS_9allocatorIS6_EEFvRNS2_16InferenceContextEEE7destroyEv', symObjAddr: 0x254E4, symBinAddr: 0xBE2584, symSize: 0x4 }
  - { offsetInCU: 0xFF618, offset: 0x53B366, size: 0x8, addend: 0x0, symName: '__ZNSt3__110__function6__funcIZN4onnx11GetOpSchemaINS2_26MelWeightMatrix_Onnx_ver17EEENS2_8OpSchemaEvE4$_24NS_9allocatorIS6_EEFvRNS2_16InferenceContextEEE18destroy_deallocateEv', symObjAddr: 0x254E8, symBinAddr: 0xBE2588, symSize: 0x4 }
  - { offsetInCU: 0xFF64D, offset: 0x53B39B, size: 0x8, addend: 0x0, symName: '__ZNSt3__110__function6__funcIZN4onnx11GetOpSchemaINS2_26MelWeightMatrix_Onnx_ver17EEENS2_8OpSchemaEvE4$_24NS_9allocatorIS6_EEFvRNS2_16InferenceContextEEE18destroy_deallocateEv', symObjAddr: 0x254E8, symBinAddr: 0xBE2588, symSize: 0x4 }
  - { offsetInCU: 0xFF66F, offset: 0x53B3BD, size: 0x8, addend: 0x0, symName: '__ZNSt3__110__function6__funcIZN4onnx11GetOpSchemaINS2_26MelWeightMatrix_Onnx_ver17EEENS2_8OpSchemaEvE4$_24NS_9allocatorIS6_EEFvRNS2_16InferenceContextEEE18destroy_deallocateEv', symObjAddr: 0x254E8, symBinAddr: 0xBE2588, symSize: 0x4 }
  - { offsetInCU: 0xFF69A, offset: 0x53B3E8, size: 0x8, addend: 0x0, symName: '__ZNSt3__110__function6__funcIZN4onnx11GetOpSchemaINS2_26MelWeightMatrix_Onnx_ver17EEENS2_8OpSchemaEvE4$_24NS_9allocatorIS6_EEFvRNS2_16InferenceContextEEE18destroy_deallocateEv', symObjAddr: 0x254E8, symBinAddr: 0xBE2588, symSize: 0x4 }
  - { offsetInCU: 0xFF6C0, offset: 0x53B40E, size: 0x8, addend: 0x0, symName: '__ZNSt3__110__function6__funcIZN4onnx11GetOpSchemaINS2_26MelWeightMatrix_Onnx_ver17EEENS2_8OpSchemaEvE4$_24NS_9allocatorIS6_EEFvRNS2_16InferenceContextEEE18destroy_deallocateEv', symObjAddr: 0x254E8, symBinAddr: 0xBE2588, symSize: 0x4 }
  - { offsetInCU: 0xFF7B8, offset: 0x53B506, size: 0x8, addend: 0x0, symName: '__ZNSt3__110__function6__funcIZN4onnx11GetOpSchemaINS2_26MelWeightMatrix_Onnx_ver17EEENS2_8OpSchemaEvE4$_24NS_9allocatorIS6_EEFvRNS2_16InferenceContextEEEclESA_', symObjAddr: 0x254EC, symBinAddr: 0xBE258C, symSize: 0x4CC }
  - { offsetInCU: 0x10063C, offset: 0x53C38A, size: 0x8, addend: 0x0, symName: '__ZNKSt3__110__function6__funcIZN4onnx11GetOpSchemaINS2_26MelWeightMatrix_Onnx_ver17EEENS2_8OpSchemaEvE4$_24NS_9allocatorIS6_EEFvRNS2_16InferenceContextEEE6targetERKSt9type_info', symObjAddr: 0x259B8, symBinAddr: 0xBE2A58, symSize: 0x60 }
  - { offsetInCU: 0x1006C1, offset: 0x53C40F, size: 0x8, addend: 0x0, symName: '__ZNKSt3__110__function6__funcIZN4onnx11GetOpSchemaINS2_26MelWeightMatrix_Onnx_ver17EEENS2_8OpSchemaEvE4$_24NS_9allocatorIS6_EEFvRNS2_16InferenceContextEEE11target_typeEv', symObjAddr: 0x25A18, symBinAddr: 0xBE2AB8, symSize: 0xC }
  - { offsetInCU: 0x1006E6, offset: 0x53C434, size: 0x8, addend: 0x0, symName: '__ZNSt3__110__function6__funcIZN4onnx11GetOpSchemaINS2_15STFT_Onnx_ver17EEENS2_8OpSchemaEvE4$_25NS_9allocatorIS6_EEFvRNS2_16InferenceContextEEED1Ev', symObjAddr: 0x25A24, symBinAddr: 0xBE2AC4, symSize: 0x4 }
  - { offsetInCU: 0x100712, offset: 0x53C460, size: 0x8, addend: 0x0, symName: '__ZNSt3__110__function6__funcIZN4onnx11GetOpSchemaINS2_15STFT_Onnx_ver17EEENS2_8OpSchemaEvE4$_25NS_9allocatorIS6_EEFvRNS2_16InferenceContextEEED0Ev', symObjAddr: 0x25A28, symBinAddr: 0xBE2AC8, symSize: 0x4 }
  - { offsetInCU: 0x1007CC, offset: 0x53C51A, size: 0x8, addend: 0x0, symName: '__ZNKSt3__110__function6__funcIZN4onnx11GetOpSchemaINS2_15STFT_Onnx_ver17EEENS2_8OpSchemaEvE4$_25NS_9allocatorIS6_EEFvRNS2_16InferenceContextEEE7__cloneEv', symObjAddr: 0x25A2C, symBinAddr: 0xBE2ACC, symSize: 0x24 }
  - { offsetInCU: 0x100914, offset: 0x53C662, size: 0x8, addend: 0x0, symName: '__ZNKSt3__110__function6__funcIZN4onnx11GetOpSchemaINS2_15STFT_Onnx_ver17EEENS2_8OpSchemaEvE4$_25NS_9allocatorIS6_EEFvRNS2_16InferenceContextEEE7__cloneEPNS0_6__baseISB_EE', symObjAddr: 0x25A50, symBinAddr: 0xBE2AF0, symSize: 0x10 }
  - { offsetInCU: 0x10094A, offset: 0x53C698, size: 0x8, addend: 0x0, symName: '__ZNKSt3__110__function6__funcIZN4onnx11GetOpSchemaINS2_15STFT_Onnx_ver17EEENS2_8OpSchemaEvE4$_25NS_9allocatorIS6_EEFvRNS2_16InferenceContextEEE7__cloneEPNS0_6__baseISB_EE', symObjAddr: 0x25A50, symBinAddr: 0xBE2AF0, symSize: 0x10 }
  - { offsetInCU: 0x100966, offset: 0x53C6B4, size: 0x8, addend: 0x0, symName: '__ZNKSt3__110__function6__funcIZN4onnx11GetOpSchemaINS2_15STFT_Onnx_ver17EEENS2_8OpSchemaEvE4$_25NS_9allocatorIS6_EEFvRNS2_16InferenceContextEEE7__cloneEPNS0_6__baseISB_EE', symObjAddr: 0x25A50, symBinAddr: 0xBE2AF0, symSize: 0x10 }
  - { offsetInCU: 0x100982, offset: 0x53C6D0, size: 0x8, addend: 0x0, symName: '__ZNSt3__110__function6__funcIZN4onnx11GetOpSchemaINS2_15STFT_Onnx_ver17EEENS2_8OpSchemaEvE4$_25NS_9allocatorIS6_EEFvRNS2_16InferenceContextEEE7destroyEv', symObjAddr: 0x25A60, symBinAddr: 0xBE2B00, symSize: 0x4 }
  - { offsetInCU: 0x1009D3, offset: 0x53C721, size: 0x8, addend: 0x0, symName: '__ZNSt3__110__function6__funcIZN4onnx11GetOpSchemaINS2_15STFT_Onnx_ver17EEENS2_8OpSchemaEvE4$_25NS_9allocatorIS6_EEFvRNS2_16InferenceContextEEE18destroy_deallocateEv', symObjAddr: 0x25A64, symBinAddr: 0xBE2B04, symSize: 0x4 }
  - { offsetInCU: 0x100A08, offset: 0x53C756, size: 0x8, addend: 0x0, symName: '__ZNSt3__110__function6__funcIZN4onnx11GetOpSchemaINS2_15STFT_Onnx_ver17EEENS2_8OpSchemaEvE4$_25NS_9allocatorIS6_EEFvRNS2_16InferenceContextEEE18destroy_deallocateEv', symObjAddr: 0x25A64, symBinAddr: 0xBE2B04, symSize: 0x4 }
  - { offsetInCU: 0x100A2A, offset: 0x53C778, size: 0x8, addend: 0x0, symName: '__ZNSt3__110__function6__funcIZN4onnx11GetOpSchemaINS2_15STFT_Onnx_ver17EEENS2_8OpSchemaEvE4$_25NS_9allocatorIS6_EEFvRNS2_16InferenceContextEEE18destroy_deallocateEv', symObjAddr: 0x25A64, symBinAddr: 0xBE2B04, symSize: 0x4 }
  - { offsetInCU: 0x100A55, offset: 0x53C7A3, size: 0x8, addend: 0x0, symName: '__ZNSt3__110__function6__funcIZN4onnx11GetOpSchemaINS2_15STFT_Onnx_ver17EEENS2_8OpSchemaEvE4$_25NS_9allocatorIS6_EEFvRNS2_16InferenceContextEEE18destroy_deallocateEv', symObjAddr: 0x25A64, symBinAddr: 0xBE2B04, symSize: 0x4 }
  - { offsetInCU: 0x100A7B, offset: 0x53C7C9, size: 0x8, addend: 0x0, symName: '__ZNSt3__110__function6__funcIZN4onnx11GetOpSchemaINS2_15STFT_Onnx_ver17EEENS2_8OpSchemaEvE4$_25NS_9allocatorIS6_EEFvRNS2_16InferenceContextEEE18destroy_deallocateEv', symObjAddr: 0x25A64, symBinAddr: 0xBE2B04, symSize: 0x4 }
  - { offsetInCU: 0x100BE1, offset: 0x53C92F, size: 0x8, addend: 0x0, symName: '__ZNSt3__110__function6__funcIZN4onnx11GetOpSchemaINS2_15STFT_Onnx_ver17EEENS2_8OpSchemaEvE4$_25NS_9allocatorIS6_EEFvRNS2_16InferenceContextEEEclESA_', symObjAddr: 0x25A68, symBinAddr: 0xBE2B08, symSize: 0x8A0 }
  - { offsetInCU: 0x1028DD, offset: 0x53E62B, size: 0x8, addend: 0x0, symName: '__ZNKSt3__110__function6__funcIZN4onnx11GetOpSchemaINS2_15STFT_Onnx_ver17EEENS2_8OpSchemaEvE4$_25NS_9allocatorIS6_EEFvRNS2_16InferenceContextEEE6targetERKSt9type_info', symObjAddr: 0x26308, symBinAddr: 0xBE33A8, symSize: 0x60 }
  - { offsetInCU: 0x102962, offset: 0x53E6B0, size: 0x8, addend: 0x0, symName: '__ZNKSt3__110__function6__funcIZN4onnx11GetOpSchemaINS2_15STFT_Onnx_ver17EEENS2_8OpSchemaEvE4$_25NS_9allocatorIS6_EEFvRNS2_16InferenceContextEEE11target_typeEv', symObjAddr: 0x26368, symBinAddr: 0xBE3408, symSize: 0xC }
  - { offsetInCU: 0x58, offset: 0x53FB3E, size: 0x8, addend: 0x0, symName: __ZN4onnx25reduction_doc_sce_opset12E, symObjAddr: 0x4A560, symBinAddr: 0x14F8EA8, symSize: 0x0 }
  - { offsetInCU: 0x72, offset: 0x53FB58, size: 0x8, addend: 0x0, symName: __ZN4onnx17kBroadcastDoc_oldE, symObjAddr: 0x4A568, symBinAddr: 0x14F8EB0, symSize: 0x0 }
  - { offsetInCU: 0xA37C, offset: 0x549E62, size: 0x8, addend: 0x0, symName: __ZN4onnx11GetOpSchemaINS_36NegativeLogLikelihoodLoss_Onnx_ver13EEENS_8OpSchemaEv, symObjAddr: 0x1078, symBinAddr: 0xBE42E4, symSize: 0x4B0 }
  - { offsetInCU: 0xB3EF, offset: 0x54AED5, size: 0x8, addend: 0x0, symName: __ZN4onnx11GetOpSchemaINS_14Det_Onnx_ver11EEENS_8OpSchemaEv, symObjAddr: 0x1634, symBinAddr: 0xBE4794, symSize: 0x29C }
  - { offsetInCU: 0xC0AB, offset: 0x54BB91, size: 0x8, addend: 0x0, symName: __ZN4onnx11GetOpSchemaINS_14Mod_Onnx_ver10EEENS_8OpSchemaEv, symObjAddr: 0x6664, symBinAddr: 0xBE968C, symSize: 0x404 }
  - { offsetInCU: 0xD759, offset: 0x54D23F, size: 0x8, addend: 0x0, symName: __ZN4onnx11GetOpSchemaINS_14Pow_Onnx_ver13EEENS_8OpSchemaEv, symObjAddr: 0x8CC8, symBinAddr: 0xBEB870, symSize: 0x49C }
  - { offsetInCU: 0xED48, offset: 0x54E82E, size: 0x8, addend: 0x0, symName: __ZN4onnx11GetOpSchemaINS_14Pow_Onnx_ver12EEENS_8OpSchemaEv, symObjAddr: 0x9164, symBinAddr: 0xBEBD0C, symSize: 0x494 }
  - { offsetInCU: 0x103DE, offset: 0x54FEC4, size: 0x8, addend: 0x0, symName: __ZN4onnx11GetOpSchemaINS_15Gemm_Onnx_ver11EEENS_8OpSchemaEv, symObjAddr: 0xA7E4, symBinAddr: 0xBED378, symSize: 0x63C }
  - { offsetInCU: 0x12263, offset: 0x551D49, size: 0x8, addend: 0x0, symName: __ZN4onnx11GetOpSchemaINS_16MatMul_Onnx_ver9EEENS_8OpSchemaEv, symObjAddr: 0xBFB8, symBinAddr: 0xBEE470, symSize: 0x2D8 }
  - { offsetInCU: 0x12C76, offset: 0x55275C, size: 0x8, addend: 0x0, symName: __ZN4onnx11GetOpSchemaINS_16Expand_Onnx_ver8EEENS_8OpSchemaEv, symObjAddr: 0xC290, symBinAddr: 0xBEE748, symSize: 0x3B0 }
  - { offsetInCU: 0x14372, offset: 0x553E58, size: 0x8, addend: 0x0, symName: __ZN4onnx11GetOpSchemaINS_36NegativeLogLikelihoodLoss_Onnx_ver12EEENS_8OpSchemaEv, symObjAddr: 0x18DF4, symBinAddr: 0xBFABE0, symSize: 0x4A4 }
  - { offsetInCU: 0x153F3, offset: 0x554ED9, size: 0x8, addend: 0x0, symName: __ZN4onnx11GetOpSchemaINS_34SoftmaxCrossEntropyLoss_Onnx_ver12EEENS_8OpSchemaEv, symObjAddr: 0x1B5D0, symBinAddr: 0xBFD3BC, symSize: 0x4D4 }
  - { offsetInCU: 0x166BD, offset: 0x5561A3, size: 0x8, addend: 0x0, symName: __ZN4onnx11GetOpSchemaINS_13Pow_Onnx_ver7EEENS_8OpSchemaEv, symObjAddr: 0x1D550, symBinAddr: 0xBFF300, symSize: 0x43C }
  - { offsetInCU: 0x17C84, offset: 0x55776A, size: 0x8, addend: 0x0, symName: __ZN4onnx11GetOpSchemaINS_14Gemm_Onnx_ver6EEENS_8OpSchemaEv, symObjAddr: 0x212B4, symBinAddr: 0xC03064, symSize: 0x3CC }
  - { offsetInCU: 0x1869F, offset: 0x558185, size: 0x8, addend: 0x0, symName: __ZN4onnx11GetOpSchemaINS_14Gemm_Onnx_ver7EEENS_8OpSchemaEv, symObjAddr: 0x21680, symBinAddr: 0xC03430, symSize: 0x554 }
  - { offsetInCU: 0x19B77, offset: 0x55965D, size: 0x8, addend: 0x0, symName: __ZN4onnx11GetOpSchemaINS_14Gemm_Onnx_ver9EEENS_8OpSchemaEv, symObjAddr: 0x21BD4, symBinAddr: 0xC03984, symSize: 0x560 }
  - { offsetInCU: 0x1B04F, offset: 0x55AB35, size: 0x8, addend: 0x0, symName: __ZN4onnx11GetOpSchemaINS_16MatMul_Onnx_ver1EEENS_8OpSchemaEv, symObjAddr: 0x22BB4, symBinAddr: 0xC04964, symSize: 0x2C8 }
  - { offsetInCU: 0x1BABA, offset: 0x55B5A0, size: 0x8, addend: 0x0, symName: __ZN4onnx11GetOpSchemaINS_14TopK_Onnx_ver1EEENS_8OpSchemaEv, symObjAddr: 0x22E7C, symBinAddr: 0xC04C2C, symSize: 0x344 }
  - { offsetInCU: 0x1C52D, offset: 0x55C013, size: 0x8, addend: 0x0, symName: __ZN4onnx11GetOpSchemaINS_15TopK_Onnx_ver10EEENS_8OpSchemaEv, symObjAddr: 0x231C0, symBinAddr: 0xC04F70, symSize: 0x354 }
  - { offsetInCU: 0x1D047, offset: 0x55CB2D, size: 0x8, addend: 0x0, symName: __ZN4onnx11GetOpSchemaINS_14DFT_Onnx_ver17EEENS_8OpSchemaEv, symObjAddr: 0x24680, symBinAddr: 0xC0641C, symSize: 0x3A8 }
  - { offsetInCU: 0x1DB6C, offset: 0x55D652, size: 0x8, addend: 0x0, symName: __ZN4onnx41BuildContextDependentFunctionBody_opset13ERKNS_24FunctionBodyBuildContextERKNS_8OpSchemaERNS_13FunctionProtoE, symObjAddr: 0x0, symBinAddr: 0xBE39CC, symSize: 0x918 }
  - { offsetInCU: 0x21543, offset: 0x561029, size: 0x8, addend: 0x0, symName: __ZN4onnx11GetOpSchemaINS_16Round_Onnx_ver11EEENS_8OpSchemaEv, symObjAddr: 0x18D0, symBinAddr: 0xBE4A30, symSize: 0x2A4 }
  - { offsetInCU: 0x22501, offset: 0x561FE7, size: 0x8, addend: 0x0, symName: __ZN4onnx11GetOpSchemaINS_15Atanh_Onnx_ver9EEENS_8OpSchemaEv, symObjAddr: 0x1C70, symBinAddr: 0xBE4CD4, symSize: 0x2A4 }
  - { offsetInCU: 0x22FD4, offset: 0x562ABA, size: 0x8, addend: 0x0, symName: __ZN4onnx11GetOpSchemaINS_15Acosh_Onnx_ver9EEENS_8OpSchemaEv, symObjAddr: 0x1F14, symBinAddr: 0xBE4F78, symSize: 0x2A4 }
  - { offsetInCU: 0x23AA7, offset: 0x56358D, size: 0x8, addend: 0x0, symName: __ZN4onnx11GetOpSchemaINS_15Asinh_Onnx_ver9EEENS_8OpSchemaEv, symObjAddr: 0x21B8, symBinAddr: 0xBE521C, symSize: 0x2A4 }
  - { offsetInCU: 0x2457A, offset: 0x564060, size: 0x8, addend: 0x0, symName: __ZN4onnx11GetOpSchemaINS_14Cosh_Onnx_ver9EEENS_8OpSchemaEv, symObjAddr: 0x245C, symBinAddr: 0xBE54C0, symSize: 0x2A4 }
  - { offsetInCU: 0x2504D, offset: 0x564B33, size: 0x8, addend: 0x0, symName: __ZN4onnx11GetOpSchemaINS_14Sinh_Onnx_ver9EEENS_8OpSchemaEv, symObjAddr: 0x2700, symBinAddr: 0xBE5764, symSize: 0x2A4 }
  - { offsetInCU: 0x25B20, offset: 0x565606, size: 0x8, addend: 0x0, symName: __ZN4onnx11GetOpSchemaINS_14Atan_Onnx_ver7EEENS_8OpSchemaEv, symObjAddr: 0x29A4, symBinAddr: 0xBE5A08, symSize: 0x2A4 }
  - { offsetInCU: 0x265F3, offset: 0x5660D9, size: 0x8, addend: 0x0, symName: __ZN4onnx11GetOpSchemaINS_14Acos_Onnx_ver7EEENS_8OpSchemaEv, symObjAddr: 0x2C48, symBinAddr: 0xBE5CAC, symSize: 0x2A4 }
  - { offsetInCU: 0x270C6, offset: 0x566BAC, size: 0x8, addend: 0x0, symName: __ZN4onnx11GetOpSchemaINS_14Asin_Onnx_ver7EEENS_8OpSchemaEv, symObjAddr: 0x2EEC, symBinAddr: 0xBE5F50, symSize: 0x2A4 }
  - { offsetInCU: 0x27B99, offset: 0x56767F, size: 0x8, addend: 0x0, symName: __ZN4onnx11GetOpSchemaINS_13Tan_Onnx_ver7EEENS_8OpSchemaEv, symObjAddr: 0x3190, symBinAddr: 0xBE61F4, symSize: 0x2A4 }
  - { offsetInCU: 0x2866C, offset: 0x568152, size: 0x8, addend: 0x0, symName: __ZN4onnx11GetOpSchemaINS_13Cos_Onnx_ver7EEENS_8OpSchemaEv, symObjAddr: 0x3434, symBinAddr: 0xBE6498, symSize: 0x2A4 }
  - { offsetInCU: 0x2913F, offset: 0x568C25, size: 0x8, addend: 0x0, symName: __ZN4onnx11GetOpSchemaINS_13Sin_Onnx_ver7EEENS_8OpSchemaEv, symObjAddr: 0x36D8, symBinAddr: 0xBE673C, symSize: 0x2A4 }
  - { offsetInCU: 0x29C12, offset: 0x5696F8, size: 0x8, addend: 0x0, symName: __ZN4onnx11GetOpSchemaINS_18Softplus_Onnx_ver1EEENS_8OpSchemaEv, symObjAddr: 0x397C, symBinAddr: 0xBE69E0, symSize: 0x2B4 }
  - { offsetInCU: 0x2A6E5, offset: 0x56A1CB, size: 0x8, addend: 0x0, symName: __ZN4onnx11GetOpSchemaINS_18Softsign_Onnx_ver1EEENS_8OpSchemaEv, symObjAddr: 0x3C30, symBinAddr: 0xBE6C94, symSize: 0x2B4 }
  - { offsetInCU: 0x2B1B8, offset: 0x56AC9E, size: 0x8, addend: 0x0, symName: __ZN4onnx11GetOpSchemaINS_20HardSwish_Onnx_ver14EEENS_8OpSchemaEv, symObjAddr: 0x3EE4, symBinAddr: 0xBE6F48, symSize: 0x2B4 }
  - { offsetInCU: 0x2BC8B, offset: 0x56B771, size: 0x8, addend: 0x0, symName: __ZN4onnx11GetOpSchemaINS_21HardSigmoid_Onnx_ver6EEENS_8OpSchemaEv, symObjAddr: 0x4198, symBinAddr: 0xBE71FC, symSize: 0x31C }
  - { offsetInCU: 0x2C739, offset: 0x56C21F, size: 0x8, addend: 0x0, symName: __ZN4onnx11GetOpSchemaINS_15Mish_Onnx_ver18EEENS_8OpSchemaEv, symObjAddr: 0x44B4, symBinAddr: 0xBE7518, symSize: 0x2B4 }
  - { offsetInCU: 0x2D20C, offset: 0x56CCF2, size: 0x8, addend: 0x0, symName: __ZN4onnx11GetOpSchemaINS_13Elu_Onnx_ver6EEENS_8OpSchemaEv, symObjAddr: 0x4768, symBinAddr: 0xBE77CC, symSize: 0x2D4 }
  - { offsetInCU: 0x2DCD9, offset: 0x56D7BF, size: 0x8, addend: 0x0, symName: __ZN4onnx11GetOpSchemaINS_14Selu_Onnx_ver6EEENS_8OpSchemaEv, symObjAddr: 0x4A3C, symBinAddr: 0xBE7AA0, symSize: 0x320 }
  - { offsetInCU: 0x2E787, offset: 0x56E26D, size: 0x8, addend: 0x0, symName: __ZN4onnx11GetOpSchemaINS_26ThresholdedRelu_Onnx_ver10EEENS_8OpSchemaEv, symObjAddr: 0x4D5C, symBinAddr: 0xBE7DC0, symSize: 0x2E0 }
  - { offsetInCU: 0x2F27A, offset: 0x56ED60, size: 0x8, addend: 0x0, symName: __ZN4onnx11GetOpSchemaINS_14Add_Onnx_ver13EEENS_8OpSchemaEv, symObjAddr: 0x5050, symBinAddr: 0xBE80A0, symSize: 0x1FC }
  - { offsetInCU: 0x2FD20, offset: 0x56F806, size: 0x8, addend: 0x0, symName: __ZN4onnx11GetOpSchemaINS_14Sub_Onnx_ver13EEENS_8OpSchemaEv, symObjAddr: 0x524C, symBinAddr: 0xBE829C, symSize: 0x1FC }
  - { offsetInCU: 0x307C6, offset: 0x5702AC, size: 0x8, addend: 0x0, symName: __ZN4onnx11GetOpSchemaINS_14Mul_Onnx_ver13EEENS_8OpSchemaEv, symObjAddr: 0x5448, symBinAddr: 0xBE8498, symSize: 0x1FC }
  - { offsetInCU: 0x3126C, offset: 0x570D52, size: 0x8, addend: 0x0, symName: __ZN4onnx11GetOpSchemaINS_14Div_Onnx_ver13EEENS_8OpSchemaEv, symObjAddr: 0x5644, symBinAddr: 0xBE8694, symSize: 0x1FC }
  - { offsetInCU: 0x31D32, offset: 0x571818, size: 0x8, addend: 0x0, symName: __ZN4onnx11GetOpSchemaINS_13Add_Onnx_ver7EEENS_8OpSchemaEv, symObjAddr: 0x5854, symBinAddr: 0xBE8890, symSize: 0x1FC }
  - { offsetInCU: 0x327D8, offset: 0x5722BE, size: 0x8, addend: 0x0, symName: __ZN4onnx11GetOpSchemaINS_13Sub_Onnx_ver7EEENS_8OpSchemaEv, symObjAddr: 0x5A50, symBinAddr: 0xBE8A8C, symSize: 0x1FC }
  - { offsetInCU: 0x3327E, offset: 0x572D64, size: 0x8, addend: 0x0, symName: __ZN4onnx11GetOpSchemaINS_13Mul_Onnx_ver7EEENS_8OpSchemaEv, symObjAddr: 0x5C4C, symBinAddr: 0xBE8C88, symSize: 0x1FC }
  - { offsetInCU: 0x33D24, offset: 0x57380A, size: 0x8, addend: 0x0, symName: __ZN4onnx11GetOpSchemaINS_13Div_Onnx_ver7EEENS_8OpSchemaEv, symObjAddr: 0x5E48, symBinAddr: 0xBE8E84, symSize: 0x1FC }
  - { offsetInCU: 0x347F7, offset: 0x5742DD, size: 0x8, addend: 0x0, symName: __ZN4onnx11GetOpSchemaINS_18Softmax_Onnx_ver11EEENS_8OpSchemaEv, symObjAddr: 0x6058, symBinAddr: 0xBE9080, symSize: 0x204 }
  - { offsetInCU: 0x3529E, offset: 0x574D84, size: 0x8, addend: 0x0, symName: __ZN4onnx11GetOpSchemaINS_21LogSoftmax_Onnx_ver11EEENS_8OpSchemaEv, symObjAddr: 0x625C, symBinAddr: 0xBE9284, symSize: 0x204 }
  - { offsetInCU: 0x35D45, offset: 0x57582B, size: 0x8, addend: 0x0, symName: __ZN4onnx11GetOpSchemaINS_18Hardmax_Onnx_ver11EEENS_8OpSchemaEv, symObjAddr: 0x6460, symBinAddr: 0xBE9488, symSize: 0x204 }
  - { offsetInCU: 0x367EC, offset: 0x5762D2, size: 0x8, addend: 0x0, symName: __ZN4onnx11GetOpSchemaINS_13Neg_Onnx_ver6EEENS_8OpSchemaEv, symObjAddr: 0x6EE8, symBinAddr: 0xBE9A90, symSize: 0x2B0 }
  - { offsetInCU: 0x37267, offset: 0x576D4D, size: 0x8, addend: 0x0, symName: __ZN4onnx11GetOpSchemaINS_13Abs_Onnx_ver6EEENS_8OpSchemaEv, symObjAddr: 0x7198, symBinAddr: 0xBE9D40, symSize: 0x390 }
  - { offsetInCU: 0x389C3, offset: 0x5784A9, size: 0x8, addend: 0x0, symName: __ZN4onnx11GetOpSchemaINS_20Reciprocal_Onnx_ver6EEENS_8OpSchemaEv, symObjAddr: 0x7528, symBinAddr: 0xBEA0D0, symSize: 0x2A0 }
  - { offsetInCU: 0x39496, offset: 0x578F7C, size: 0x8, addend: 0x0, symName: __ZN4onnx11GetOpSchemaINS_15Floor_Onnx_ver6EEENS_8OpSchemaEv, symObjAddr: 0x77C8, symBinAddr: 0xBEA370, symSize: 0x2A0 }
  - { offsetInCU: 0x39F69, offset: 0x579A4F, size: 0x8, addend: 0x0, symName: __ZN4onnx11GetOpSchemaINS_14Ceil_Onnx_ver6EEENS_8OpSchemaEv, symObjAddr: 0x7A68, symBinAddr: 0xBEA610, symSize: 0x2A0 }
  - { offsetInCU: 0x3AA3C, offset: 0x57A522, size: 0x8, addend: 0x0, symName: __ZN4onnx11GetOpSchemaINS_14Sqrt_Onnx_ver6EEENS_8OpSchemaEv, symObjAddr: 0x7D08, symBinAddr: 0xBEA8B0, symSize: 0x2A0 }
  - { offsetInCU: 0x3B50F, offset: 0x57AFF5, size: 0x8, addend: 0x0, symName: __ZN4onnx11GetOpSchemaINS_14Relu_Onnx_ver6EEENS_8OpSchemaEv, symObjAddr: 0x7FA8, symBinAddr: 0xBEAB50, symSize: 0x2A0 }
  - { offsetInCU: 0x3BFE2, offset: 0x57BAC8, size: 0x8, addend: 0x0, symName: __ZN4onnx11GetOpSchemaINS_15Relu_Onnx_ver13EEENS_8OpSchemaEv, symObjAddr: 0x8248, symBinAddr: 0xBEADF0, symSize: 0x2A0 }
  - { offsetInCU: 0x3CAB5, offset: 0x57C59B, size: 0x8, addend: 0x0, symName: __ZN4onnx11GetOpSchemaINS_13Exp_Onnx_ver6EEENS_8OpSchemaEv, symObjAddr: 0x84E8, symBinAddr: 0xBEB090, symSize: 0x2A0 }
  - { offsetInCU: 0x3D588, offset: 0x57D06E, size: 0x8, addend: 0x0, symName: __ZN4onnx11GetOpSchemaINS_13Log_Onnx_ver6EEENS_8OpSchemaEv, symObjAddr: 0x8788, symBinAddr: 0xBEB330, symSize: 0x2A0 }
  - { offsetInCU: 0x3E05B, offset: 0x57DB41, size: 0x8, addend: 0x0, symName: __ZN4onnx11GetOpSchemaINS_14Tanh_Onnx_ver6EEENS_8OpSchemaEv, symObjAddr: 0x8A28, symBinAddr: 0xBEB5D0, symSize: 0x2A0 }
  - { offsetInCU: 0x3EB40, offset: 0x57E626, size: 0x8, addend: 0x0, symName: __ZN4onnx11GetOpSchemaINS_17Sigmoid_Onnx_ver6EEENS_8OpSchemaEv, symObjAddr: 0x95F8, symBinAddr: 0xBEC1A0, symSize: 0x2A0 }
  - { offsetInCU: 0x3F633, offset: 0x57F119, size: 0x8, addend: 0x0, symName: __ZN4onnx11GetOpSchemaINS_14Max_Onnx_ver12EEENS_8OpSchemaEv, symObjAddr: 0x98AC, symBinAddr: 0xBEC440, symSize: 0x380 }
  - { offsetInCU: 0x40CF6, offset: 0x5807DC, size: 0x8, addend: 0x0, symName: __ZN4onnx11GetOpSchemaINS_14Min_Onnx_ver12EEENS_8OpSchemaEv, symObjAddr: 0x9C2C, symBinAddr: 0xBEC7C0, symSize: 0x380 }
  - { offsetInCU: 0x423B9, offset: 0x581E9F, size: 0x8, addend: 0x0, symName: __ZN4onnx11GetOpSchemaINS_13Sum_Onnx_ver8EEENS_8OpSchemaEv, symObjAddr: 0x9FAC, symBinAddr: 0xBECB40, symSize: 0x224 }
  - { offsetInCU: 0x42E88, offset: 0x58296E, size: 0x8, addend: 0x0, symName: __ZN4onnx11GetOpSchemaINS_14Mean_Onnx_ver8EEENS_8OpSchemaEv, symObjAddr: 0xA1D0, symBinAddr: 0xBECD64, symSize: 0x224 }
  - { offsetInCU: 0x43957, offset: 0x58343D, size: 0x8, addend: 0x0, symName: __ZN4onnx11GetOpSchemaINS_15Clip_Onnx_ver12EEENS_8OpSchemaEv, symObjAddr: 0xA3F4, symBinAddr: 0xBECF88, symSize: 0x3F0 }
  - { offsetInCU: 0x45BA8, offset: 0x58568E, size: 0x8, addend: 0x0, symName: __ZN4onnx28matmulShapeInference_opset_9ERNS_16InferenceContextEii, symObjAddr: 0xB10C, symBinAddr: 0xBED9B4, symSize: 0xABC }
  - { offsetInCU: 0x4933F, offset: 0x588E25, size: 0x8, addend: 0x0, symName: __ZN4onnx11GetOpSchemaINS_14Sign_Onnx_ver9EEENS_8OpSchemaEv, symObjAddr: 0xCB64, symBinAddr: 0xBEEAF8, symSize: 0x390 }
  - { offsetInCU: 0x4AA9B, offset: 0x58A581, size: 0x8, addend: 0x0, symName: __ZN4onnx11GetOpSchemaINS_13Erf_Onnx_ver9EEENS_8OpSchemaEv, symObjAddr: 0xCEF4, symBinAddr: 0xBEEE88, symSize: 0x390 }
  - { offsetInCU: 0x4C1F7, offset: 0x58BCDD, size: 0x8, addend: 0x0, symName: __ZN4onnx11GetOpSchemaINS_17CumSum_Onnx_ver11EEENS_8OpSchemaEv, symObjAddr: 0xD284, symBinAddr: 0xBEF218, symSize: 0x370 }
  - { offsetInCU: 0x4CC72, offset: 0x58C758, size: 0x8, addend: 0x0, symName: __ZN4onnx29ToDimensionOneFloatTensor_oldEf, symObjAddr: 0xD5F4, symBinAddr: 0xBEF588, symSize: 0x108 }
  - { offsetInCU: 0x4D2DF, offset: 0x58CDC5, size: 0x8, addend: 0x0, symName: __ZN4onnx24ToDimensionOneTensor_oldEi, symObjAddr: 0xD6FC, symBinAddr: 0xBEF690, symSize: 0x100 }
  - { offsetInCU: 0x4D94C, offset: 0x58D432, size: 0x8, addend: 0x0, symName: __ZN4onnx29ToDimensionOneInt64Tensor_oldEx, symObjAddr: 0xD7FC, symBinAddr: 0xBEF790, symSize: 0x100 }
  - { offsetInCU: 0x4DFB9, offset: 0x58DA9F, size: 0x8, addend: 0x0, symName: __ZN4onnx41BuildContextDependentFunctionBody_opset12ERKNS_24FunctionBodyBuildContextERKNS_8OpSchemaERNS_13FunctionProtoE, symObjAddr: 0xD9A0, symBinAddr: 0xBEF890, symSize: 0xB198 }
  - { offsetInCU: 0x8F67F, offset: 0x5CF165, size: 0x8, addend: 0x0, symName: __ZN4onnx44BuildContextDependentFunctionBodySCE_opset12ERKNS_24FunctionBodyBuildContextERKNS_8OpSchemaERNS_13FunctionProtoE, symObjAddr: 0x19298, symBinAddr: 0xBFB084, symSize: 0x2338 }
  - { offsetInCU: 0x9D8E4, offset: 0x5DD3CA, size: 0x8, addend: 0x0, symName: __ZN4onnx11GetOpSchemaINS_17Softmax_Onnx_ver1EEENS_8OpSchemaEv, symObjAddr: 0x1BAB8, symBinAddr: 0xBFD890, symSize: 0x204 }
  - { offsetInCU: 0x9E38B, offset: 0x5DDE71, size: 0x8, addend: 0x0, symName: __ZN4onnx11GetOpSchemaINS_20LogSoftmax_Onnx_ver1EEENS_8OpSchemaEv, symObjAddr: 0x1BCBC, symBinAddr: 0xBFDA94, symSize: 0x204 }
  - { offsetInCU: 0x9EE32, offset: 0x5DE918, size: 0x8, addend: 0x0, symName: __ZN4onnx11GetOpSchemaINS_17Hardmax_Onnx_ver1EEENS_8OpSchemaEv, symObjAddr: 0x1BEC0, symBinAddr: 0xBFDC98, symSize: 0x204 }
  - { offsetInCU: 0x9F8F9, offset: 0x5DF3DF, size: 0x8, addend: 0x0, symName: __ZN4onnx11GetOpSchemaINS_13Add_Onnx_ver1EEENS_8OpSchemaEv, symObjAddr: 0x1C0EC, symBinAddr: 0xBFDE9C, symSize: 0x1FC }
  - { offsetInCU: 0xA039F, offset: 0x5DFE85, size: 0x8, addend: 0x0, symName: __ZN4onnx11GetOpSchemaINS_13Sub_Onnx_ver1EEENS_8OpSchemaEv, symObjAddr: 0x1C2E8, symBinAddr: 0xBFE098, symSize: 0x1FC }
  - { offsetInCU: 0xA0E45, offset: 0x5E092B, size: 0x8, addend: 0x0, symName: __ZN4onnx11GetOpSchemaINS_13Mul_Onnx_ver1EEENS_8OpSchemaEv, symObjAddr: 0x1C4E4, symBinAddr: 0xBFE294, symSize: 0x1FC }
  - { offsetInCU: 0xA18EB, offset: 0x5E13D1, size: 0x8, addend: 0x0, symName: __ZN4onnx11GetOpSchemaINS_13Div_Onnx_ver1EEENS_8OpSchemaEv, symObjAddr: 0x1C6E0, symBinAddr: 0xBFE490, symSize: 0x1FC }
  - { offsetInCU: 0xA23B1, offset: 0x5E1E97, size: 0x8, addend: 0x0, symName: __ZN4onnx11GetOpSchemaINS_13Add_Onnx_ver6EEENS_8OpSchemaEv, symObjAddr: 0x1C8DC, symBinAddr: 0xBFE68C, symSize: 0x1FC }
  - { offsetInCU: 0xA2E57, offset: 0x5E293D, size: 0x8, addend: 0x0, symName: __ZN4onnx11GetOpSchemaINS_13Sub_Onnx_ver6EEENS_8OpSchemaEv, symObjAddr: 0x1CAD8, symBinAddr: 0xBFE888, symSize: 0x1FC }
  - { offsetInCU: 0xA38FD, offset: 0x5E33E3, size: 0x8, addend: 0x0, symName: __ZN4onnx11GetOpSchemaINS_13Mul_Onnx_ver6EEENS_8OpSchemaEv, symObjAddr: 0x1CCD4, symBinAddr: 0xBFEA84, symSize: 0x1FC }
  - { offsetInCU: 0xA43A3, offset: 0x5E3E89, size: 0x8, addend: 0x0, symName: __ZN4onnx11GetOpSchemaINS_13Div_Onnx_ver6EEENS_8OpSchemaEv, symObjAddr: 0x1CED0, symBinAddr: 0xBFEC80, symSize: 0x1FC }
  - { offsetInCU: 0xA4E49, offset: 0x5E492F, size: 0x8, addend: 0x0, symName: __ZN4onnx11GetOpSchemaINS_13Pow_Onnx_ver1EEENS_8OpSchemaEv, symObjAddr: 0x1D0CC, symBinAddr: 0xBFEE7C, symSize: 0x484 }
  - { offsetInCU: 0xA616C, offset: 0x5E5C52, size: 0x8, addend: 0x0, symName: __ZN4onnx11GetOpSchemaINS_13Neg_Onnx_ver1EEENS_8OpSchemaEv, symObjAddr: 0x1D98C, symBinAddr: 0xBFF73C, symSize: 0x228 }
  - { offsetInCU: 0xA69C0, offset: 0x5E64A6, size: 0x8, addend: 0x0, symName: __ZN4onnx11GetOpSchemaINS_13Abs_Onnx_ver1EEENS_8OpSchemaEv, symObjAddr: 0x1DBB4, symBinAddr: 0xBFF964, symSize: 0x228 }
  - { offsetInCU: 0xA7214, offset: 0x5E6CFA, size: 0x8, addend: 0x0, symName: __ZN4onnx11GetOpSchemaINS_20Reciprocal_Onnx_ver1EEENS_8OpSchemaEv, symObjAddr: 0x1DDDC, symBinAddr: 0xBFFB8C, symSize: 0x228 }
  - { offsetInCU: 0xA7A68, offset: 0x5E754E, size: 0x8, addend: 0x0, symName: __ZN4onnx11GetOpSchemaINS_15Floor_Onnx_ver1EEENS_8OpSchemaEv, symObjAddr: 0x1E004, symBinAddr: 0xBFFDB4, symSize: 0x228 }
  - { offsetInCU: 0xA82BC, offset: 0x5E7DA2, size: 0x8, addend: 0x0, symName: __ZN4onnx11GetOpSchemaINS_14Ceil_Onnx_ver1EEENS_8OpSchemaEv, symObjAddr: 0x1E22C, symBinAddr: 0xBFFFDC, symSize: 0x228 }
  - { offsetInCU: 0xA8B10, offset: 0x5E85F6, size: 0x8, addend: 0x0, symName: __ZN4onnx11GetOpSchemaINS_14Sqrt_Onnx_ver1EEENS_8OpSchemaEv, symObjAddr: 0x1E454, symBinAddr: 0xC00204, symSize: 0x228 }
  - { offsetInCU: 0xA9364, offset: 0x5E8E4A, size: 0x8, addend: 0x0, symName: __ZN4onnx11GetOpSchemaINS_14Relu_Onnx_ver1EEENS_8OpSchemaEv, symObjAddr: 0x1E67C, symBinAddr: 0xC0042C, symSize: 0x228 }
  - { offsetInCU: 0xA9BB8, offset: 0x5E969E, size: 0x8, addend: 0x0, symName: __ZN4onnx11GetOpSchemaINS_19LeakyRelu_Onnx_ver1EEENS_8OpSchemaEv, symObjAddr: 0x1E8A4, symBinAddr: 0xC00654, symSize: 0x250 }
  - { offsetInCU: 0xAA407, offset: 0x5E9EED, size: 0x8, addend: 0x0, symName: __ZN4onnx11GetOpSchemaINS_14Selu_Onnx_ver1EEENS_8OpSchemaEv, symObjAddr: 0x1EAF4, symBinAddr: 0xC008A4, symSize: 0x288 }
  - { offsetInCU: 0xAAC37, offset: 0x5EA71D, size: 0x8, addend: 0x0, symName: __ZN4onnx11GetOpSchemaINS_13Elu_Onnx_ver1EEENS_8OpSchemaEv, symObjAddr: 0x1ED7C, symBinAddr: 0xC00B2C, symSize: 0x248 }
  - { offsetInCU: 0xAB486, offset: 0x5EAF6C, size: 0x8, addend: 0x0, symName: __ZN4onnx11GetOpSchemaINS_13Exp_Onnx_ver1EEENS_8OpSchemaEv, symObjAddr: 0x1EFC4, symBinAddr: 0xC00D74, symSize: 0x228 }
  - { offsetInCU: 0xABCDA, offset: 0x5EB7C0, size: 0x8, addend: 0x0, symName: __ZN4onnx11GetOpSchemaINS_13Log_Onnx_ver1EEENS_8OpSchemaEv, symObjAddr: 0x1F1EC, symBinAddr: 0xC00F9C, symSize: 0x228 }
  - { offsetInCU: 0xAC52E, offset: 0x5EC014, size: 0x8, addend: 0x0, symName: __ZN4onnx11GetOpSchemaINS_14Tanh_Onnx_ver1EEENS_8OpSchemaEv, symObjAddr: 0x1F414, symBinAddr: 0xC011C4, symSize: 0x228 }
  - { offsetInCU: 0xACD82, offset: 0x5EC868, size: 0x8, addend: 0x0, symName: __ZN4onnx11GetOpSchemaINS_15PRelu_Onnx_ver1EEENS_8OpSchemaEv, symObjAddr: 0x1F63C, symBinAddr: 0xC013EC, symSize: 0x258 }
  - { offsetInCU: 0xAD5D6, offset: 0x5ED0BC, size: 0x8, addend: 0x0, symName: __ZN4onnx11GetOpSchemaINS_15PRelu_Onnx_ver6EEENS_8OpSchemaEv, symObjAddr: 0x1F894, symBinAddr: 0xC01644, symSize: 0x2D0 }
  - { offsetInCU: 0xAE0A9, offset: 0x5EDB8F, size: 0x8, addend: 0x0, symName: __ZN4onnx11GetOpSchemaINS_15PRelu_Onnx_ver7EEENS_8OpSchemaEv, symObjAddr: 0x1FB64, symBinAddr: 0xC01914, symSize: 0x478 }
  - { offsetInCU: 0xAF5B5, offset: 0x5EF09B, size: 0x8, addend: 0x0, symName: __ZN4onnx11GetOpSchemaINS_17Sigmoid_Onnx_ver1EEENS_8OpSchemaEv, symObjAddr: 0x1FFDC, symBinAddr: 0xC01D8C, symSize: 0x228 }
  - { offsetInCU: 0xAFE09, offset: 0x5EF8EF, size: 0x8, addend: 0x0, symName: __ZN4onnx11GetOpSchemaINS_21HardSigmoid_Onnx_ver1EEENS_8OpSchemaEv, symObjAddr: 0x20204, symBinAddr: 0xC01FB4, symSize: 0x284 }
  - { offsetInCU: 0xB0639, offset: 0x5F011F, size: 0x8, addend: 0x0, symName: __ZN4onnx11GetOpSchemaINS_13Max_Onnx_ver1EEENS_8OpSchemaEv, symObjAddr: 0x20488, symBinAddr: 0xC02238, symSize: 0x228 }
  - { offsetInCU: 0xB0E8D, offset: 0x5F0973, size: 0x8, addend: 0x0, symName: __ZN4onnx11GetOpSchemaINS_13Min_Onnx_ver1EEENS_8OpSchemaEv, symObjAddr: 0x206B0, symBinAddr: 0xC02460, symSize: 0x228 }
  - { offsetInCU: 0xB16E1, offset: 0x5F11C7, size: 0x8, addend: 0x0, symName: __ZN4onnx11GetOpSchemaINS_13Sum_Onnx_ver1EEENS_8OpSchemaEv, symObjAddr: 0x208D8, symBinAddr: 0xC02688, symSize: 0x228 }
  - { offsetInCU: 0xB1F35, offset: 0x5F1A1B, size: 0x8, addend: 0x0, symName: __ZN4onnx11GetOpSchemaINS_14Mean_Onnx_ver1EEENS_8OpSchemaEv, symObjAddr: 0x20B00, symBinAddr: 0xC028B0, symSize: 0x228 }
  - { offsetInCU: 0xB2789, offset: 0x5F226F, size: 0x8, addend: 0x0, symName: __ZN4onnx11GetOpSchemaINS_14Clip_Onnx_ver1EEENS_8OpSchemaEv, symObjAddr: 0x20D28, symBinAddr: 0xC02AD8, symSize: 0x260 }
  - { offsetInCU: 0xB2FDD, offset: 0x5F2AC3, size: 0x8, addend: 0x0, symName: __ZN4onnx11GetOpSchemaINS_14Gemm_Onnx_ver1EEENS_8OpSchemaEv, symObjAddr: 0x20F88, symBinAddr: 0xC02D38, symSize: 0x32C }
  - { offsetInCU: 0xB384C, offset: 0x5F3332, size: 0x8, addend: 0x0, symName: __ZN4onnx11GetOpSchemaINS_13Max_Onnx_ver6EEENS_8OpSchemaEv, symObjAddr: 0x22134, symBinAddr: 0xC03EE4, symSize: 0x2A0 }
  - { offsetInCU: 0xB431F, offset: 0x5F3E05, size: 0x8, addend: 0x0, symName: __ZN4onnx11GetOpSchemaINS_13Min_Onnx_ver6EEENS_8OpSchemaEv, symObjAddr: 0x223D4, symBinAddr: 0xC04184, symSize: 0x2A0 }
  - { offsetInCU: 0xB4DF2, offset: 0x5F48D8, size: 0x8, addend: 0x0, symName: __ZN4onnx11GetOpSchemaINS_13Sum_Onnx_ver6EEENS_8OpSchemaEv, symObjAddr: 0x22674, symBinAddr: 0xC04424, symSize: 0x2A0 }
  - { offsetInCU: 0xB58C5, offset: 0x5F53AB, size: 0x8, addend: 0x0, symName: __ZN4onnx11GetOpSchemaINS_14Mean_Onnx_ver6EEENS_8OpSchemaEv, symObjAddr: 0x22914, symBinAddr: 0xC046C4, symSize: 0x2A0 }
  - { offsetInCU: 0xB6398, offset: 0x5F5E7E, size: 0x8, addend: 0x0, symName: __ZN4onnx11GetOpSchemaINS_14Clip_Onnx_ver6EEENS_8OpSchemaEv, symObjAddr: 0x23514, symBinAddr: 0xC052C4, symSize: 0x30C }
  - { offsetInCU: 0xB6E42, offset: 0x5F6928, size: 0x8, addend: 0x0, symName: __ZN4onnx11GetOpSchemaINS_15Clip_Onnx_ver11EEENS_8OpSchemaEv, symObjAddr: 0x23820, symBinAddr: 0xC055D0, symSize: 0x300 }
  - { offsetInCU: 0xB7935, offset: 0x5F741B, size: 0x8, addend: 0x0, symName: __ZN4onnx11GetOpSchemaINS_13Max_Onnx_ver8EEENS_8OpSchemaEv, symObjAddr: 0x23B34, symBinAddr: 0xC058D0, symSize: 0x1FC }
  - { offsetInCU: 0xB83DB, offset: 0x5F7EC1, size: 0x8, addend: 0x0, symName: __ZN4onnx11GetOpSchemaINS_13Min_Onnx_ver8EEENS_8OpSchemaEv, symObjAddr: 0x23D30, symBinAddr: 0xC05ACC, symSize: 0x1FC }
  - { offsetInCU: 0xB8E81, offset: 0x5F8967, size: 0x8, addend: 0x0, symName: __ZN4onnx11GetOpSchemaINS_19LeakyRelu_Onnx_ver6EEENS_8OpSchemaEv, symObjAddr: 0x23F2C, symBinAddr: 0xC05CC8, symSize: 0x2CC }
  - { offsetInCU: 0xB994E, offset: 0x5F9434, size: 0x8, addend: 0x0, symName: __ZN4onnx11GetOpSchemaINS_15PRelu_Onnx_ver9EEENS_8OpSchemaEv, symObjAddr: 0x241F8, symBinAddr: 0xC05F94, symSize: 0x488 }
  - { offsetInCU: 0xBAE5A, offset: 0x5FA940, size: 0x8, addend: 0x0, symName: __ZN4onnx11GetOpSchemaINS_24QLinearMatMul_Onnx_ver10EEENS_8OpSchemaEv, symObjAddr: 0x24A28, symBinAddr: 0xC067C4, symSize: 0x460 }
  - { offsetInCU: 0xBD213, offset: 0x5FCCF9, size: 0x8, addend: 0x0, symName: '__ZNSt3__110__function6__funcIZN4onnx11GetOpSchemaINS2_14Det_Onnx_ver11EEENS2_8OpSchemaEvE3$_1NS_9allocatorIS6_EEFvRNS2_16InferenceContextEEED1Ev', symObjAddr: 0x2C08C, symBinAddr: 0xC07E04, symSize: 0x4 }
  - { offsetInCU: 0xBDA8A, offset: 0x5FD570, size: 0x8, addend: 0x0, symName: __ZN4onnx10MakeStringIJA23_cS1_EEENSt3__112basic_stringIcNS2_11char_traitsIcEENS2_9allocatorIcEEEEDpRKT_, symObjAddr: 0x2BDB8, symBinAddr: 0xC07C2C, symSize: 0x1D8 }
  - { offsetInCU: 0xC7BB0, offset: 0x607696, size: 0x8, addend: 0x0, symName: __ZN4onnx10MakeStringIJA23_cA22_ciA34_cxA68_cEEENSt3__112basic_stringIcNS5_11char_traitsIcEENS5_9allocatorIcEEEEDpRKT_, symObjAddr: 0x39248, symBinAddr: 0xC11180, symSize: 0x240 }
  - { offsetInCU: 0x119CCC, offset: 0x6597B2, size: 0x8, addend: 0x0, symName: __ZNSt3__16vectorIN4onnx18FunctionBodyHelper21AttributeProtoWrapperENS_9allocatorIS3_EEEC1B8ue170006ESt16initializer_listIS3_E, symObjAddr: 0x18BE4, symBinAddr: 0xBFAA28, symSize: 0x108 }
  - { offsetInCU: 0x11A20F, offset: 0x659CF5, size: 0x8, addend: 0x0, symName: __ZNSt3__16vectorIN4onnx18FunctionBodyHelper7NodeDefENS_9allocatorIS3_EEE21__push_back_slow_pathIS3_EEvOT_, symObjAddr: 0x29FD0, symBinAddr: 0xC06C24, symSize: 0x228 }
  - { offsetInCU: 0x11A9E4, offset: 0x65A4CA, size: 0x8, addend: 0x0, symName: __ZNKSt3__16vectorIN4onnx18FunctionBodyHelper7NodeDefENS_9allocatorIS3_EEE20__throw_length_errorB8ue170006Ev, symObjAddr: 0x2A1F8, symBinAddr: 0xC06E4C, symSize: 0x14 }
  - { offsetInCU: 0x11A9F8, offset: 0x65A4DE, size: 0x8, addend: 0x0, symName: __ZN4onnx18FunctionBodyHelper7NodeDefD2Ev, symObjAddr: 0x2A3E8, symBinAddr: 0xC06EF8, symSize: 0x15C }
  - { offsetInCU: 0x11B74B, offset: 0x65B231, size: 0x8, addend: 0x0, symName: __ZNSt3__16vectorIN4onnx18FunctionBodyHelper21AttributeProtoWrapperENS_9allocatorIS3_EEED1B8ue170006Ev, symObjAddr: 0x18CEC, symBinAddr: 0xBFAB30, symSize: 0x58 }
  - { offsetInCU: 0x11B921, offset: 0x65B407, size: 0x8, addend: 0x0, symName: __ZN4onnx41BuildContextDependentFunctionBody_opset12ERKNS_24FunctionBodyBuildContextERKNS_8OpSchemaERNS_13FunctionProtoE.cold.1, symObjAddr: 0x39AA4, symBinAddr: 0x11655E4, symSize: 0x40 }
  - { offsetInCU: 0x11BA46, offset: 0x65B52C, size: 0x8, addend: 0x0, symName: __ZN4onnx41BuildContextDependentFunctionBody_opset12ERKNS_24FunctionBodyBuildContextERKNS_8OpSchemaERNS_13FunctionProtoE.cold.2, symObjAddr: 0x39AE4, symBinAddr: 0x1165624, symSize: 0x40 }
  - { offsetInCU: 0x11BB6B, offset: 0x65B651, size: 0x8, addend: 0x0, symName: __ZN4onnx41BuildContextDependentFunctionBody_opset12ERKNS_24FunctionBodyBuildContextERKNS_8OpSchemaERNS_13FunctionProtoE.cold.3, symObjAddr: 0x39B24, symBinAddr: 0x1165664, symSize: 0x40 }
  - { offsetInCU: 0x11BC90, offset: 0x65B776, size: 0x8, addend: 0x0, symName: __ZN4onnx41BuildContextDependentFunctionBody_opset12ERKNS_24FunctionBodyBuildContextERKNS_8OpSchemaERNS_13FunctionProtoE.cold.4, symObjAddr: 0x39B64, symBinAddr: 0x11656A4, symSize: 0x40 }
  - { offsetInCU: 0x11BDB5, offset: 0x65B89B, size: 0x8, addend: 0x0, symName: __ZN4onnx41BuildContextDependentFunctionBody_opset12ERKNS_24FunctionBodyBuildContextERKNS_8OpSchemaERNS_13FunctionProtoE.cold.5, symObjAddr: 0x39BA4, symBinAddr: 0x11656E4, symSize: 0x40 }
  - { offsetInCU: 0x11BEDA, offset: 0x65B9C0, size: 0x8, addend: 0x0, symName: __ZN4onnx41BuildContextDependentFunctionBody_opset12ERKNS_24FunctionBodyBuildContextERKNS_8OpSchemaERNS_13FunctionProtoE.cold.6, symObjAddr: 0x39BE4, symBinAddr: 0x1165724, symSize: 0x40 }
  - { offsetInCU: 0x11BFFF, offset: 0x65BAE5, size: 0x8, addend: 0x0, symName: __ZN4onnx41BuildContextDependentFunctionBody_opset12ERKNS_24FunctionBodyBuildContextERKNS_8OpSchemaERNS_13FunctionProtoE.cold.9, symObjAddr: 0x39CA4, symBinAddr: 0x11657E4, symSize: 0x40 }
  - { offsetInCU: 0x11C124, offset: 0x65BC0A, size: 0x8, addend: 0x0, symName: __ZN4onnx41BuildContextDependentFunctionBody_opset12ERKNS_24FunctionBodyBuildContextERKNS_8OpSchemaERNS_13FunctionProtoE.cold.10, symObjAddr: 0x39CE4, symBinAddr: 0x1165824, symSize: 0x40 }
  - { offsetInCU: 0x11C249, offset: 0x65BD2F, size: 0x8, addend: 0x0, symName: __ZN4onnx41BuildContextDependentFunctionBody_opset12ERKNS_24FunctionBodyBuildContextERKNS_8OpSchemaERNS_13FunctionProtoE.cold.7, symObjAddr: 0x39C24, symBinAddr: 0x1165764, symSize: 0x40 }
  - { offsetInCU: 0x11C36E, offset: 0x65BE54, size: 0x8, addend: 0x0, symName: __ZN4onnx41BuildContextDependentFunctionBody_opset12ERKNS_24FunctionBodyBuildContextERKNS_8OpSchemaERNS_13FunctionProtoE.cold.8, symObjAddr: 0x39C64, symBinAddr: 0x11657A4, symSize: 0x40 }
  - { offsetInCU: 0x11C493, offset: 0x65BF79, size: 0x8, addend: 0x0, symName: __ZN4onnx41BuildContextDependentFunctionBody_opset12ERKNS_24FunctionBodyBuildContextERKNS_8OpSchemaERNS_13FunctionProtoE.cold.11, symObjAddr: 0x39D24, symBinAddr: 0x1165864, symSize: 0x40 }
  - { offsetInCU: 0x11C5B8, offset: 0x65C09E, size: 0x8, addend: 0x0, symName: __ZN4onnx41BuildContextDependentFunctionBody_opset12ERKNS_24FunctionBodyBuildContextERKNS_8OpSchemaERNS_13FunctionProtoE.cold.12, symObjAddr: 0x39D64, symBinAddr: 0x11658A4, symSize: 0x40 }
  - { offsetInCU: 0x11C7C3, offset: 0x65C2A9, size: 0x8, addend: 0x0, symName: __ZNSt3__16vectorIN4onnx18FunctionBodyHelper7NodeDefENS_9allocatorIS3_EEED1B8ue170006Ev, symObjAddr: 0x18D9C, symBinAddr: 0xBFAB88, symSize: 0x58 }
  - { offsetInCU: 0x11CCFB, offset: 0x65C7E1, size: 0x8, addend: 0x0, symName: __ZNKSt3__16vectorIN4onnx18FunctionBodyHelper21AttributeProtoWrapperENS_9allocatorIS3_EEE20__throw_length_errorB8ue170006Ev, symObjAddr: 0x2A3D4, symBinAddr: 0xC06EE4, symSize: 0x14 }
  - { offsetInCU: 0x11CD24, offset: 0x65C80A, size: 0x8, addend: 0x0, symName: __ZN4onnx18FunctionBodyHelper7NodeDefD2Ev, symObjAddr: 0x2A3E8, symBinAddr: 0xC06EF8, symSize: 0x15C }
  - { offsetInCU: 0x11D48D, offset: 0x65CF73, size: 0x8, addend: 0x0, symName: __ZNSt3__16vectorIN4onnx18FunctionBodyHelper21AttributeProtoWrapperENS_9allocatorIS3_EEE21__push_back_slow_pathIS3_EEvOT_, symObjAddr: 0x2A6B0, symBinAddr: 0xC07054, symSize: 0x124 }
  - { offsetInCU: 0x11D55E, offset: 0x65D044, size: 0x8, addend: 0x0, symName: __ZNSt3__16vectorIN4onnx18FunctionBodyHelper21AttributeProtoWrapperENS_9allocatorIS3_EEE21__push_back_slow_pathIS3_EEvOT_, symObjAddr: 0x2A6B0, symBinAddr: 0xC07054, symSize: 0x124 }
  - { offsetInCU: 0x11DB6C, offset: 0x65D652, size: 0x8, addend: 0x0, symName: __ZNSt3__16vectorIN4onnx18FunctionBodyHelper21AttributeProtoWrapperENS_9allocatorIS3_EEE16__init_with_sizeB8ue170006IPS3_S8_EEvT_T0_m, symObjAddr: 0x2A870, symBinAddr: 0xC07178, symSize: 0x114 }
  - { offsetInCU: 0x12A8E6, offset: 0x66A3CC, size: 0x8, addend: 0x0, symName: __ZNKSt3__16vectorIN4onnx18FunctionBodyHelper7NodeDefENS_9allocatorIS3_EEE20__throw_length_errorB8ue170006Ev, symObjAddr: 0x2A1F8, symBinAddr: 0xC06E4C, symSize: 0x14 }
  - { offsetInCU: 0x12A91A, offset: 0x66A400, size: 0x8, addend: 0x0, symName: __ZNSt3__128__exception_guard_exceptionsINS_6vectorIN4onnx18FunctionBodyHelper21AttributeProtoWrapperENS_9allocatorIS4_EEE16__destroy_vectorEED1B8ue170006Ev, symObjAddr: 0x2A350, symBinAddr: 0xC06E60, symSize: 0x84 }
  - { offsetInCU: 0x12B139, offset: 0x66AC1F, size: 0x8, addend: 0x0, symName: '__ZNSt3__110__function6__funcIZN4onnx11GetOpSchemaINS2_36NegativeLogLikelihoodLoss_Onnx_ver13EEENS2_8OpSchemaEvE3$_0NS_9allocatorIS6_EEFvRNS2_16InferenceContextEEED1Ev', symObjAddr: 0x2AE90, symBinAddr: 0xC0728C, symSize: 0x4 }
  - { offsetInCU: 0x12B165, offset: 0x66AC4B, size: 0x8, addend: 0x0, symName: '__ZNSt3__110__function6__funcIZN4onnx11GetOpSchemaINS2_36NegativeLogLikelihoodLoss_Onnx_ver13EEENS2_8OpSchemaEvE3$_0NS_9allocatorIS6_EEFvRNS2_16InferenceContextEEED0Ev', symObjAddr: 0x2AE94, symBinAddr: 0xC07290, symSize: 0x4 }
  - { offsetInCU: 0x12B21F, offset: 0x66AD05, size: 0x8, addend: 0x0, symName: '__ZNKSt3__110__function6__funcIZN4onnx11GetOpSchemaINS2_36NegativeLogLikelihoodLoss_Onnx_ver13EEENS2_8OpSchemaEvE3$_0NS_9allocatorIS6_EEFvRNS2_16InferenceContextEEE7__cloneEv', symObjAddr: 0x2AE98, symBinAddr: 0xC07294, symSize: 0x24 }
  - { offsetInCU: 0x12B367, offset: 0x66AE4D, size: 0x8, addend: 0x0, symName: '__ZNKSt3__110__function6__funcIZN4onnx11GetOpSchemaINS2_36NegativeLogLikelihoodLoss_Onnx_ver13EEENS2_8OpSchemaEvE3$_0NS_9allocatorIS6_EEFvRNS2_16InferenceContextEEE7__cloneEPNS0_6__baseISB_EE', symObjAddr: 0x2AEBC, symBinAddr: 0xC072B8, symSize: 0x10 }
  - { offsetInCU: 0x12B39D, offset: 0x66AE83, size: 0x8, addend: 0x0, symName: '__ZNKSt3__110__function6__funcIZN4onnx11GetOpSchemaINS2_36NegativeLogLikelihoodLoss_Onnx_ver13EEENS2_8OpSchemaEvE3$_0NS_9allocatorIS6_EEFvRNS2_16InferenceContextEEE7__cloneEPNS0_6__baseISB_EE', symObjAddr: 0x2AEBC, symBinAddr: 0xC072B8, symSize: 0x10 }
  - { offsetInCU: 0x12B3B9, offset: 0x66AE9F, size: 0x8, addend: 0x0, symName: '__ZNKSt3__110__function6__funcIZN4onnx11GetOpSchemaINS2_36NegativeLogLikelihoodLoss_Onnx_ver13EEENS2_8OpSchemaEvE3$_0NS_9allocatorIS6_EEFvRNS2_16InferenceContextEEE7__cloneEPNS0_6__baseISB_EE', symObjAddr: 0x2AEBC, symBinAddr: 0xC072B8, symSize: 0x10 }
  - { offsetInCU: 0x12B3D5, offset: 0x66AEBB, size: 0x8, addend: 0x0, symName: '__ZNSt3__110__function6__funcIZN4onnx11GetOpSchemaINS2_36NegativeLogLikelihoodLoss_Onnx_ver13EEENS2_8OpSchemaEvE3$_0NS_9allocatorIS6_EEFvRNS2_16InferenceContextEEE7destroyEv', symObjAddr: 0x2AECC, symBinAddr: 0xC072C8, symSize: 0x4 }
  - { offsetInCU: 0x12B426, offset: 0x66AF0C, size: 0x8, addend: 0x0, symName: '__ZNSt3__110__function6__funcIZN4onnx11GetOpSchemaINS2_36NegativeLogLikelihoodLoss_Onnx_ver13EEENS2_8OpSchemaEvE3$_0NS_9allocatorIS6_EEFvRNS2_16InferenceContextEEE18destroy_deallocateEv', symObjAddr: 0x2AED0, symBinAddr: 0xC072CC, symSize: 0x4 }
  - { offsetInCU: 0x12B45B, offset: 0x66AF41, size: 0x8, addend: 0x0, symName: '__ZNSt3__110__function6__funcIZN4onnx11GetOpSchemaINS2_36NegativeLogLikelihoodLoss_Onnx_ver13EEENS2_8OpSchemaEvE3$_0NS_9allocatorIS6_EEFvRNS2_16InferenceContextEEE18destroy_deallocateEv', symObjAddr: 0x2AED0, symBinAddr: 0xC072CC, symSize: 0x4 }
  - { offsetInCU: 0x12B47D, offset: 0x66AF63, size: 0x8, addend: 0x0, symName: '__ZNSt3__110__function6__funcIZN4onnx11GetOpSchemaINS2_36NegativeLogLikelihoodLoss_Onnx_ver13EEENS2_8OpSchemaEvE3$_0NS_9allocatorIS6_EEFvRNS2_16InferenceContextEEE18destroy_deallocateEv', symObjAddr: 0x2AED0, symBinAddr: 0xC072CC, symSize: 0x4 }
  - { offsetInCU: 0x12B4A8, offset: 0x66AF8E, size: 0x8, addend: 0x0, symName: '__ZNSt3__110__function6__funcIZN4onnx11GetOpSchemaINS2_36NegativeLogLikelihoodLoss_Onnx_ver13EEENS2_8OpSchemaEvE3$_0NS_9allocatorIS6_EEFvRNS2_16InferenceContextEEE18destroy_deallocateEv', symObjAddr: 0x2AED0, symBinAddr: 0xC072CC, symSize: 0x4 }
  - { offsetInCU: 0x12B4CE, offset: 0x66AFB4, size: 0x8, addend: 0x0, symName: '__ZNSt3__110__function6__funcIZN4onnx11GetOpSchemaINS2_36NegativeLogLikelihoodLoss_Onnx_ver13EEENS2_8OpSchemaEvE3$_0NS_9allocatorIS6_EEFvRNS2_16InferenceContextEEE18destroy_deallocateEv', symObjAddr: 0x2AED0, symBinAddr: 0xC072CC, symSize: 0x4 }
  - { offsetInCU: 0x12B5FF, offset: 0x66B0E5, size: 0x8, addend: 0x0, symName: '__ZNSt3__110__function6__funcIZN4onnx11GetOpSchemaINS2_36NegativeLogLikelihoodLoss_Onnx_ver13EEENS2_8OpSchemaEvE3$_0NS_9allocatorIS6_EEFvRNS2_16InferenceContextEEEclESA_', symObjAddr: 0x2AED4, symBinAddr: 0xC072D0, symSize: 0x8F0 }
  - { offsetInCU: 0x12D2C6, offset: 0x66CDAC, size: 0x8, addend: 0x0, symName: '__ZNKSt3__110__function6__funcIZN4onnx11GetOpSchemaINS2_36NegativeLogLikelihoodLoss_Onnx_ver13EEENS2_8OpSchemaEvE3$_0NS_9allocatorIS6_EEFvRNS2_16InferenceContextEEE6targetERKSt9type_info', symObjAddr: 0x2B7C4, symBinAddr: 0xC07BC0, symSize: 0x60 }
  - { offsetInCU: 0x12D34B, offset: 0x66CE31, size: 0x8, addend: 0x0, symName: '__ZNKSt3__110__function6__funcIZN4onnx11GetOpSchemaINS2_36NegativeLogLikelihoodLoss_Onnx_ver13EEENS2_8OpSchemaEvE3$_0NS_9allocatorIS6_EEFvRNS2_16InferenceContextEEE11target_typeEv', symObjAddr: 0x2B824, symBinAddr: 0xC07C20, symSize: 0xC }
  - { offsetInCU: 0x12D3BB, offset: 0x66CEA1, size: 0x8, addend: 0x0, symName: '__ZNSt3__110__function6__funcIZN4onnx11GetOpSchemaINS2_14Det_Onnx_ver11EEENS2_8OpSchemaEvE3$_1NS_9allocatorIS6_EEFvRNS2_16InferenceContextEEED1Ev', symObjAddr: 0x2C08C, symBinAddr: 0xC07E04, symSize: 0x4 }
  - { offsetInCU: 0x12D3E7, offset: 0x66CECD, size: 0x8, addend: 0x0, symName: '__ZNSt3__110__function6__funcIZN4onnx11GetOpSchemaINS2_14Det_Onnx_ver11EEENS2_8OpSchemaEvE3$_1NS_9allocatorIS6_EEFvRNS2_16InferenceContextEEED0Ev', symObjAddr: 0x2C090, symBinAddr: 0xC07E08, symSize: 0x4 }
  - { offsetInCU: 0x12D4A1, offset: 0x66CF87, size: 0x8, addend: 0x0, symName: '__ZNKSt3__110__function6__funcIZN4onnx11GetOpSchemaINS2_14Det_Onnx_ver11EEENS2_8OpSchemaEvE3$_1NS_9allocatorIS6_EEFvRNS2_16InferenceContextEEE7__cloneEv', symObjAddr: 0x2C094, symBinAddr: 0xC07E0C, symSize: 0x24 }
  - { offsetInCU: 0x12D5E9, offset: 0x66D0CF, size: 0x8, addend: 0x0, symName: '__ZNKSt3__110__function6__funcIZN4onnx11GetOpSchemaINS2_14Det_Onnx_ver11EEENS2_8OpSchemaEvE3$_1NS_9allocatorIS6_EEFvRNS2_16InferenceContextEEE7__cloneEPNS0_6__baseISB_EE', symObjAddr: 0x2C0B8, symBinAddr: 0xC07E30, symSize: 0x10 }
  - { offsetInCU: 0x12D61F, offset: 0x66D105, size: 0x8, addend: 0x0, symName: '__ZNKSt3__110__function6__funcIZN4onnx11GetOpSchemaINS2_14Det_Onnx_ver11EEENS2_8OpSchemaEvE3$_1NS_9allocatorIS6_EEFvRNS2_16InferenceContextEEE7__cloneEPNS0_6__baseISB_EE', symObjAddr: 0x2C0B8, symBinAddr: 0xC07E30, symSize: 0x10 }
  - { offsetInCU: 0x12D63B, offset: 0x66D121, size: 0x8, addend: 0x0, symName: '__ZNKSt3__110__function6__funcIZN4onnx11GetOpSchemaINS2_14Det_Onnx_ver11EEENS2_8OpSchemaEvE3$_1NS_9allocatorIS6_EEFvRNS2_16InferenceContextEEE7__cloneEPNS0_6__baseISB_EE', symObjAddr: 0x2C0B8, symBinAddr: 0xC07E30, symSize: 0x10 }
  - { offsetInCU: 0x12D657, offset: 0x66D13D, size: 0x8, addend: 0x0, symName: '__ZNSt3__110__function6__funcIZN4onnx11GetOpSchemaINS2_14Det_Onnx_ver11EEENS2_8OpSchemaEvE3$_1NS_9allocatorIS6_EEFvRNS2_16InferenceContextEEE7destroyEv', symObjAddr: 0x2C0C8, symBinAddr: 0xC07E40, symSize: 0x4 }
  - { offsetInCU: 0x12D6A8, offset: 0x66D18E, size: 0x8, addend: 0x0, symName: '__ZNSt3__110__function6__funcIZN4onnx11GetOpSchemaINS2_14Det_Onnx_ver11EEENS2_8OpSchemaEvE3$_1NS_9allocatorIS6_EEFvRNS2_16InferenceContextEEE18destroy_deallocateEv', symObjAddr: 0x2C0CC, symBinAddr: 0xC07E44, symSize: 0x4 }
  - { offsetInCU: 0x12D6DD, offset: 0x66D1C3, size: 0x8, addend: 0x0, symName: '__ZNSt3__110__function6__funcIZN4onnx11GetOpSchemaINS2_14Det_Onnx_ver11EEENS2_8OpSchemaEvE3$_1NS_9allocatorIS6_EEFvRNS2_16InferenceContextEEE18destroy_deallocateEv', symObjAddr: 0x2C0CC, symBinAddr: 0xC07E44, symSize: 0x4 }
  - { offsetInCU: 0x12D6FF, offset: 0x66D1E5, size: 0x8, addend: 0x0, symName: '__ZNSt3__110__function6__funcIZN4onnx11GetOpSchemaINS2_14Det_Onnx_ver11EEENS2_8OpSchemaEvE3$_1NS_9allocatorIS6_EEFvRNS2_16InferenceContextEEE18destroy_deallocateEv', symObjAddr: 0x2C0CC, symBinAddr: 0xC07E44, symSize: 0x4 }
  - { offsetInCU: 0x12D72A, offset: 0x66D210, size: 0x8, addend: 0x0, symName: '__ZNSt3__110__function6__funcIZN4onnx11GetOpSchemaINS2_14Det_Onnx_ver11EEENS2_8OpSchemaEvE3$_1NS_9allocatorIS6_EEFvRNS2_16InferenceContextEEE18destroy_deallocateEv', symObjAddr: 0x2C0CC, symBinAddr: 0xC07E44, symSize: 0x4 }
  - { offsetInCU: 0x12D750, offset: 0x66D236, size: 0x8, addend: 0x0, symName: '__ZNSt3__110__function6__funcIZN4onnx11GetOpSchemaINS2_14Det_Onnx_ver11EEENS2_8OpSchemaEvE3$_1NS_9allocatorIS6_EEFvRNS2_16InferenceContextEEE18destroy_deallocateEv', symObjAddr: 0x2C0CC, symBinAddr: 0xC07E44, symSize: 0x4 }
  - { offsetInCU: 0x12D858, offset: 0x66D33E, size: 0x8, addend: 0x0, symName: '__ZNSt3__110__function6__funcIZN4onnx11GetOpSchemaINS2_14Det_Onnx_ver11EEENS2_8OpSchemaEvE3$_1NS_9allocatorIS6_EEFvRNS2_16InferenceContextEEEclESA_', symObjAddr: 0x2C0D0, symBinAddr: 0xC07E48, symSize: 0x46C }
  - { offsetInCU: 0x12E654, offset: 0x66E13A, size: 0x8, addend: 0x0, symName: '__ZNKSt3__110__function6__funcIZN4onnx11GetOpSchemaINS2_14Det_Onnx_ver11EEENS2_8OpSchemaEvE3$_1NS_9allocatorIS6_EEFvRNS2_16InferenceContextEEE6targetERKSt9type_info', symObjAddr: 0x2C53C, symBinAddr: 0xC082B4, symSize: 0x60 }
  - { offsetInCU: 0x12E6D9, offset: 0x66E1BF, size: 0x8, addend: 0x0, symName: '__ZNKSt3__110__function6__funcIZN4onnx11GetOpSchemaINS2_14Det_Onnx_ver11EEENS2_8OpSchemaEvE3$_1NS_9allocatorIS6_EEFvRNS2_16InferenceContextEEE11target_typeEv', symObjAddr: 0x2C59C, symBinAddr: 0xC08314, symSize: 0xC }
  - { offsetInCU: 0x12E730, offset: 0x66E216, size: 0x8, addend: 0x0, symName: '__ZNSt3__110__function6__funcIZN4onnx24MathDocGenerator_opset13EPKcE3$_2NS_9allocatorIS5_EEFvRNS2_8OpSchemaEEED1Ev', symObjAddr: 0x2C7E8, symBinAddr: 0xC08320, symSize: 0x4 }
  - { offsetInCU: 0x12E75C, offset: 0x66E242, size: 0x8, addend: 0x0, symName: '__ZNSt3__110__function6__funcIZN4onnx24MathDocGenerator_opset13EPKcE3$_2NS_9allocatorIS5_EEFvRNS2_8OpSchemaEEED0Ev', symObjAddr: 0x2C7EC, symBinAddr: 0xC08324, symSize: 0x4 }
  - { offsetInCU: 0x12E816, offset: 0x66E2FC, size: 0x8, addend: 0x0, symName: '__ZNKSt3__110__function6__funcIZN4onnx24MathDocGenerator_opset13EPKcE3$_2NS_9allocatorIS5_EEFvRNS2_8OpSchemaEEE7__cloneEv', symObjAddr: 0x2C7F0, symBinAddr: 0xC08328, symSize: 0x34 }
  - { offsetInCU: 0x12E962, offset: 0x66E448, size: 0x8, addend: 0x0, symName: '__ZNKSt3__110__function6__funcIZN4onnx24MathDocGenerator_opset13EPKcE3$_2NS_9allocatorIS5_EEFvRNS2_8OpSchemaEEE7__cloneEPNS0_6__baseISA_EE', symObjAddr: 0x2C824, symBinAddr: 0xC0835C, symSize: 0x14 }
  - { offsetInCU: 0x12E9D2, offset: 0x66E4B8, size: 0x8, addend: 0x0, symName: '__ZNSt3__110__function6__funcIZN4onnx24MathDocGenerator_opset13EPKcE3$_2NS_9allocatorIS5_EEFvRNS2_8OpSchemaEEE7destroyEv', symObjAddr: 0x2C838, symBinAddr: 0xC08370, symSize: 0x4 }
  - { offsetInCU: 0x12EA23, offset: 0x66E509, size: 0x8, addend: 0x0, symName: '__ZNSt3__110__function6__funcIZN4onnx24MathDocGenerator_opset13EPKcE3$_2NS_9allocatorIS5_EEFvRNS2_8OpSchemaEEE18destroy_deallocateEv', symObjAddr: 0x2C83C, symBinAddr: 0xC08374, symSize: 0x4 }
  - { offsetInCU: 0x12EA58, offset: 0x66E53E, size: 0x8, addend: 0x0, symName: '__ZNSt3__110__function6__funcIZN4onnx24MathDocGenerator_opset13EPKcE3$_2NS_9allocatorIS5_EEFvRNS2_8OpSchemaEEE18destroy_deallocateEv', symObjAddr: 0x2C83C, symBinAddr: 0xC08374, symSize: 0x4 }
  - { offsetInCU: 0x12EA7A, offset: 0x66E560, size: 0x8, addend: 0x0, symName: '__ZNSt3__110__function6__funcIZN4onnx24MathDocGenerator_opset13EPKcE3$_2NS_9allocatorIS5_EEFvRNS2_8OpSchemaEEE18destroy_deallocateEv', symObjAddr: 0x2C83C, symBinAddr: 0xC08374, symSize: 0x4 }
  - { offsetInCU: 0x12EAA5, offset: 0x66E58B, size: 0x8, addend: 0x0, symName: '__ZNSt3__110__function6__funcIZN4onnx24MathDocGenerator_opset13EPKcE3$_2NS_9allocatorIS5_EEFvRNS2_8OpSchemaEEE18destroy_deallocateEv', symObjAddr: 0x2C83C, symBinAddr: 0xC08374, symSize: 0x4 }
  - { offsetInCU: 0x12EACB, offset: 0x66E5B1, size: 0x8, addend: 0x0, symName: '__ZNSt3__110__function6__funcIZN4onnx24MathDocGenerator_opset13EPKcE3$_2NS_9allocatorIS5_EEFvRNS2_8OpSchemaEEE18destroy_deallocateEv', symObjAddr: 0x2C83C, symBinAddr: 0xC08374, symSize: 0x4 }
  - { offsetInCU: 0x12EE98, offset: 0x66E97E, size: 0x8, addend: 0x0, symName: '__ZNSt3__110__function6__funcIZN4onnx24MathDocGenerator_opset13EPKcE3$_2NS_9allocatorIS5_EEFvRNS2_8OpSchemaEEEclES9_', symObjAddr: 0x2C840, symBinAddr: 0xC08378, symSize: 0x400 }
  - { offsetInCU: 0x130A4B, offset: 0x670531, size: 0x8, addend: 0x0, symName: '__ZNKSt3__110__function6__funcIZN4onnx24MathDocGenerator_opset13EPKcE3$_2NS_9allocatorIS5_EEFvRNS2_8OpSchemaEEE6targetERKSt9type_info', symObjAddr: 0x2CC40, symBinAddr: 0xC08778, symSize: 0x60 }
  - { offsetInCU: 0x130AD0, offset: 0x6705B6, size: 0x8, addend: 0x0, symName: '__ZNKSt3__110__function6__funcIZN4onnx24MathDocGenerator_opset13EPKcE3$_2NS_9allocatorIS5_EEFvRNS2_8OpSchemaEEE11target_typeEv', symObjAddr: 0x2CCA0, symBinAddr: 0xC087D8, symSize: 0xC }
  - { offsetInCU: 0x130AF5, offset: 0x6705DB, size: 0x8, addend: 0x0, symName: '__ZNSt3__110__function6__funcIZZN4onnx24MathDocGenerator_opset13EPKcENK3$_2clERNS2_8OpSchemaEEUlRNS2_16InferenceContextEE_NS_9allocatorISA_EEFvS9_EED1Ev', symObjAddr: 0x2CFE4, symBinAddr: 0xC087E4, symSize: 0x4 }
  - { offsetInCU: 0x130B21, offset: 0x670607, size: 0x8, addend: 0x0, symName: '__ZNSt3__110__function6__funcIZZN4onnx24MathDocGenerator_opset13EPKcENK3$_2clERNS2_8OpSchemaEEUlRNS2_16InferenceContextEE_NS_9allocatorISA_EEFvS9_EED0Ev', symObjAddr: 0x2CFE8, symBinAddr: 0xC087E8, symSize: 0x4 }
  - { offsetInCU: 0x130BDB, offset: 0x6706C1, size: 0x8, addend: 0x0, symName: '__ZNKSt3__110__function6__funcIZZN4onnx24MathDocGenerator_opset13EPKcENK3$_2clERNS2_8OpSchemaEEUlRNS2_16InferenceContextEE_NS_9allocatorISA_EEFvS9_EE7__cloneEv', symObjAddr: 0x2CFEC, symBinAddr: 0xC087EC, symSize: 0x24 }
  - { offsetInCU: 0x130D23, offset: 0x670809, size: 0x8, addend: 0x0, symName: '__ZNKSt3__110__function6__funcIZZN4onnx24MathDocGenerator_opset13EPKcENK3$_2clERNS2_8OpSchemaEEUlRNS2_16InferenceContextEE_NS_9allocatorISA_EEFvS9_EE7__cloneEPNS0_6__baseISD_EE', symObjAddr: 0x2D010, symBinAddr: 0xC08810, symSize: 0x10 }
  - { offsetInCU: 0x130D59, offset: 0x67083F, size: 0x8, addend: 0x0, symName: '__ZNKSt3__110__function6__funcIZZN4onnx24MathDocGenerator_opset13EPKcENK3$_2clERNS2_8OpSchemaEEUlRNS2_16InferenceContextEE_NS_9allocatorISA_EEFvS9_EE7__cloneEPNS0_6__baseISD_EE', symObjAddr: 0x2D010, symBinAddr: 0xC08810, symSize: 0x10 }
  - { offsetInCU: 0x130D75, offset: 0x67085B, size: 0x8, addend: 0x0, symName: '__ZNKSt3__110__function6__funcIZZN4onnx24MathDocGenerator_opset13EPKcENK3$_2clERNS2_8OpSchemaEEUlRNS2_16InferenceContextEE_NS_9allocatorISA_EEFvS9_EE7__cloneEPNS0_6__baseISD_EE', symObjAddr: 0x2D010, symBinAddr: 0xC08810, symSize: 0x10 }
  - { offsetInCU: 0x130D91, offset: 0x670877, size: 0x8, addend: 0x0, symName: '__ZNSt3__110__function6__funcIZZN4onnx24MathDocGenerator_opset13EPKcENK3$_2clERNS2_8OpSchemaEEUlRNS2_16InferenceContextEE_NS_9allocatorISA_EEFvS9_EE7destroyEv', symObjAddr: 0x2D020, symBinAddr: 0xC08820, symSize: 0x4 }
  - { offsetInCU: 0x130DE2, offset: 0x6708C8, size: 0x8, addend: 0x0, symName: '__ZNSt3__110__function6__funcIZZN4onnx24MathDocGenerator_opset13EPKcENK3$_2clERNS2_8OpSchemaEEUlRNS2_16InferenceContextEE_NS_9allocatorISA_EEFvS9_EE18destroy_deallocateEv', symObjAddr: 0x2D024, symBinAddr: 0xC08824, symSize: 0x4 }
  - { offsetInCU: 0x130E17, offset: 0x6708FD, size: 0x8, addend: 0x0, symName: '__ZNSt3__110__function6__funcIZZN4onnx24MathDocGenerator_opset13EPKcENK3$_2clERNS2_8OpSchemaEEUlRNS2_16InferenceContextEE_NS_9allocatorISA_EEFvS9_EE18destroy_deallocateEv', symObjAddr: 0x2D024, symBinAddr: 0xC08824, symSize: 0x4 }
  - { offsetInCU: 0x130E39, offset: 0x67091F, size: 0x8, addend: 0x0, symName: '__ZNSt3__110__function6__funcIZZN4onnx24MathDocGenerator_opset13EPKcENK3$_2clERNS2_8OpSchemaEEUlRNS2_16InferenceContextEE_NS_9allocatorISA_EEFvS9_EE18destroy_deallocateEv', symObjAddr: 0x2D024, symBinAddr: 0xC08824, symSize: 0x4 }
  - { offsetInCU: 0x130E64, offset: 0x67094A, size: 0x8, addend: 0x0, symName: '__ZNSt3__110__function6__funcIZZN4onnx24MathDocGenerator_opset13EPKcENK3$_2clERNS2_8OpSchemaEEUlRNS2_16InferenceContextEE_NS_9allocatorISA_EEFvS9_EE18destroy_deallocateEv', symObjAddr: 0x2D024, symBinAddr: 0xC08824, symSize: 0x4 }
  - { offsetInCU: 0x130E8A, offset: 0x670970, size: 0x8, addend: 0x0, symName: '__ZNSt3__110__function6__funcIZZN4onnx24MathDocGenerator_opset13EPKcENK3$_2clERNS2_8OpSchemaEEUlRNS2_16InferenceContextEE_NS_9allocatorISA_EEFvS9_EE18destroy_deallocateEv', symObjAddr: 0x2D024, symBinAddr: 0xC08824, symSize: 0x4 }
  - { offsetInCU: 0x130F38, offset: 0x670A1E, size: 0x8, addend: 0x0, symName: '__ZNSt3__110__function6__funcIZZN4onnx24MathDocGenerator_opset13EPKcENK3$_2clERNS2_8OpSchemaEEUlRNS2_16InferenceContextEE_NS_9allocatorISA_EEFvS9_EEclES9_', symObjAddr: 0x2D028, symBinAddr: 0xC08828, symSize: 0x32C }
  - { offsetInCU: 0x131BB1, offset: 0x671697, size: 0x8, addend: 0x0, symName: '__ZNKSt3__110__function6__funcIZZN4onnx24MathDocGenerator_opset13EPKcENK3$_2clERNS2_8OpSchemaEEUlRNS2_16InferenceContextEE_NS_9allocatorISA_EEFvS9_EE6targetERKSt9type_info', symObjAddr: 0x2D354, symBinAddr: 0xC08B54, symSize: 0x60 }
  - { offsetInCU: 0x131C36, offset: 0x67171C, size: 0x8, addend: 0x0, symName: '__ZNKSt3__110__function6__funcIZZN4onnx24MathDocGenerator_opset13EPKcENK3$_2clERNS2_8OpSchemaEEUlRNS2_16InferenceContextEE_NS_9allocatorISA_EEFvS9_EE11target_typeEv', symObjAddr: 0x2D3B4, symBinAddr: 0xC08BB4, symSize: 0xC }
  - { offsetInCU: 0x131C5B, offset: 0x671741, size: 0x8, addend: 0x0, symName: '__ZNSt3__110__function6__funcIZN4onnx24MathDocGenerator_opset_7EPKcE3$_3NS_9allocatorIS5_EEFvRNS2_8OpSchemaEEED1Ev', symObjAddr: 0x2D3C0, symBinAddr: 0xC08BC0, symSize: 0x4 }
  - { offsetInCU: 0x131C87, offset: 0x67176D, size: 0x8, addend: 0x0, symName: '__ZNSt3__110__function6__funcIZN4onnx24MathDocGenerator_opset_7EPKcE3$_3NS_9allocatorIS5_EEFvRNS2_8OpSchemaEEED0Ev', symObjAddr: 0x2D3C4, symBinAddr: 0xC08BC4, symSize: 0x4 }
  - { offsetInCU: 0x131D41, offset: 0x671827, size: 0x8, addend: 0x0, symName: '__ZNKSt3__110__function6__funcIZN4onnx24MathDocGenerator_opset_7EPKcE3$_3NS_9allocatorIS5_EEFvRNS2_8OpSchemaEEE7__cloneEv', symObjAddr: 0x2D3C8, symBinAddr: 0xC08BC8, symSize: 0x34 }
  - { offsetInCU: 0x131E8D, offset: 0x671973, size: 0x8, addend: 0x0, symName: '__ZNKSt3__110__function6__funcIZN4onnx24MathDocGenerator_opset_7EPKcE3$_3NS_9allocatorIS5_EEFvRNS2_8OpSchemaEEE7__cloneEPNS0_6__baseISA_EE', symObjAddr: 0x2D3FC, symBinAddr: 0xC08BFC, symSize: 0x14 }
  - { offsetInCU: 0x131EFD, offset: 0x6719E3, size: 0x8, addend: 0x0, symName: '__ZNSt3__110__function6__funcIZN4onnx24MathDocGenerator_opset_7EPKcE3$_3NS_9allocatorIS5_EEFvRNS2_8OpSchemaEEE7destroyEv', symObjAddr: 0x2D410, symBinAddr: 0xC08C10, symSize: 0x4 }
  - { offsetInCU: 0x131F4E, offset: 0x671A34, size: 0x8, addend: 0x0, symName: '__ZNSt3__110__function6__funcIZN4onnx24MathDocGenerator_opset_7EPKcE3$_3NS_9allocatorIS5_EEFvRNS2_8OpSchemaEEE18destroy_deallocateEv', symObjAddr: 0x2D414, symBinAddr: 0xC08C14, symSize: 0x4 }
  - { offsetInCU: 0x131F83, offset: 0x671A69, size: 0x8, addend: 0x0, symName: '__ZNSt3__110__function6__funcIZN4onnx24MathDocGenerator_opset_7EPKcE3$_3NS_9allocatorIS5_EEFvRNS2_8OpSchemaEEE18destroy_deallocateEv', symObjAddr: 0x2D414, symBinAddr: 0xC08C14, symSize: 0x4 }
  - { offsetInCU: 0x131FA5, offset: 0x671A8B, size: 0x8, addend: 0x0, symName: '__ZNSt3__110__function6__funcIZN4onnx24MathDocGenerator_opset_7EPKcE3$_3NS_9allocatorIS5_EEFvRNS2_8OpSchemaEEE18destroy_deallocateEv', symObjAddr: 0x2D414, symBinAddr: 0xC08C14, symSize: 0x4 }
  - { offsetInCU: 0x131FD0, offset: 0x671AB6, size: 0x8, addend: 0x0, symName: '__ZNSt3__110__function6__funcIZN4onnx24MathDocGenerator_opset_7EPKcE3$_3NS_9allocatorIS5_EEFvRNS2_8OpSchemaEEE18destroy_deallocateEv', symObjAddr: 0x2D414, symBinAddr: 0xC08C14, symSize: 0x4 }
  - { offsetInCU: 0x131FF6, offset: 0x671ADC, size: 0x8, addend: 0x0, symName: '__ZNSt3__110__function6__funcIZN4onnx24MathDocGenerator_opset_7EPKcE3$_3NS_9allocatorIS5_EEFvRNS2_8OpSchemaEEE18destroy_deallocateEv', symObjAddr: 0x2D414, symBinAddr: 0xC08C14, symSize: 0x4 }
  - { offsetInCU: 0x132266, offset: 0x671D4C, size: 0x8, addend: 0x0, symName: '__ZNSt3__110__function6__funcIZN4onnx24MathDocGenerator_opset_7EPKcE3$_3NS_9allocatorIS5_EEFvRNS2_8OpSchemaEEEclES9_', symObjAddr: 0x2D418, symBinAddr: 0xC08C18, symSize: 0x3FC }
  - { offsetInCU: 0x133E19, offset: 0x6738FF, size: 0x8, addend: 0x0, symName: '__ZNKSt3__110__function6__funcIZN4onnx24MathDocGenerator_opset_7EPKcE3$_3NS_9allocatorIS5_EEFvRNS2_8OpSchemaEEE6targetERKSt9type_info', symObjAddr: 0x2D814, symBinAddr: 0xC09014, symSize: 0x60 }
  - { offsetInCU: 0x133E9E, offset: 0x673984, size: 0x8, addend: 0x0, symName: '__ZNKSt3__110__function6__funcIZN4onnx24MathDocGenerator_opset_7EPKcE3$_3NS_9allocatorIS5_EEFvRNS2_8OpSchemaEEE11target_typeEv', symObjAddr: 0x2D874, symBinAddr: 0xC09074, symSize: 0xC }
  - { offsetInCU: 0x133EC3, offset: 0x6739A9, size: 0x8, addend: 0x0, symName: '__ZNSt3__110__function6__funcIZZN4onnx24MathDocGenerator_opset_7EPKcENK3$_3clERNS2_8OpSchemaEEUlRNS2_16InferenceContextEE_NS_9allocatorISA_EEFvS9_EED1Ev', symObjAddr: 0x2DB6C, symBinAddr: 0xC09080, symSize: 0x4 }
  - { offsetInCU: 0x133EEF, offset: 0x6739D5, size: 0x8, addend: 0x0, symName: '__ZNSt3__110__function6__funcIZZN4onnx24MathDocGenerator_opset_7EPKcENK3$_3clERNS2_8OpSchemaEEUlRNS2_16InferenceContextEE_NS_9allocatorISA_EEFvS9_EED0Ev', symObjAddr: 0x2DB70, symBinAddr: 0xC09084, symSize: 0x4 }
  - { offsetInCU: 0x133FA9, offset: 0x673A8F, size: 0x8, addend: 0x0, symName: '__ZNKSt3__110__function6__funcIZZN4onnx24MathDocGenerator_opset_7EPKcENK3$_3clERNS2_8OpSchemaEEUlRNS2_16InferenceContextEE_NS_9allocatorISA_EEFvS9_EE7__cloneEv', symObjAddr: 0x2DB74, symBinAddr: 0xC09088, symSize: 0x24 }
  - { offsetInCU: 0x1340F1, offset: 0x673BD7, size: 0x8, addend: 0x0, symName: '__ZNKSt3__110__function6__funcIZZN4onnx24MathDocGenerator_opset_7EPKcENK3$_3clERNS2_8OpSchemaEEUlRNS2_16InferenceContextEE_NS_9allocatorISA_EEFvS9_EE7__cloneEPNS0_6__baseISD_EE', symObjAddr: 0x2DB98, symBinAddr: 0xC090AC, symSize: 0x10 }
  - { offsetInCU: 0x134127, offset: 0x673C0D, size: 0x8, addend: 0x0, symName: '__ZNKSt3__110__function6__funcIZZN4onnx24MathDocGenerator_opset_7EPKcENK3$_3clERNS2_8OpSchemaEEUlRNS2_16InferenceContextEE_NS_9allocatorISA_EEFvS9_EE7__cloneEPNS0_6__baseISD_EE', symObjAddr: 0x2DB98, symBinAddr: 0xC090AC, symSize: 0x10 }
  - { offsetInCU: 0x134143, offset: 0x673C29, size: 0x8, addend: 0x0, symName: '__ZNKSt3__110__function6__funcIZZN4onnx24MathDocGenerator_opset_7EPKcENK3$_3clERNS2_8OpSchemaEEUlRNS2_16InferenceContextEE_NS_9allocatorISA_EEFvS9_EE7__cloneEPNS0_6__baseISD_EE', symObjAddr: 0x2DB98, symBinAddr: 0xC090AC, symSize: 0x10 }
  - { offsetInCU: 0x13415F, offset: 0x673C45, size: 0x8, addend: 0x0, symName: '__ZNSt3__110__function6__funcIZZN4onnx24MathDocGenerator_opset_7EPKcENK3$_3clERNS2_8OpSchemaEEUlRNS2_16InferenceContextEE_NS_9allocatorISA_EEFvS9_EE7destroyEv', symObjAddr: 0x2DBA8, symBinAddr: 0xC090BC, symSize: 0x4 }
  - { offsetInCU: 0x1341B0, offset: 0x673C96, size: 0x8, addend: 0x0, symName: '__ZNSt3__110__function6__funcIZZN4onnx24MathDocGenerator_opset_7EPKcENK3$_3clERNS2_8OpSchemaEEUlRNS2_16InferenceContextEE_NS_9allocatorISA_EEFvS9_EE18destroy_deallocateEv', symObjAddr: 0x2DBAC, symBinAddr: 0xC090C0, symSize: 0x4 }
  - { offsetInCU: 0x1341E5, offset: 0x673CCB, size: 0x8, addend: 0x0, symName: '__ZNSt3__110__function6__funcIZZN4onnx24MathDocGenerator_opset_7EPKcENK3$_3clERNS2_8OpSchemaEEUlRNS2_16InferenceContextEE_NS_9allocatorISA_EEFvS9_EE18destroy_deallocateEv', symObjAddr: 0x2DBAC, symBinAddr: 0xC090C0, symSize: 0x4 }
  - { offsetInCU: 0x134207, offset: 0x673CED, size: 0x8, addend: 0x0, symName: '__ZNSt3__110__function6__funcIZZN4onnx24MathDocGenerator_opset_7EPKcENK3$_3clERNS2_8OpSchemaEEUlRNS2_16InferenceContextEE_NS_9allocatorISA_EEFvS9_EE18destroy_deallocateEv', symObjAddr: 0x2DBAC, symBinAddr: 0xC090C0, symSize: 0x4 }
  - { offsetInCU: 0x134232, offset: 0x673D18, size: 0x8, addend: 0x0, symName: '__ZNSt3__110__function6__funcIZZN4onnx24MathDocGenerator_opset_7EPKcENK3$_3clERNS2_8OpSchemaEEUlRNS2_16InferenceContextEE_NS_9allocatorISA_EEFvS9_EE18destroy_deallocateEv', symObjAddr: 0x2DBAC, symBinAddr: 0xC090C0, symSize: 0x4 }
  - { offsetInCU: 0x134258, offset: 0x673D3E, size: 0x8, addend: 0x0, symName: '__ZNSt3__110__function6__funcIZZN4onnx24MathDocGenerator_opset_7EPKcENK3$_3clERNS2_8OpSchemaEEUlRNS2_16InferenceContextEE_NS_9allocatorISA_EEFvS9_EE18destroy_deallocateEv', symObjAddr: 0x2DBAC, symBinAddr: 0xC090C0, symSize: 0x4 }
  - { offsetInCU: 0x134306, offset: 0x673DEC, size: 0x8, addend: 0x0, symName: '__ZNSt3__110__function6__funcIZZN4onnx24MathDocGenerator_opset_7EPKcENK3$_3clERNS2_8OpSchemaEEUlRNS2_16InferenceContextEE_NS_9allocatorISA_EEFvS9_EEclES9_', symObjAddr: 0x2DBB0, symBinAddr: 0xC090C4, symSize: 0x32C }
  - { offsetInCU: 0x134F7F, offset: 0x674A65, size: 0x8, addend: 0x0, symName: '__ZNKSt3__110__function6__funcIZZN4onnx24MathDocGenerator_opset_7EPKcENK3$_3clERNS2_8OpSchemaEEUlRNS2_16InferenceContextEE_NS_9allocatorISA_EEFvS9_EE6targetERKSt9type_info', symObjAddr: 0x2DEDC, symBinAddr: 0xC093F0, symSize: 0x60 }
  - { offsetInCU: 0x135004, offset: 0x674AEA, size: 0x8, addend: 0x0, symName: '__ZNKSt3__110__function6__funcIZZN4onnx24MathDocGenerator_opset_7EPKcENK3$_3clERNS2_8OpSchemaEEUlRNS2_16InferenceContextEE_NS_9allocatorISA_EEFvS9_EE11target_typeEv', symObjAddr: 0x2DF3C, symBinAddr: 0xC09450, symSize: 0xC }
  - { offsetInCU: 0x135029, offset: 0x674B0F, size: 0x8, addend: 0x0, symName: '__ZNSt3__110__function6__funcIZN4onnx34SoftmaxFamilyDocGenerator_opset_11EPKcS4_E3$_4NS_9allocatorIS5_EEFvRNS2_8OpSchemaEEED1Ev', symObjAddr: 0x2DF48, symBinAddr: 0xC0945C, symSize: 0x4 }
  - { offsetInCU: 0x135055, offset: 0x674B3B, size: 0x8, addend: 0x0, symName: '__ZNSt3__110__function6__funcIZN4onnx34SoftmaxFamilyDocGenerator_opset_11EPKcS4_E3$_4NS_9allocatorIS5_EEFvRNS2_8OpSchemaEEED0Ev', symObjAddr: 0x2DF4C, symBinAddr: 0xC09460, symSize: 0x4 }
  - { offsetInCU: 0x13525E, offset: 0x674D44, size: 0x8, addend: 0x0, symName: '__ZNKSt3__110__function6__funcIZN4onnx34SoftmaxFamilyDocGenerator_opset_11EPKcS4_E3$_4NS_9allocatorIS5_EEFvRNS2_8OpSchemaEEE7__cloneEv', symObjAddr: 0x2DF50, symBinAddr: 0xC09464, symSize: 0x38 }
  - { offsetInCU: 0x135582, offset: 0x675068, size: 0x8, addend: 0x0, symName: '__ZNKSt3__110__function6__funcIZN4onnx34SoftmaxFamilyDocGenerator_opset_11EPKcS4_E3$_4NS_9allocatorIS5_EEFvRNS2_8OpSchemaEEE7__cloneEPNS0_6__baseISA_EE', symObjAddr: 0x2DF88, symBinAddr: 0xC0949C, symSize: 0x18 }
  - { offsetInCU: 0x1355BA, offset: 0x6750A0, size: 0x8, addend: 0x0, symName: '__ZNKSt3__110__function6__funcIZN4onnx34SoftmaxFamilyDocGenerator_opset_11EPKcS4_E3$_4NS_9allocatorIS5_EEFvRNS2_8OpSchemaEEE7__cloneEPNS0_6__baseISA_EE', symObjAddr: 0x2DF88, symBinAddr: 0xC0949C, symSize: 0x18 }
  - { offsetInCU: 0x1355DF, offset: 0x6750C5, size: 0x8, addend: 0x0, symName: '__ZNKSt3__110__function6__funcIZN4onnx34SoftmaxFamilyDocGenerator_opset_11EPKcS4_E3$_4NS_9allocatorIS5_EEFvRNS2_8OpSchemaEEE7__cloneEPNS0_6__baseISA_EE', symObjAddr: 0x2DF88, symBinAddr: 0xC0949C, symSize: 0x18 }
  - { offsetInCU: 0x1356C8, offset: 0x6751AE, size: 0x8, addend: 0x0, symName: '__ZNSt3__110__function6__funcIZN4onnx34SoftmaxFamilyDocGenerator_opset_11EPKcS4_E3$_4NS_9allocatorIS5_EEFvRNS2_8OpSchemaEEE7destroyEv', symObjAddr: 0x2DFA0, symBinAddr: 0xC094B4, symSize: 0x4 }
  - { offsetInCU: 0x135719, offset: 0x6751FF, size: 0x8, addend: 0x0, symName: '__ZNSt3__110__function6__funcIZN4onnx34SoftmaxFamilyDocGenerator_opset_11EPKcS4_E3$_4NS_9allocatorIS5_EEFvRNS2_8OpSchemaEEE18destroy_deallocateEv', symObjAddr: 0x2DFA4, symBinAddr: 0xC094B8, symSize: 0x4 }
  - { offsetInCU: 0x13574E, offset: 0x675234, size: 0x8, addend: 0x0, symName: '__ZNSt3__110__function6__funcIZN4onnx34SoftmaxFamilyDocGenerator_opset_11EPKcS4_E3$_4NS_9allocatorIS5_EEFvRNS2_8OpSchemaEEE18destroy_deallocateEv', symObjAddr: 0x2DFA4, symBinAddr: 0xC094B8, symSize: 0x4 }
  - { offsetInCU: 0x135770, offset: 0x675256, size: 0x8, addend: 0x0, symName: '__ZNSt3__110__function6__funcIZN4onnx34SoftmaxFamilyDocGenerator_opset_11EPKcS4_E3$_4NS_9allocatorIS5_EEFvRNS2_8OpSchemaEEE18destroy_deallocateEv', symObjAddr: 0x2DFA4, symBinAddr: 0xC094B8, symSize: 0x4 }
  - { offsetInCU: 0x13579B, offset: 0x675281, size: 0x8, addend: 0x0, symName: '__ZNSt3__110__function6__funcIZN4onnx34SoftmaxFamilyDocGenerator_opset_11EPKcS4_E3$_4NS_9allocatorIS5_EEFvRNS2_8OpSchemaEEE18destroy_deallocateEv', symObjAddr: 0x2DFA4, symBinAddr: 0xC094B8, symSize: 0x4 }
  - { offsetInCU: 0x1357C1, offset: 0x6752A7, size: 0x8, addend: 0x0, symName: '__ZNSt3__110__function6__funcIZN4onnx34SoftmaxFamilyDocGenerator_opset_11EPKcS4_E3$_4NS_9allocatorIS5_EEFvRNS2_8OpSchemaEEE18destroy_deallocateEv', symObjAddr: 0x2DFA4, symBinAddr: 0xC094B8, symSize: 0x4 }
  - { offsetInCU: 0x135A31, offset: 0x675517, size: 0x8, addend: 0x0, symName: '__ZNSt3__110__function6__funcIZN4onnx34SoftmaxFamilyDocGenerator_opset_11EPKcS4_E3$_4NS_9allocatorIS5_EEFvRNS2_8OpSchemaEEEclES9_', symObjAddr: 0x2DFA8, symBinAddr: 0xC094BC, symSize: 0x27C }
  - { offsetInCU: 0x136277, offset: 0x675D5D, size: 0x8, addend: 0x0, symName: '__ZNKSt3__110__function6__funcIZN4onnx34SoftmaxFamilyDocGenerator_opset_11EPKcS4_E3$_4NS_9allocatorIS5_EEFvRNS2_8OpSchemaEEE6targetERKSt9type_info', symObjAddr: 0x2E224, symBinAddr: 0xC09738, symSize: 0x60 }
  - { offsetInCU: 0x1362FC, offset: 0x675DE2, size: 0x8, addend: 0x0, symName: '__ZNKSt3__110__function6__funcIZN4onnx34SoftmaxFamilyDocGenerator_opset_11EPKcS4_E3$_4NS_9allocatorIS5_EEFvRNS2_8OpSchemaEEE11target_typeEv', symObjAddr: 0x2E284, symBinAddr: 0xC09798, symSize: 0xC }
  - { offsetInCU: 0x136321, offset: 0x675E07, size: 0x8, addend: 0x0, symName: '__ZNSt3__110__function6__funcIZZN4onnx34SoftmaxFamilyDocGenerator_opset_11EPKcS4_ENK3$_4clERNS2_8OpSchemaEEUlRNS2_16InferenceContextEE_NS_9allocatorISA_EEFvS9_EED1Ev', symObjAddr: 0x2E290, symBinAddr: 0xC097A4, symSize: 0x4 }
  - { offsetInCU: 0x13634D, offset: 0x675E33, size: 0x8, addend: 0x0, symName: '__ZNSt3__110__function6__funcIZZN4onnx34SoftmaxFamilyDocGenerator_opset_11EPKcS4_ENK3$_4clERNS2_8OpSchemaEEUlRNS2_16InferenceContextEE_NS_9allocatorISA_EEFvS9_EED0Ev', symObjAddr: 0x2E294, symBinAddr: 0xC097A8, symSize: 0x4 }
  - { offsetInCU: 0x136407, offset: 0x675EED, size: 0x8, addend: 0x0, symName: '__ZNKSt3__110__function6__funcIZZN4onnx34SoftmaxFamilyDocGenerator_opset_11EPKcS4_ENK3$_4clERNS2_8OpSchemaEEUlRNS2_16InferenceContextEE_NS_9allocatorISA_EEFvS9_EE7__cloneEv', symObjAddr: 0x2E298, symBinAddr: 0xC097AC, symSize: 0x24 }
  - { offsetInCU: 0x13654F, offset: 0x676035, size: 0x8, addend: 0x0, symName: '__ZNKSt3__110__function6__funcIZZN4onnx34SoftmaxFamilyDocGenerator_opset_11EPKcS4_ENK3$_4clERNS2_8OpSchemaEEUlRNS2_16InferenceContextEE_NS_9allocatorISA_EEFvS9_EE7__cloneEPNS0_6__baseISD_EE', symObjAddr: 0x2E2BC, symBinAddr: 0xC097D0, symSize: 0x10 }
  - { offsetInCU: 0x136585, offset: 0x67606B, size: 0x8, addend: 0x0, symName: '__ZNKSt3__110__function6__funcIZZN4onnx34SoftmaxFamilyDocGenerator_opset_11EPKcS4_ENK3$_4clERNS2_8OpSchemaEEUlRNS2_16InferenceContextEE_NS_9allocatorISA_EEFvS9_EE7__cloneEPNS0_6__baseISD_EE', symObjAddr: 0x2E2BC, symBinAddr: 0xC097D0, symSize: 0x10 }
  - { offsetInCU: 0x1365A1, offset: 0x676087, size: 0x8, addend: 0x0, symName: '__ZNKSt3__110__function6__funcIZZN4onnx34SoftmaxFamilyDocGenerator_opset_11EPKcS4_ENK3$_4clERNS2_8OpSchemaEEUlRNS2_16InferenceContextEE_NS_9allocatorISA_EEFvS9_EE7__cloneEPNS0_6__baseISD_EE', symObjAddr: 0x2E2BC, symBinAddr: 0xC097D0, symSize: 0x10 }
  - { offsetInCU: 0x1365BD, offset: 0x6760A3, size: 0x8, addend: 0x0, symName: '__ZNSt3__110__function6__funcIZZN4onnx34SoftmaxFamilyDocGenerator_opset_11EPKcS4_ENK3$_4clERNS2_8OpSchemaEEUlRNS2_16InferenceContextEE_NS_9allocatorISA_EEFvS9_EE7destroyEv', symObjAddr: 0x2E2CC, symBinAddr: 0xC097E0, symSize: 0x4 }
  - { offsetInCU: 0x13660E, offset: 0x6760F4, size: 0x8, addend: 0x0, symName: '__ZNSt3__110__function6__funcIZZN4onnx34SoftmaxFamilyDocGenerator_opset_11EPKcS4_ENK3$_4clERNS2_8OpSchemaEEUlRNS2_16InferenceContextEE_NS_9allocatorISA_EEFvS9_EE18destroy_deallocateEv', symObjAddr: 0x2E2D0, symBinAddr: 0xC097E4, symSize: 0x4 }
  - { offsetInCU: 0x136643, offset: 0x676129, size: 0x8, addend: 0x0, symName: '__ZNSt3__110__function6__funcIZZN4onnx34SoftmaxFamilyDocGenerator_opset_11EPKcS4_ENK3$_4clERNS2_8OpSchemaEEUlRNS2_16InferenceContextEE_NS_9allocatorISA_EEFvS9_EE18destroy_deallocateEv', symObjAddr: 0x2E2D0, symBinAddr: 0xC097E4, symSize: 0x4 }
  - { offsetInCU: 0x136665, offset: 0x67614B, size: 0x8, addend: 0x0, symName: '__ZNSt3__110__function6__funcIZZN4onnx34SoftmaxFamilyDocGenerator_opset_11EPKcS4_ENK3$_4clERNS2_8OpSchemaEEUlRNS2_16InferenceContextEE_NS_9allocatorISA_EEFvS9_EE18destroy_deallocateEv', symObjAddr: 0x2E2D0, symBinAddr: 0xC097E4, symSize: 0x4 }
  - { offsetInCU: 0x136690, offset: 0x676176, size: 0x8, addend: 0x0, symName: '__ZNSt3__110__function6__funcIZZN4onnx34SoftmaxFamilyDocGenerator_opset_11EPKcS4_ENK3$_4clERNS2_8OpSchemaEEUlRNS2_16InferenceContextEE_NS_9allocatorISA_EEFvS9_EE18destroy_deallocateEv', symObjAddr: 0x2E2D0, symBinAddr: 0xC097E4, symSize: 0x4 }
  - { offsetInCU: 0x1366B6, offset: 0x67619C, size: 0x8, addend: 0x0, symName: '__ZNSt3__110__function6__funcIZZN4onnx34SoftmaxFamilyDocGenerator_opset_11EPKcS4_ENK3$_4clERNS2_8OpSchemaEEUlRNS2_16InferenceContextEE_NS_9allocatorISA_EEFvS9_EE18destroy_deallocateEv', symObjAddr: 0x2E2D0, symBinAddr: 0xC097E4, symSize: 0x4 }
  - { offsetInCU: 0x136788, offset: 0x67626E, size: 0x8, addend: 0x0, symName: '__ZNSt3__110__function6__funcIZZN4onnx34SoftmaxFamilyDocGenerator_opset_11EPKcS4_ENK3$_4clERNS2_8OpSchemaEEUlRNS2_16InferenceContextEE_NS_9allocatorISA_EEFvS9_EEclES9_', symObjAddr: 0x2E2D4, symBinAddr: 0xC097E8, symSize: 0x2CC }
  - { offsetInCU: 0x1371B5, offset: 0x676C9B, size: 0x8, addend: 0x0, symName: '__ZNKSt3__110__function6__funcIZZN4onnx34SoftmaxFamilyDocGenerator_opset_11EPKcS4_ENK3$_4clERNS2_8OpSchemaEEUlRNS2_16InferenceContextEE_NS_9allocatorISA_EEFvS9_EE6targetERKSt9type_info', symObjAddr: 0x2E5A0, symBinAddr: 0xC09AB4, symSize: 0x60 }
  - { offsetInCU: 0x13723A, offset: 0x676D20, size: 0x8, addend: 0x0, symName: '__ZNKSt3__110__function6__funcIZZN4onnx34SoftmaxFamilyDocGenerator_opset_11EPKcS4_ENK3$_4clERNS2_8OpSchemaEEUlRNS2_16InferenceContextEE_NS_9allocatorISA_EEFvS9_EE11target_typeEv', symObjAddr: 0x2E600, symBinAddr: 0xC09B14, symSize: 0xC }
  - { offsetInCU: 0x137291, offset: 0x676D77, size: 0x8, addend: 0x0, symName: '__ZNSt3__110__function6__funcIZN4onnx11GetOpSchemaINS2_14Mod_Onnx_ver10EEENS2_8OpSchemaEvE3$_5NS_9allocatorIS6_EEFvRNS2_16InferenceContextEEED1Ev', symObjAddr: 0x2E85C, symBinAddr: 0xC09B20, symSize: 0x4 }
  - { offsetInCU: 0x1372BD, offset: 0x676DA3, size: 0x8, addend: 0x0, symName: '__ZNSt3__110__function6__funcIZN4onnx11GetOpSchemaINS2_14Mod_Onnx_ver10EEENS2_8OpSchemaEvE3$_5NS_9allocatorIS6_EEFvRNS2_16InferenceContextEEED0Ev', symObjAddr: 0x2E860, symBinAddr: 0xC09B24, symSize: 0x4 }
  - { offsetInCU: 0x137377, offset: 0x676E5D, size: 0x8, addend: 0x0, symName: '__ZNKSt3__110__function6__funcIZN4onnx11GetOpSchemaINS2_14Mod_Onnx_ver10EEENS2_8OpSchemaEvE3$_5NS_9allocatorIS6_EEFvRNS2_16InferenceContextEEE7__cloneEv', symObjAddr: 0x2E864, symBinAddr: 0xC09B28, symSize: 0x24 }
  - { offsetInCU: 0x1374BF, offset: 0x676FA5, size: 0x8, addend: 0x0, symName: '__ZNKSt3__110__function6__funcIZN4onnx11GetOpSchemaINS2_14Mod_Onnx_ver10EEENS2_8OpSchemaEvE3$_5NS_9allocatorIS6_EEFvRNS2_16InferenceContextEEE7__cloneEPNS0_6__baseISB_EE', symObjAddr: 0x2E888, symBinAddr: 0xC09B4C, symSize: 0x10 }
  - { offsetInCU: 0x1374F5, offset: 0x676FDB, size: 0x8, addend: 0x0, symName: '__ZNKSt3__110__function6__funcIZN4onnx11GetOpSchemaINS2_14Mod_Onnx_ver10EEENS2_8OpSchemaEvE3$_5NS_9allocatorIS6_EEFvRNS2_16InferenceContextEEE7__cloneEPNS0_6__baseISB_EE', symObjAddr: 0x2E888, symBinAddr: 0xC09B4C, symSize: 0x10 }
  - { offsetInCU: 0x137511, offset: 0x676FF7, size: 0x8, addend: 0x0, symName: '__ZNKSt3__110__function6__funcIZN4onnx11GetOpSchemaINS2_14Mod_Onnx_ver10EEENS2_8OpSchemaEvE3$_5NS_9allocatorIS6_EEFvRNS2_16InferenceContextEEE7__cloneEPNS0_6__baseISB_EE', symObjAddr: 0x2E888, symBinAddr: 0xC09B4C, symSize: 0x10 }
  - { offsetInCU: 0x13752D, offset: 0x677013, size: 0x8, addend: 0x0, symName: '__ZNSt3__110__function6__funcIZN4onnx11GetOpSchemaINS2_14Mod_Onnx_ver10EEENS2_8OpSchemaEvE3$_5NS_9allocatorIS6_EEFvRNS2_16InferenceContextEEE7destroyEv', symObjAddr: 0x2E898, symBinAddr: 0xC09B5C, symSize: 0x4 }
  - { offsetInCU: 0x13757E, offset: 0x677064, size: 0x8, addend: 0x0, symName: '__ZNSt3__110__function6__funcIZN4onnx11GetOpSchemaINS2_14Mod_Onnx_ver10EEENS2_8OpSchemaEvE3$_5NS_9allocatorIS6_EEFvRNS2_16InferenceContextEEE18destroy_deallocateEv', symObjAddr: 0x2E89C, symBinAddr: 0xC09B60, symSize: 0x4 }
  - { offsetInCU: 0x1375B3, offset: 0x677099, size: 0x8, addend: 0x0, symName: '__ZNSt3__110__function6__funcIZN4onnx11GetOpSchemaINS2_14Mod_Onnx_ver10EEENS2_8OpSchemaEvE3$_5NS_9allocatorIS6_EEFvRNS2_16InferenceContextEEE18destroy_deallocateEv', symObjAddr: 0x2E89C, symBinAddr: 0xC09B60, symSize: 0x4 }
  - { offsetInCU: 0x1375D5, offset: 0x6770BB, size: 0x8, addend: 0x0, symName: '__ZNSt3__110__function6__funcIZN4onnx11GetOpSchemaINS2_14Mod_Onnx_ver10EEENS2_8OpSchemaEvE3$_5NS_9allocatorIS6_EEFvRNS2_16InferenceContextEEE18destroy_deallocateEv', symObjAddr: 0x2E89C, symBinAddr: 0xC09B60, symSize: 0x4 }
  - { offsetInCU: 0x137600, offset: 0x6770E6, size: 0x8, addend: 0x0, symName: '__ZNSt3__110__function6__funcIZN4onnx11GetOpSchemaINS2_14Mod_Onnx_ver10EEENS2_8OpSchemaEvE3$_5NS_9allocatorIS6_EEFvRNS2_16InferenceContextEEE18destroy_deallocateEv', symObjAddr: 0x2E89C, symBinAddr: 0xC09B60, symSize: 0x4 }
  - { offsetInCU: 0x137626, offset: 0x67710C, size: 0x8, addend: 0x0, symName: '__ZNSt3__110__function6__funcIZN4onnx11GetOpSchemaINS2_14Mod_Onnx_ver10EEENS2_8OpSchemaEvE3$_5NS_9allocatorIS6_EEFvRNS2_16InferenceContextEEE18destroy_deallocateEv', symObjAddr: 0x2E89C, symBinAddr: 0xC09B60, symSize: 0x4 }
  - { offsetInCU: 0x1376D4, offset: 0x6771BA, size: 0x8, addend: 0x0, symName: '__ZNSt3__110__function6__funcIZN4onnx11GetOpSchemaINS2_14Mod_Onnx_ver10EEENS2_8OpSchemaEvE3$_5NS_9allocatorIS6_EEFvRNS2_16InferenceContextEEEclESA_', symObjAddr: 0x2E8A0, symBinAddr: 0xC09B64, symSize: 0x32C }
  - { offsetInCU: 0x13834D, offset: 0x677E33, size: 0x8, addend: 0x0, symName: '__ZNKSt3__110__function6__funcIZN4onnx11GetOpSchemaINS2_14Mod_Onnx_ver10EEENS2_8OpSchemaEvE3$_5NS_9allocatorIS6_EEFvRNS2_16InferenceContextEEE6targetERKSt9type_info', symObjAddr: 0x2EBCC, symBinAddr: 0xC09E90, symSize: 0x60 }
  - { offsetInCU: 0x1383D2, offset: 0x677EB8, size: 0x8, addend: 0x0, symName: '__ZNKSt3__110__function6__funcIZN4onnx11GetOpSchemaINS2_14Mod_Onnx_ver10EEENS2_8OpSchemaEvE3$_5NS_9allocatorIS6_EEFvRNS2_16InferenceContextEEE11target_typeEv', symObjAddr: 0x2EC2C, symBinAddr: 0xC09EF0, symSize: 0xC }
  - { offsetInCU: 0x1383F7, offset: 0x677EDD, size: 0x8, addend: 0x0, symName: '__ZNSt3__110__function6__funcIZN4onnx11GetOpSchemaINS2_14Pow_Onnx_ver13EEENS2_8OpSchemaEvE3$_6NS_9allocatorIS6_EEFvRNS2_16InferenceContextEEED1Ev', symObjAddr: 0x2EC38, symBinAddr: 0xC09EFC, symSize: 0x4 }
  - { offsetInCU: 0x138423, offset: 0x677F09, size: 0x8, addend: 0x0, symName: '__ZNSt3__110__function6__funcIZN4onnx11GetOpSchemaINS2_14Pow_Onnx_ver13EEENS2_8OpSchemaEvE3$_6NS_9allocatorIS6_EEFvRNS2_16InferenceContextEEED0Ev', symObjAddr: 0x2EC3C, symBinAddr: 0xC09F00, symSize: 0x4 }
  - { offsetInCU: 0x1384DD, offset: 0x677FC3, size: 0x8, addend: 0x0, symName: '__ZNKSt3__110__function6__funcIZN4onnx11GetOpSchemaINS2_14Pow_Onnx_ver13EEENS2_8OpSchemaEvE3$_6NS_9allocatorIS6_EEFvRNS2_16InferenceContextEEE7__cloneEv', symObjAddr: 0x2EC40, symBinAddr: 0xC09F04, symSize: 0x24 }
  - { offsetInCU: 0x138625, offset: 0x67810B, size: 0x8, addend: 0x0, symName: '__ZNKSt3__110__function6__funcIZN4onnx11GetOpSchemaINS2_14Pow_Onnx_ver13EEENS2_8OpSchemaEvE3$_6NS_9allocatorIS6_EEFvRNS2_16InferenceContextEEE7__cloneEPNS0_6__baseISB_EE', symObjAddr: 0x2EC64, symBinAddr: 0xC09F28, symSize: 0x10 }
  - { offsetInCU: 0x13865B, offset: 0x678141, size: 0x8, addend: 0x0, symName: '__ZNKSt3__110__function6__funcIZN4onnx11GetOpSchemaINS2_14Pow_Onnx_ver13EEENS2_8OpSchemaEvE3$_6NS_9allocatorIS6_EEFvRNS2_16InferenceContextEEE7__cloneEPNS0_6__baseISB_EE', symObjAddr: 0x2EC64, symBinAddr: 0xC09F28, symSize: 0x10 }
  - { offsetInCU: 0x138677, offset: 0x67815D, size: 0x8, addend: 0x0, symName: '__ZNKSt3__110__function6__funcIZN4onnx11GetOpSchemaINS2_14Pow_Onnx_ver13EEENS2_8OpSchemaEvE3$_6NS_9allocatorIS6_EEFvRNS2_16InferenceContextEEE7__cloneEPNS0_6__baseISB_EE', symObjAddr: 0x2EC64, symBinAddr: 0xC09F28, symSize: 0x10 }
  - { offsetInCU: 0x138693, offset: 0x678179, size: 0x8, addend: 0x0, symName: '__ZNSt3__110__function6__funcIZN4onnx11GetOpSchemaINS2_14Pow_Onnx_ver13EEENS2_8OpSchemaEvE3$_6NS_9allocatorIS6_EEFvRNS2_16InferenceContextEEE7destroyEv', symObjAddr: 0x2EC74, symBinAddr: 0xC09F38, symSize: 0x4 }
  - { offsetInCU: 0x1386E4, offset: 0x6781CA, size: 0x8, addend: 0x0, symName: '__ZNSt3__110__function6__funcIZN4onnx11GetOpSchemaINS2_14Pow_Onnx_ver13EEENS2_8OpSchemaEvE3$_6NS_9allocatorIS6_EEFvRNS2_16InferenceContextEEE18destroy_deallocateEv', symObjAddr: 0x2EC78, symBinAddr: 0xC09F3C, symSize: 0x4 }
  - { offsetInCU: 0x138719, offset: 0x6781FF, size: 0x8, addend: 0x0, symName: '__ZNSt3__110__function6__funcIZN4onnx11GetOpSchemaINS2_14Pow_Onnx_ver13EEENS2_8OpSchemaEvE3$_6NS_9allocatorIS6_EEFvRNS2_16InferenceContextEEE18destroy_deallocateEv', symObjAddr: 0x2EC78, symBinAddr: 0xC09F3C, symSize: 0x4 }
  - { offsetInCU: 0x13873B, offset: 0x678221, size: 0x8, addend: 0x0, symName: '__ZNSt3__110__function6__funcIZN4onnx11GetOpSchemaINS2_14Pow_Onnx_ver13EEENS2_8OpSchemaEvE3$_6NS_9allocatorIS6_EEFvRNS2_16InferenceContextEEE18destroy_deallocateEv', symObjAddr: 0x2EC78, symBinAddr: 0xC09F3C, symSize: 0x4 }
  - { offsetInCU: 0x138766, offset: 0x67824C, size: 0x8, addend: 0x0, symName: '__ZNSt3__110__function6__funcIZN4onnx11GetOpSchemaINS2_14Pow_Onnx_ver13EEENS2_8OpSchemaEvE3$_6NS_9allocatorIS6_EEFvRNS2_16InferenceContextEEE18destroy_deallocateEv', symObjAddr: 0x2EC78, symBinAddr: 0xC09F3C, symSize: 0x4 }
  - { offsetInCU: 0x13878C, offset: 0x678272, size: 0x8, addend: 0x0, symName: '__ZNSt3__110__function6__funcIZN4onnx11GetOpSchemaINS2_14Pow_Onnx_ver13EEENS2_8OpSchemaEvE3$_6NS_9allocatorIS6_EEFvRNS2_16InferenceContextEEE18destroy_deallocateEv', symObjAddr: 0x2EC78, symBinAddr: 0xC09F3C, symSize: 0x4 }
  - { offsetInCU: 0x13883A, offset: 0x678320, size: 0x8, addend: 0x0, symName: '__ZNSt3__110__function6__funcIZN4onnx11GetOpSchemaINS2_14Pow_Onnx_ver13EEENS2_8OpSchemaEvE3$_6NS_9allocatorIS6_EEFvRNS2_16InferenceContextEEEclESA_', symObjAddr: 0x2EC7C, symBinAddr: 0xC09F40, symSize: 0x32C }
  - { offsetInCU: 0x1394B3, offset: 0x678F99, size: 0x8, addend: 0x0, symName: '__ZNKSt3__110__function6__funcIZN4onnx11GetOpSchemaINS2_14Pow_Onnx_ver13EEENS2_8OpSchemaEvE3$_6NS_9allocatorIS6_EEFvRNS2_16InferenceContextEEE6targetERKSt9type_info', symObjAddr: 0x2EFA8, symBinAddr: 0xC0A26C, symSize: 0x60 }
  - { offsetInCU: 0x139538, offset: 0x67901E, size: 0x8, addend: 0x0, symName: '__ZNKSt3__110__function6__funcIZN4onnx11GetOpSchemaINS2_14Pow_Onnx_ver13EEENS2_8OpSchemaEvE3$_6NS_9allocatorIS6_EEFvRNS2_16InferenceContextEEE11target_typeEv', symObjAddr: 0x2F008, symBinAddr: 0xC0A2CC, symSize: 0xC }
  - { offsetInCU: 0x13955D, offset: 0x679043, size: 0x8, addend: 0x0, symName: '__ZNSt3__110__function6__funcIZN4onnx11GetOpSchemaINS2_14Pow_Onnx_ver12EEENS2_8OpSchemaEvE3$_7NS_9allocatorIS6_EEFvRNS2_16InferenceContextEEED1Ev', symObjAddr: 0x2F014, symBinAddr: 0xC0A2D8, symSize: 0x4 }
  - { offsetInCU: 0x139589, offset: 0x67906F, size: 0x8, addend: 0x0, symName: '__ZNSt3__110__function6__funcIZN4onnx11GetOpSchemaINS2_14Pow_Onnx_ver12EEENS2_8OpSchemaEvE3$_7NS_9allocatorIS6_EEFvRNS2_16InferenceContextEEED0Ev', symObjAddr: 0x2F018, symBinAddr: 0xC0A2DC, symSize: 0x4 }
  - { offsetInCU: 0x139643, offset: 0x679129, size: 0x8, addend: 0x0, symName: '__ZNKSt3__110__function6__funcIZN4onnx11GetOpSchemaINS2_14Pow_Onnx_ver12EEENS2_8OpSchemaEvE3$_7NS_9allocatorIS6_EEFvRNS2_16InferenceContextEEE7__cloneEv', symObjAddr: 0x2F01C, symBinAddr: 0xC0A2E0, symSize: 0x24 }
  - { offsetInCU: 0x13978B, offset: 0x679271, size: 0x8, addend: 0x0, symName: '__ZNKSt3__110__function6__funcIZN4onnx11GetOpSchemaINS2_14Pow_Onnx_ver12EEENS2_8OpSchemaEvE3$_7NS_9allocatorIS6_EEFvRNS2_16InferenceContextEEE7__cloneEPNS0_6__baseISB_EE', symObjAddr: 0x2F040, symBinAddr: 0xC0A304, symSize: 0x10 }
  - { offsetInCU: 0x1397C1, offset: 0x6792A7, size: 0x8, addend: 0x0, symName: '__ZNKSt3__110__function6__funcIZN4onnx11GetOpSchemaINS2_14Pow_Onnx_ver12EEENS2_8OpSchemaEvE3$_7NS_9allocatorIS6_EEFvRNS2_16InferenceContextEEE7__cloneEPNS0_6__baseISB_EE', symObjAddr: 0x2F040, symBinAddr: 0xC0A304, symSize: 0x10 }
  - { offsetInCU: 0x1397DD, offset: 0x6792C3, size: 0x8, addend: 0x0, symName: '__ZNKSt3__110__function6__funcIZN4onnx11GetOpSchemaINS2_14Pow_Onnx_ver12EEENS2_8OpSchemaEvE3$_7NS_9allocatorIS6_EEFvRNS2_16InferenceContextEEE7__cloneEPNS0_6__baseISB_EE', symObjAddr: 0x2F040, symBinAddr: 0xC0A304, symSize: 0x10 }
  - { offsetInCU: 0x1397F9, offset: 0x6792DF, size: 0x8, addend: 0x0, symName: '__ZNSt3__110__function6__funcIZN4onnx11GetOpSchemaINS2_14Pow_Onnx_ver12EEENS2_8OpSchemaEvE3$_7NS_9allocatorIS6_EEFvRNS2_16InferenceContextEEE7destroyEv', symObjAddr: 0x2F050, symBinAddr: 0xC0A314, symSize: 0x4 }
  - { offsetInCU: 0x13984A, offset: 0x679330, size: 0x8, addend: 0x0, symName: '__ZNSt3__110__function6__funcIZN4onnx11GetOpSchemaINS2_14Pow_Onnx_ver12EEENS2_8OpSchemaEvE3$_7NS_9allocatorIS6_EEFvRNS2_16InferenceContextEEE18destroy_deallocateEv', symObjAddr: 0x2F054, symBinAddr: 0xC0A318, symSize: 0x4 }
  - { offsetInCU: 0x13987F, offset: 0x679365, size: 0x8, addend: 0x0, symName: '__ZNSt3__110__function6__funcIZN4onnx11GetOpSchemaINS2_14Pow_Onnx_ver12EEENS2_8OpSchemaEvE3$_7NS_9allocatorIS6_EEFvRNS2_16InferenceContextEEE18destroy_deallocateEv', symObjAddr: 0x2F054, symBinAddr: 0xC0A318, symSize: 0x4 }
  - { offsetInCU: 0x1398A1, offset: 0x679387, size: 0x8, addend: 0x0, symName: '__ZNSt3__110__function6__funcIZN4onnx11GetOpSchemaINS2_14Pow_Onnx_ver12EEENS2_8OpSchemaEvE3$_7NS_9allocatorIS6_EEFvRNS2_16InferenceContextEEE18destroy_deallocateEv', symObjAddr: 0x2F054, symBinAddr: 0xC0A318, symSize: 0x4 }
  - { offsetInCU: 0x1398CC, offset: 0x6793B2, size: 0x8, addend: 0x0, symName: '__ZNSt3__110__function6__funcIZN4onnx11GetOpSchemaINS2_14Pow_Onnx_ver12EEENS2_8OpSchemaEvE3$_7NS_9allocatorIS6_EEFvRNS2_16InferenceContextEEE18destroy_deallocateEv', symObjAddr: 0x2F054, symBinAddr: 0xC0A318, symSize: 0x4 }
  - { offsetInCU: 0x1398F2, offset: 0x6793D8, size: 0x8, addend: 0x0, symName: '__ZNSt3__110__function6__funcIZN4onnx11GetOpSchemaINS2_14Pow_Onnx_ver12EEENS2_8OpSchemaEvE3$_7NS_9allocatorIS6_EEFvRNS2_16InferenceContextEEE18destroy_deallocateEv', symObjAddr: 0x2F054, symBinAddr: 0xC0A318, symSize: 0x4 }
  - { offsetInCU: 0x1399A0, offset: 0x679486, size: 0x8, addend: 0x0, symName: '__ZNSt3__110__function6__funcIZN4onnx11GetOpSchemaINS2_14Pow_Onnx_ver12EEENS2_8OpSchemaEvE3$_7NS_9allocatorIS6_EEFvRNS2_16InferenceContextEEEclESA_', symObjAddr: 0x2F058, symBinAddr: 0xC0A31C, symSize: 0x32C }
  - { offsetInCU: 0x13A619, offset: 0x67A0FF, size: 0x8, addend: 0x0, symName: '__ZNKSt3__110__function6__funcIZN4onnx11GetOpSchemaINS2_14Pow_Onnx_ver12EEENS2_8OpSchemaEvE3$_7NS_9allocatorIS6_EEFvRNS2_16InferenceContextEEE6targetERKSt9type_info', symObjAddr: 0x2F384, symBinAddr: 0xC0A648, symSize: 0x60 }
  - { offsetInCU: 0x13A69E, offset: 0x67A184, size: 0x8, addend: 0x0, symName: '__ZNKSt3__110__function6__funcIZN4onnx11GetOpSchemaINS2_14Pow_Onnx_ver12EEENS2_8OpSchemaEvE3$_7NS_9allocatorIS6_EEFvRNS2_16InferenceContextEEE11target_typeEv', symObjAddr: 0x2F3E4, symBinAddr: 0xC0A6A8, symSize: 0xC }
  - { offsetInCU: 0x13A6C3, offset: 0x67A1A9, size: 0x8, addend: 0x0, symName: '__ZNSt3__110__function6__funcIZN4onnx37ElementwiseMultiOpDocGenerator_opset8EPKcE3$_8NS_9allocatorIS5_EEFvRNS2_8OpSchemaEEED1Ev', symObjAddr: 0x2F3F0, symBinAddr: 0xC0A6B4, symSize: 0x4 }
  - { offsetInCU: 0x13A6EF, offset: 0x67A1D5, size: 0x8, addend: 0x0, symName: '__ZNSt3__110__function6__funcIZN4onnx37ElementwiseMultiOpDocGenerator_opset8EPKcE3$_8NS_9allocatorIS5_EEFvRNS2_8OpSchemaEEED0Ev', symObjAddr: 0x2F3F4, symBinAddr: 0xC0A6B8, symSize: 0x4 }
  - { offsetInCU: 0x13A7A9, offset: 0x67A28F, size: 0x8, addend: 0x0, symName: '__ZNKSt3__110__function6__funcIZN4onnx37ElementwiseMultiOpDocGenerator_opset8EPKcE3$_8NS_9allocatorIS5_EEFvRNS2_8OpSchemaEEE7__cloneEv', symObjAddr: 0x2F3F8, symBinAddr: 0xC0A6BC, symSize: 0x34 }
  - { offsetInCU: 0x13A8F5, offset: 0x67A3DB, size: 0x8, addend: 0x0, symName: '__ZNKSt3__110__function6__funcIZN4onnx37ElementwiseMultiOpDocGenerator_opset8EPKcE3$_8NS_9allocatorIS5_EEFvRNS2_8OpSchemaEEE7__cloneEPNS0_6__baseISA_EE', symObjAddr: 0x2F42C, symBinAddr: 0xC0A6F0, symSize: 0x14 }
  - { offsetInCU: 0x13A965, offset: 0x67A44B, size: 0x8, addend: 0x0, symName: '__ZNSt3__110__function6__funcIZN4onnx37ElementwiseMultiOpDocGenerator_opset8EPKcE3$_8NS_9allocatorIS5_EEFvRNS2_8OpSchemaEEE7destroyEv', symObjAddr: 0x2F440, symBinAddr: 0xC0A704, symSize: 0x4 }
  - { offsetInCU: 0x13A9B6, offset: 0x67A49C, size: 0x8, addend: 0x0, symName: '__ZNSt3__110__function6__funcIZN4onnx37ElementwiseMultiOpDocGenerator_opset8EPKcE3$_8NS_9allocatorIS5_EEFvRNS2_8OpSchemaEEE18destroy_deallocateEv', symObjAddr: 0x2F444, symBinAddr: 0xC0A708, symSize: 0x4 }
  - { offsetInCU: 0x13A9EB, offset: 0x67A4D1, size: 0x8, addend: 0x0, symName: '__ZNSt3__110__function6__funcIZN4onnx37ElementwiseMultiOpDocGenerator_opset8EPKcE3$_8NS_9allocatorIS5_EEFvRNS2_8OpSchemaEEE18destroy_deallocateEv', symObjAddr: 0x2F444, symBinAddr: 0xC0A708, symSize: 0x4 }
  - { offsetInCU: 0x13AA0D, offset: 0x67A4F3, size: 0x8, addend: 0x0, symName: '__ZNSt3__110__function6__funcIZN4onnx37ElementwiseMultiOpDocGenerator_opset8EPKcE3$_8NS_9allocatorIS5_EEFvRNS2_8OpSchemaEEE18destroy_deallocateEv', symObjAddr: 0x2F444, symBinAddr: 0xC0A708, symSize: 0x4 }
  - { offsetInCU: 0x13AA38, offset: 0x67A51E, size: 0x8, addend: 0x0, symName: '__ZNSt3__110__function6__funcIZN4onnx37ElementwiseMultiOpDocGenerator_opset8EPKcE3$_8NS_9allocatorIS5_EEFvRNS2_8OpSchemaEEE18destroy_deallocateEv', symObjAddr: 0x2F444, symBinAddr: 0xC0A708, symSize: 0x4 }
  - { offsetInCU: 0x13AA5E, offset: 0x67A544, size: 0x8, addend: 0x0, symName: '__ZNSt3__110__function6__funcIZN4onnx37ElementwiseMultiOpDocGenerator_opset8EPKcE3$_8NS_9allocatorIS5_EEFvRNS2_8OpSchemaEEE18destroy_deallocateEv', symObjAddr: 0x2F444, symBinAddr: 0xC0A708, symSize: 0x4 }
  - { offsetInCU: 0x13ACCE, offset: 0x67A7B4, size: 0x8, addend: 0x0, symName: '__ZNSt3__110__function6__funcIZN4onnx37ElementwiseMultiOpDocGenerator_opset8EPKcE3$_8NS_9allocatorIS5_EEFvRNS2_8OpSchemaEEEclES9_', symObjAddr: 0x2F448, symBinAddr: 0xC0A70C, symSize: 0x46C }
  - { offsetInCU: 0x13CCB9, offset: 0x67C79F, size: 0x8, addend: 0x0, symName: '__ZNKSt3__110__function6__funcIZN4onnx37ElementwiseMultiOpDocGenerator_opset8EPKcE3$_8NS_9allocatorIS5_EEFvRNS2_8OpSchemaEEE6targetERKSt9type_info', symObjAddr: 0x2F8B4, symBinAddr: 0xC0AB78, symSize: 0x60 }
  - { offsetInCU: 0x13CD3E, offset: 0x67C824, size: 0x8, addend: 0x0, symName: '__ZNKSt3__110__function6__funcIZN4onnx37ElementwiseMultiOpDocGenerator_opset8EPKcE3$_8NS_9allocatorIS5_EEFvRNS2_8OpSchemaEEE11target_typeEv', symObjAddr: 0x2F914, symBinAddr: 0xC0ABD8, symSize: 0xC }
  - { offsetInCU: 0x13CD63, offset: 0x67C849, size: 0x8, addend: 0x0, symName: '__ZNSt3__110__function6__funcIZZN4onnx37ElementwiseMultiOpDocGenerator_opset8EPKcENK3$_8clERNS2_8OpSchemaEEUlRNS2_16InferenceContextEE_NS_9allocatorISA_EEFvS9_EED1Ev', symObjAddr: 0x2F920, symBinAddr: 0xC0ABE4, symSize: 0x4 }
  - { offsetInCU: 0x13CD8F, offset: 0x67C875, size: 0x8, addend: 0x0, symName: '__ZNSt3__110__function6__funcIZZN4onnx37ElementwiseMultiOpDocGenerator_opset8EPKcENK3$_8clERNS2_8OpSchemaEEUlRNS2_16InferenceContextEE_NS_9allocatorISA_EEFvS9_EED0Ev', symObjAddr: 0x2F924, symBinAddr: 0xC0ABE8, symSize: 0x4 }
  - { offsetInCU: 0x13CE49, offset: 0x67C92F, size: 0x8, addend: 0x0, symName: '__ZNKSt3__110__function6__funcIZZN4onnx37ElementwiseMultiOpDocGenerator_opset8EPKcENK3$_8clERNS2_8OpSchemaEEUlRNS2_16InferenceContextEE_NS_9allocatorISA_EEFvS9_EE7__cloneEv', symObjAddr: 0x2F928, symBinAddr: 0xC0ABEC, symSize: 0x24 }
  - { offsetInCU: 0x13CF91, offset: 0x67CA77, size: 0x8, addend: 0x0, symName: '__ZNKSt3__110__function6__funcIZZN4onnx37ElementwiseMultiOpDocGenerator_opset8EPKcENK3$_8clERNS2_8OpSchemaEEUlRNS2_16InferenceContextEE_NS_9allocatorISA_EEFvS9_EE7__cloneEPNS0_6__baseISD_EE', symObjAddr: 0x2F94C, symBinAddr: 0xC0AC10, symSize: 0x10 }
  - { offsetInCU: 0x13CFC7, offset: 0x67CAAD, size: 0x8, addend: 0x0, symName: '__ZNKSt3__110__function6__funcIZZN4onnx37ElementwiseMultiOpDocGenerator_opset8EPKcENK3$_8clERNS2_8OpSchemaEEUlRNS2_16InferenceContextEE_NS_9allocatorISA_EEFvS9_EE7__cloneEPNS0_6__baseISD_EE', symObjAddr: 0x2F94C, symBinAddr: 0xC0AC10, symSize: 0x10 }
  - { offsetInCU: 0x13CFE3, offset: 0x67CAC9, size: 0x8, addend: 0x0, symName: '__ZNKSt3__110__function6__funcIZZN4onnx37ElementwiseMultiOpDocGenerator_opset8EPKcENK3$_8clERNS2_8OpSchemaEEUlRNS2_16InferenceContextEE_NS_9allocatorISA_EEFvS9_EE7__cloneEPNS0_6__baseISD_EE', symObjAddr: 0x2F94C, symBinAddr: 0xC0AC10, symSize: 0x10 }
  - { offsetInCU: 0x13CFFF, offset: 0x67CAE5, size: 0x8, addend: 0x0, symName: '__ZNSt3__110__function6__funcIZZN4onnx37ElementwiseMultiOpDocGenerator_opset8EPKcENK3$_8clERNS2_8OpSchemaEEUlRNS2_16InferenceContextEE_NS_9allocatorISA_EEFvS9_EE7destroyEv', symObjAddr: 0x2F95C, symBinAddr: 0xC0AC20, symSize: 0x4 }
  - { offsetInCU: 0x13D050, offset: 0x67CB36, size: 0x8, addend: 0x0, symName: '__ZNSt3__110__function6__funcIZZN4onnx37ElementwiseMultiOpDocGenerator_opset8EPKcENK3$_8clERNS2_8OpSchemaEEUlRNS2_16InferenceContextEE_NS_9allocatorISA_EEFvS9_EE18destroy_deallocateEv', symObjAddr: 0x2F960, symBinAddr: 0xC0AC24, symSize: 0x4 }
  - { offsetInCU: 0x13D085, offset: 0x67CB6B, size: 0x8, addend: 0x0, symName: '__ZNSt3__110__function6__funcIZZN4onnx37ElementwiseMultiOpDocGenerator_opset8EPKcENK3$_8clERNS2_8OpSchemaEEUlRNS2_16InferenceContextEE_NS_9allocatorISA_EEFvS9_EE18destroy_deallocateEv', symObjAddr: 0x2F960, symBinAddr: 0xC0AC24, symSize: 0x4 }
  - { offsetInCU: 0x13D0A7, offset: 0x67CB8D, size: 0x8, addend: 0x0, symName: '__ZNSt3__110__function6__funcIZZN4onnx37ElementwiseMultiOpDocGenerator_opset8EPKcENK3$_8clERNS2_8OpSchemaEEUlRNS2_16InferenceContextEE_NS_9allocatorISA_EEFvS9_EE18destroy_deallocateEv', symObjAddr: 0x2F960, symBinAddr: 0xC0AC24, symSize: 0x4 }
  - { offsetInCU: 0x13D0D2, offset: 0x67CBB8, size: 0x8, addend: 0x0, symName: '__ZNSt3__110__function6__funcIZZN4onnx37ElementwiseMultiOpDocGenerator_opset8EPKcENK3$_8clERNS2_8OpSchemaEEUlRNS2_16InferenceContextEE_NS_9allocatorISA_EEFvS9_EE18destroy_deallocateEv', symObjAddr: 0x2F960, symBinAddr: 0xC0AC24, symSize: 0x4 }
  - { offsetInCU: 0x13D0F8, offset: 0x67CBDE, size: 0x8, addend: 0x0, symName: '__ZNSt3__110__function6__funcIZZN4onnx37ElementwiseMultiOpDocGenerator_opset8EPKcENK3$_8clERNS2_8OpSchemaEEUlRNS2_16InferenceContextEE_NS_9allocatorISA_EEFvS9_EE18destroy_deallocateEv', symObjAddr: 0x2F960, symBinAddr: 0xC0AC24, symSize: 0x4 }
  - { offsetInCU: 0x13D358, offset: 0x67CE3E, size: 0x8, addend: 0x0, symName: '__ZNSt3__110__function6__funcIZZN4onnx37ElementwiseMultiOpDocGenerator_opset8EPKcENK3$_8clERNS2_8OpSchemaEEUlRNS2_16InferenceContextEE_NS_9allocatorISA_EEFvS9_EEclES9_', symObjAddr: 0x2F964, symBinAddr: 0xC0AC28, symSize: 0x2C0 }
  - { offsetInCU: 0x13DE0D, offset: 0x67D8F3, size: 0x8, addend: 0x0, symName: '__ZNKSt3__110__function6__funcIZZN4onnx37ElementwiseMultiOpDocGenerator_opset8EPKcENK3$_8clERNS2_8OpSchemaEEUlRNS2_16InferenceContextEE_NS_9allocatorISA_EEFvS9_EE6targetERKSt9type_info', symObjAddr: 0x2FC24, symBinAddr: 0xC0AEE8, symSize: 0x60 }
  - { offsetInCU: 0x13DE92, offset: 0x67D978, size: 0x8, addend: 0x0, symName: '__ZNKSt3__110__function6__funcIZZN4onnx37ElementwiseMultiOpDocGenerator_opset8EPKcENK3$_8clERNS2_8OpSchemaEEUlRNS2_16InferenceContextEE_NS_9allocatorISA_EEFvS9_EE11target_typeEv', symObjAddr: 0x2FC84, symBinAddr: 0xC0AF48, symSize: 0xC }
  - { offsetInCU: 0x13DEB7, offset: 0x67D99D, size: 0x8, addend: 0x0, symName: '__ZNSt3__110__function6__funcIZN4onnx11GetOpSchemaINS2_15Gemm_Onnx_ver11EEENS2_8OpSchemaEvE3$_9NS_9allocatorIS6_EEFvRNS2_16InferenceContextEEED1Ev', symObjAddr: 0x2FC90, symBinAddr: 0xC0AF54, symSize: 0x4 }
  - { offsetInCU: 0x13DEE3, offset: 0x67D9C9, size: 0x8, addend: 0x0, symName: '__ZNSt3__110__function6__funcIZN4onnx11GetOpSchemaINS2_15Gemm_Onnx_ver11EEENS2_8OpSchemaEvE3$_9NS_9allocatorIS6_EEFvRNS2_16InferenceContextEEED0Ev', symObjAddr: 0x2FC94, symBinAddr: 0xC0AF58, symSize: 0x4 }
  - { offsetInCU: 0x13DF9D, offset: 0x67DA83, size: 0x8, addend: 0x0, symName: '__ZNKSt3__110__function6__funcIZN4onnx11GetOpSchemaINS2_15Gemm_Onnx_ver11EEENS2_8OpSchemaEvE3$_9NS_9allocatorIS6_EEFvRNS2_16InferenceContextEEE7__cloneEv', symObjAddr: 0x2FC98, symBinAddr: 0xC0AF5C, symSize: 0x24 }
  - { offsetInCU: 0x13E0E5, offset: 0x67DBCB, size: 0x8, addend: 0x0, symName: '__ZNKSt3__110__function6__funcIZN4onnx11GetOpSchemaINS2_15Gemm_Onnx_ver11EEENS2_8OpSchemaEvE3$_9NS_9allocatorIS6_EEFvRNS2_16InferenceContextEEE7__cloneEPNS0_6__baseISB_EE', symObjAddr: 0x2FCBC, symBinAddr: 0xC0AF80, symSize: 0x10 }
  - { offsetInCU: 0x13E11B, offset: 0x67DC01, size: 0x8, addend: 0x0, symName: '__ZNKSt3__110__function6__funcIZN4onnx11GetOpSchemaINS2_15Gemm_Onnx_ver11EEENS2_8OpSchemaEvE3$_9NS_9allocatorIS6_EEFvRNS2_16InferenceContextEEE7__cloneEPNS0_6__baseISB_EE', symObjAddr: 0x2FCBC, symBinAddr: 0xC0AF80, symSize: 0x10 }
  - { offsetInCU: 0x13E137, offset: 0x67DC1D, size: 0x8, addend: 0x0, symName: '__ZNKSt3__110__function6__funcIZN4onnx11GetOpSchemaINS2_15Gemm_Onnx_ver11EEENS2_8OpSchemaEvE3$_9NS_9allocatorIS6_EEFvRNS2_16InferenceContextEEE7__cloneEPNS0_6__baseISB_EE', symObjAddr: 0x2FCBC, symBinAddr: 0xC0AF80, symSize: 0x10 }
  - { offsetInCU: 0x13E153, offset: 0x67DC39, size: 0x8, addend: 0x0, symName: '__ZNSt3__110__function6__funcIZN4onnx11GetOpSchemaINS2_15Gemm_Onnx_ver11EEENS2_8OpSchemaEvE3$_9NS_9allocatorIS6_EEFvRNS2_16InferenceContextEEE7destroyEv', symObjAddr: 0x2FCCC, symBinAddr: 0xC0AF90, symSize: 0x4 }
  - { offsetInCU: 0x13E1A4, offset: 0x67DC8A, size: 0x8, addend: 0x0, symName: '__ZNSt3__110__function6__funcIZN4onnx11GetOpSchemaINS2_15Gemm_Onnx_ver11EEENS2_8OpSchemaEvE3$_9NS_9allocatorIS6_EEFvRNS2_16InferenceContextEEE18destroy_deallocateEv', symObjAddr: 0x2FCD0, symBinAddr: 0xC0AF94, symSize: 0x4 }
  - { offsetInCU: 0x13E1D9, offset: 0x67DCBF, size: 0x8, addend: 0x0, symName: '__ZNSt3__110__function6__funcIZN4onnx11GetOpSchemaINS2_15Gemm_Onnx_ver11EEENS2_8OpSchemaEvE3$_9NS_9allocatorIS6_EEFvRNS2_16InferenceContextEEE18destroy_deallocateEv', symObjAddr: 0x2FCD0, symBinAddr: 0xC0AF94, symSize: 0x4 }
  - { offsetInCU: 0x13E1FB, offset: 0x67DCE1, size: 0x8, addend: 0x0, symName: '__ZNSt3__110__function6__funcIZN4onnx11GetOpSchemaINS2_15Gemm_Onnx_ver11EEENS2_8OpSchemaEvE3$_9NS_9allocatorIS6_EEFvRNS2_16InferenceContextEEE18destroy_deallocateEv', symObjAddr: 0x2FCD0, symBinAddr: 0xC0AF94, symSize: 0x4 }
  - { offsetInCU: 0x13E226, offset: 0x67DD0C, size: 0x8, addend: 0x0, symName: '__ZNSt3__110__function6__funcIZN4onnx11GetOpSchemaINS2_15Gemm_Onnx_ver11EEENS2_8OpSchemaEvE3$_9NS_9allocatorIS6_EEFvRNS2_16InferenceContextEEE18destroy_deallocateEv', symObjAddr: 0x2FCD0, symBinAddr: 0xC0AF94, symSize: 0x4 }
  - { offsetInCU: 0x13E24C, offset: 0x67DD32, size: 0x8, addend: 0x0, symName: '__ZNSt3__110__function6__funcIZN4onnx11GetOpSchemaINS2_15Gemm_Onnx_ver11EEENS2_8OpSchemaEvE3$_9NS_9allocatorIS6_EEFvRNS2_16InferenceContextEEE18destroy_deallocateEv', symObjAddr: 0x2FCD0, symBinAddr: 0xC0AF94, symSize: 0x4 }
  - { offsetInCU: 0x13E34A, offset: 0x67DE30, size: 0x8, addend: 0x0, symName: '__ZNSt3__110__function6__funcIZN4onnx11GetOpSchemaINS2_15Gemm_Onnx_ver11EEENS2_8OpSchemaEvE3$_9NS_9allocatorIS6_EEFvRNS2_16InferenceContextEEEclESA_', symObjAddr: 0x2FCD4, symBinAddr: 0xC0AF98, symSize: 0x4EC }
  - { offsetInCU: 0x13F274, offset: 0x67ED5A, size: 0x8, addend: 0x0, symName: '__ZNKSt3__110__function6__funcIZN4onnx11GetOpSchemaINS2_15Gemm_Onnx_ver11EEENS2_8OpSchemaEvE3$_9NS_9allocatorIS6_EEFvRNS2_16InferenceContextEEE6targetERKSt9type_info', symObjAddr: 0x301C0, symBinAddr: 0xC0B484, symSize: 0x60 }
  - { offsetInCU: 0x13F2F9, offset: 0x67EDDF, size: 0x8, addend: 0x0, symName: '__ZNKSt3__110__function6__funcIZN4onnx11GetOpSchemaINS2_15Gemm_Onnx_ver11EEENS2_8OpSchemaEvE3$_9NS_9allocatorIS6_EEFvRNS2_16InferenceContextEEE11target_typeEv', symObjAddr: 0x30220, symBinAddr: 0xC0B4E4, symSize: 0xC }
  - { offsetInCU: 0x13F43D, offset: 0x67EF23, size: 0x8, addend: 0x0, symName: '__ZNSt3__110__function6__funcIZN4onnx11GetOpSchemaINS2_16MatMul_Onnx_ver9EEENS2_8OpSchemaEvE4$_10NS_9allocatorIS6_EEFvRNS2_16InferenceContextEEED1Ev', symObjAddr: 0x313C0, symBinAddr: 0xC0B4F0, symSize: 0x4 }
  - { offsetInCU: 0x13F469, offset: 0x67EF4F, size: 0x8, addend: 0x0, symName: '__ZNSt3__110__function6__funcIZN4onnx11GetOpSchemaINS2_16MatMul_Onnx_ver9EEENS2_8OpSchemaEvE4$_10NS_9allocatorIS6_EEFvRNS2_16InferenceContextEEED0Ev', symObjAddr: 0x313C4, symBinAddr: 0xC0B4F4, symSize: 0x4 }
  - { offsetInCU: 0x13F523, offset: 0x67F009, size: 0x8, addend: 0x0, symName: '__ZNKSt3__110__function6__funcIZN4onnx11GetOpSchemaINS2_16MatMul_Onnx_ver9EEENS2_8OpSchemaEvE4$_10NS_9allocatorIS6_EEFvRNS2_16InferenceContextEEE7__cloneEv', symObjAddr: 0x313C8, symBinAddr: 0xC0B4F8, symSize: 0x24 }
  - { offsetInCU: 0x13F66B, offset: 0x67F151, size: 0x8, addend: 0x0, symName: '__ZNKSt3__110__function6__funcIZN4onnx11GetOpSchemaINS2_16MatMul_Onnx_ver9EEENS2_8OpSchemaEvE4$_10NS_9allocatorIS6_EEFvRNS2_16InferenceContextEEE7__cloneEPNS0_6__baseISB_EE', symObjAddr: 0x313EC, symBinAddr: 0xC0B51C, symSize: 0x10 }
  - { offsetInCU: 0x13F6A1, offset: 0x67F187, size: 0x8, addend: 0x0, symName: '__ZNKSt3__110__function6__funcIZN4onnx11GetOpSchemaINS2_16MatMul_Onnx_ver9EEENS2_8OpSchemaEvE4$_10NS_9allocatorIS6_EEFvRNS2_16InferenceContextEEE7__cloneEPNS0_6__baseISB_EE', symObjAddr: 0x313EC, symBinAddr: 0xC0B51C, symSize: 0x10 }
  - { offsetInCU: 0x13F6BD, offset: 0x67F1A3, size: 0x8, addend: 0x0, symName: '__ZNKSt3__110__function6__funcIZN4onnx11GetOpSchemaINS2_16MatMul_Onnx_ver9EEENS2_8OpSchemaEvE4$_10NS_9allocatorIS6_EEFvRNS2_16InferenceContextEEE7__cloneEPNS0_6__baseISB_EE', symObjAddr: 0x313EC, symBinAddr: 0xC0B51C, symSize: 0x10 }
  - { offsetInCU: 0x13F6D9, offset: 0x67F1BF, size: 0x8, addend: 0x0, symName: '__ZNSt3__110__function6__funcIZN4onnx11GetOpSchemaINS2_16MatMul_Onnx_ver9EEENS2_8OpSchemaEvE4$_10NS_9allocatorIS6_EEFvRNS2_16InferenceContextEEE7destroyEv', symObjAddr: 0x313FC, symBinAddr: 0xC0B52C, symSize: 0x4 }
  - { offsetInCU: 0x13F72A, offset: 0x67F210, size: 0x8, addend: 0x0, symName: '__ZNSt3__110__function6__funcIZN4onnx11GetOpSchemaINS2_16MatMul_Onnx_ver9EEENS2_8OpSchemaEvE4$_10NS_9allocatorIS6_EEFvRNS2_16InferenceContextEEE18destroy_deallocateEv', symObjAddr: 0x31400, symBinAddr: 0xC0B530, symSize: 0x4 }
  - { offsetInCU: 0x13F75F, offset: 0x67F245, size: 0x8, addend: 0x0, symName: '__ZNSt3__110__function6__funcIZN4onnx11GetOpSchemaINS2_16MatMul_Onnx_ver9EEENS2_8OpSchemaEvE4$_10NS_9allocatorIS6_EEFvRNS2_16InferenceContextEEE18destroy_deallocateEv', symObjAddr: 0x31400, symBinAddr: 0xC0B530, symSize: 0x4 }
  - { offsetInCU: 0x13F781, offset: 0x67F267, size: 0x8, addend: 0x0, symName: '__ZNSt3__110__function6__funcIZN4onnx11GetOpSchemaINS2_16MatMul_Onnx_ver9EEENS2_8OpSchemaEvE4$_10NS_9allocatorIS6_EEFvRNS2_16InferenceContextEEE18destroy_deallocateEv', symObjAddr: 0x31400, symBinAddr: 0xC0B530, symSize: 0x4 }
  - { offsetInCU: 0x13F7AC, offset: 0x67F292, size: 0x8, addend: 0x0, symName: '__ZNSt3__110__function6__funcIZN4onnx11GetOpSchemaINS2_16MatMul_Onnx_ver9EEENS2_8OpSchemaEvE4$_10NS_9allocatorIS6_EEFvRNS2_16InferenceContextEEE18destroy_deallocateEv', symObjAddr: 0x31400, symBinAddr: 0xC0B530, symSize: 0x4 }
  - { offsetInCU: 0x13F7D2, offset: 0x67F2B8, size: 0x8, addend: 0x0, symName: '__ZNSt3__110__function6__funcIZN4onnx11GetOpSchemaINS2_16MatMul_Onnx_ver9EEENS2_8OpSchemaEvE4$_10NS_9allocatorIS6_EEFvRNS2_16InferenceContextEEE18destroy_deallocateEv', symObjAddr: 0x31400, symBinAddr: 0xC0B530, symSize: 0x4 }
  - { offsetInCU: 0x13F880, offset: 0x67F366, size: 0x8, addend: 0x0, symName: '__ZNSt3__110__function6__funcIZN4onnx11GetOpSchemaINS2_16MatMul_Onnx_ver9EEENS2_8OpSchemaEvE4$_10NS_9allocatorIS6_EEFvRNS2_16InferenceContextEEEclESA_', symObjAddr: 0x31404, symBinAddr: 0xC0B534, symSize: 0x38 }
  - { offsetInCU: 0x13F96D, offset: 0x67F453, size: 0x8, addend: 0x0, symName: '__ZNKSt3__110__function6__funcIZN4onnx11GetOpSchemaINS2_16MatMul_Onnx_ver9EEENS2_8OpSchemaEvE4$_10NS_9allocatorIS6_EEFvRNS2_16InferenceContextEEE6targetERKSt9type_info', symObjAddr: 0x3143C, symBinAddr: 0xC0B56C, symSize: 0x60 }
  - { offsetInCU: 0x13F9F2, offset: 0x67F4D8, size: 0x8, addend: 0x0, symName: '__ZNKSt3__110__function6__funcIZN4onnx11GetOpSchemaINS2_16MatMul_Onnx_ver9EEENS2_8OpSchemaEvE4$_10NS_9allocatorIS6_EEFvRNS2_16InferenceContextEEE11target_typeEv', symObjAddr: 0x3149C, symBinAddr: 0xC0B5CC, symSize: 0xC }
  - { offsetInCU: 0x13FA17, offset: 0x67F4FD, size: 0x8, addend: 0x0, symName: '__ZNSt3__110__function6__funcIZN4onnx11GetOpSchemaINS2_16Expand_Onnx_ver8EEENS2_8OpSchemaEvE4$_11NS_9allocatorIS6_EEFvRNS2_16InferenceContextEEED1Ev', symObjAddr: 0x314A8, symBinAddr: 0xC0B5D8, symSize: 0x4 }
  - { offsetInCU: 0x13FA43, offset: 0x67F529, size: 0x8, addend: 0x0, symName: '__ZNSt3__110__function6__funcIZN4onnx11GetOpSchemaINS2_16Expand_Onnx_ver8EEENS2_8OpSchemaEvE4$_11NS_9allocatorIS6_EEFvRNS2_16InferenceContextEEED0Ev', symObjAddr: 0x314AC, symBinAddr: 0xC0B5DC, symSize: 0x4 }
  - { offsetInCU: 0x13FAFD, offset: 0x67F5E3, size: 0x8, addend: 0x0, symName: '__ZNKSt3__110__function6__funcIZN4onnx11GetOpSchemaINS2_16Expand_Onnx_ver8EEENS2_8OpSchemaEvE4$_11NS_9allocatorIS6_EEFvRNS2_16InferenceContextEEE7__cloneEv', symObjAddr: 0x314B0, symBinAddr: 0xC0B5E0, symSize: 0x24 }
  - { offsetInCU: 0x13FC45, offset: 0x67F72B, size: 0x8, addend: 0x0, symName: '__ZNKSt3__110__function6__funcIZN4onnx11GetOpSchemaINS2_16Expand_Onnx_ver8EEENS2_8OpSchemaEvE4$_11NS_9allocatorIS6_EEFvRNS2_16InferenceContextEEE7__cloneEPNS0_6__baseISB_EE', symObjAddr: 0x314D4, symBinAddr: 0xC0B604, symSize: 0x10 }
  - { offsetInCU: 0x13FC7B, offset: 0x67F761, size: 0x8, addend: 0x0, symName: '__ZNKSt3__110__function6__funcIZN4onnx11GetOpSchemaINS2_16Expand_Onnx_ver8EEENS2_8OpSchemaEvE4$_11NS_9allocatorIS6_EEFvRNS2_16InferenceContextEEE7__cloneEPNS0_6__baseISB_EE', symObjAddr: 0x314D4, symBinAddr: 0xC0B604, symSize: 0x10 }
  - { offsetInCU: 0x13FC97, offset: 0x67F77D, size: 0x8, addend: 0x0, symName: '__ZNKSt3__110__function6__funcIZN4onnx11GetOpSchemaINS2_16Expand_Onnx_ver8EEENS2_8OpSchemaEvE4$_11NS_9allocatorIS6_EEFvRNS2_16InferenceContextEEE7__cloneEPNS0_6__baseISB_EE', symObjAddr: 0x314D4, symBinAddr: 0xC0B604, symSize: 0x10 }
  - { offsetInCU: 0x13FCB3, offset: 0x67F799, size: 0x8, addend: 0x0, symName: '__ZNSt3__110__function6__funcIZN4onnx11GetOpSchemaINS2_16Expand_Onnx_ver8EEENS2_8OpSchemaEvE4$_11NS_9allocatorIS6_EEFvRNS2_16InferenceContextEEE7destroyEv', symObjAddr: 0x314E4, symBinAddr: 0xC0B614, symSize: 0x4 }
  - { offsetInCU: 0x13FD04, offset: 0x67F7EA, size: 0x8, addend: 0x0, symName: '__ZNSt3__110__function6__funcIZN4onnx11GetOpSchemaINS2_16Expand_Onnx_ver8EEENS2_8OpSchemaEvE4$_11NS_9allocatorIS6_EEFvRNS2_16InferenceContextEEE18destroy_deallocateEv', symObjAddr: 0x314E8, symBinAddr: 0xC0B618, symSize: 0x4 }
  - { offsetInCU: 0x13FD39, offset: 0x67F81F, size: 0x8, addend: 0x0, symName: '__ZNSt3__110__function6__funcIZN4onnx11GetOpSchemaINS2_16Expand_Onnx_ver8EEENS2_8OpSchemaEvE4$_11NS_9allocatorIS6_EEFvRNS2_16InferenceContextEEE18destroy_deallocateEv', symObjAddr: 0x314E8, symBinAddr: 0xC0B618, symSize: 0x4 }
  - { offsetInCU: 0x13FD5B, offset: 0x67F841, size: 0x8, addend: 0x0, symName: '__ZNSt3__110__function6__funcIZN4onnx11GetOpSchemaINS2_16Expand_Onnx_ver8EEENS2_8OpSchemaEvE4$_11NS_9allocatorIS6_EEFvRNS2_16InferenceContextEEE18destroy_deallocateEv', symObjAddr: 0x314E8, symBinAddr: 0xC0B618, symSize: 0x4 }
  - { offsetInCU: 0x13FD86, offset: 0x67F86C, size: 0x8, addend: 0x0, symName: '__ZNSt3__110__function6__funcIZN4onnx11GetOpSchemaINS2_16Expand_Onnx_ver8EEENS2_8OpSchemaEvE4$_11NS_9allocatorIS6_EEFvRNS2_16InferenceContextEEE18destroy_deallocateEv', symObjAddr: 0x314E8, symBinAddr: 0xC0B618, symSize: 0x4 }
  - { offsetInCU: 0x13FDAC, offset: 0x67F892, size: 0x8, addend: 0x0, symName: '__ZNSt3__110__function6__funcIZN4onnx11GetOpSchemaINS2_16Expand_Onnx_ver8EEENS2_8OpSchemaEvE4$_11NS_9allocatorIS6_EEFvRNS2_16InferenceContextEEE18destroy_deallocateEv', symObjAddr: 0x314E8, symBinAddr: 0xC0B618, symSize: 0x4 }
  - { offsetInCU: 0x13FF25, offset: 0x67FA0B, size: 0x8, addend: 0x0, symName: '__ZNSt3__110__function6__funcIZN4onnx11GetOpSchemaINS2_16Expand_Onnx_ver8EEENS2_8OpSchemaEvE4$_11NS_9allocatorIS6_EEFvRNS2_16InferenceContextEEEclESA_', symObjAddr: 0x314EC, symBinAddr: 0xC0B61C, symSize: 0x4F4 }
  - { offsetInCU: 0x141269, offset: 0x680D4F, size: 0x8, addend: 0x0, symName: '__ZNKSt3__110__function6__funcIZN4onnx11GetOpSchemaINS2_16Expand_Onnx_ver8EEENS2_8OpSchemaEvE4$_11NS_9allocatorIS6_EEFvRNS2_16InferenceContextEEE6targetERKSt9type_info', symObjAddr: 0x319E0, symBinAddr: 0xC0BB10, symSize: 0x60 }
  - { offsetInCU: 0x1412EE, offset: 0x680DD4, size: 0x8, addend: 0x0, symName: '__ZNKSt3__110__function6__funcIZN4onnx11GetOpSchemaINS2_16Expand_Onnx_ver8EEENS2_8OpSchemaEvE4$_11NS_9allocatorIS6_EEFvRNS2_16InferenceContextEEE11target_typeEv', symObjAddr: 0x31A40, symBinAddr: 0xC0BB70, symSize: 0xC }
  - { offsetInCU: 0x141313, offset: 0x680DF9, size: 0x8, addend: 0x0, symName: '__ZNSt3__110__function6__funcIZN4onnx11GetOpSchemaINS2_36NegativeLogLikelihoodLoss_Onnx_ver12EEENS2_8OpSchemaEvE4$_12NS_9allocatorIS6_EEFvRNS2_16InferenceContextEEED1Ev', symObjAddr: 0x31C24, symBinAddr: 0xC0BB7C, symSize: 0x4 }
  - { offsetInCU: 0x14133F, offset: 0x680E25, size: 0x8, addend: 0x0, symName: '__ZNSt3__110__function6__funcIZN4onnx11GetOpSchemaINS2_36NegativeLogLikelihoodLoss_Onnx_ver12EEENS2_8OpSchemaEvE4$_12NS_9allocatorIS6_EEFvRNS2_16InferenceContextEEED0Ev', symObjAddr: 0x31C28, symBinAddr: 0xC0BB80, symSize: 0x4 }
  - { offsetInCU: 0x1413F9, offset: 0x680EDF, size: 0x8, addend: 0x0, symName: '__ZNKSt3__110__function6__funcIZN4onnx11GetOpSchemaINS2_36NegativeLogLikelihoodLoss_Onnx_ver12EEENS2_8OpSchemaEvE4$_12NS_9allocatorIS6_EEFvRNS2_16InferenceContextEEE7__cloneEv', symObjAddr: 0x31C2C, symBinAddr: 0xC0BB84, symSize: 0x24 }
  - { offsetInCU: 0x141541, offset: 0x681027, size: 0x8, addend: 0x0, symName: '__ZNKSt3__110__function6__funcIZN4onnx11GetOpSchemaINS2_36NegativeLogLikelihoodLoss_Onnx_ver12EEENS2_8OpSchemaEvE4$_12NS_9allocatorIS6_EEFvRNS2_16InferenceContextEEE7__cloneEPNS0_6__baseISB_EE', symObjAddr: 0x31C50, symBinAddr: 0xC0BBA8, symSize: 0x10 }
  - { offsetInCU: 0x141577, offset: 0x68105D, size: 0x8, addend: 0x0, symName: '__ZNKSt3__110__function6__funcIZN4onnx11GetOpSchemaINS2_36NegativeLogLikelihoodLoss_Onnx_ver12EEENS2_8OpSchemaEvE4$_12NS_9allocatorIS6_EEFvRNS2_16InferenceContextEEE7__cloneEPNS0_6__baseISB_EE', symObjAddr: 0x31C50, symBinAddr: 0xC0BBA8, symSize: 0x10 }
  - { offsetInCU: 0x141593, offset: 0x681079, size: 0x8, addend: 0x0, symName: '__ZNKSt3__110__function6__funcIZN4onnx11GetOpSchemaINS2_36NegativeLogLikelihoodLoss_Onnx_ver12EEENS2_8OpSchemaEvE4$_12NS_9allocatorIS6_EEFvRNS2_16InferenceContextEEE7__cloneEPNS0_6__baseISB_EE', symObjAddr: 0x31C50, symBinAddr: 0xC0BBA8, symSize: 0x10 }
  - { offsetInCU: 0x1415AF, offset: 0x681095, size: 0x8, addend: 0x0, symName: '__ZNSt3__110__function6__funcIZN4onnx11GetOpSchemaINS2_36NegativeLogLikelihoodLoss_Onnx_ver12EEENS2_8OpSchemaEvE4$_12NS_9allocatorIS6_EEFvRNS2_16InferenceContextEEE7destroyEv', symObjAddr: 0x31C60, symBinAddr: 0xC0BBB8, symSize: 0x4 }
  - { offsetInCU: 0x141600, offset: 0x6810E6, size: 0x8, addend: 0x0, symName: '__ZNSt3__110__function6__funcIZN4onnx11GetOpSchemaINS2_36NegativeLogLikelihoodLoss_Onnx_ver12EEENS2_8OpSchemaEvE4$_12NS_9allocatorIS6_EEFvRNS2_16InferenceContextEEE18destroy_deallocateEv', symObjAddr: 0x31C64, symBinAddr: 0xC0BBBC, symSize: 0x4 }
  - { offsetInCU: 0x141635, offset: 0x68111B, size: 0x8, addend: 0x0, symName: '__ZNSt3__110__function6__funcIZN4onnx11GetOpSchemaINS2_36NegativeLogLikelihoodLoss_Onnx_ver12EEENS2_8OpSchemaEvE4$_12NS_9allocatorIS6_EEFvRNS2_16InferenceContextEEE18destroy_deallocateEv', symObjAddr: 0x31C64, symBinAddr: 0xC0BBBC, symSize: 0x4 }
  - { offsetInCU: 0x141657, offset: 0x68113D, size: 0x8, addend: 0x0, symName: '__ZNSt3__110__function6__funcIZN4onnx11GetOpSchemaINS2_36NegativeLogLikelihoodLoss_Onnx_ver12EEENS2_8OpSchemaEvE4$_12NS_9allocatorIS6_EEFvRNS2_16InferenceContextEEE18destroy_deallocateEv', symObjAddr: 0x31C64, symBinAddr: 0xC0BBBC, symSize: 0x4 }
  - { offsetInCU: 0x141682, offset: 0x681168, size: 0x8, addend: 0x0, symName: '__ZNSt3__110__function6__funcIZN4onnx11GetOpSchemaINS2_36NegativeLogLikelihoodLoss_Onnx_ver12EEENS2_8OpSchemaEvE4$_12NS_9allocatorIS6_EEFvRNS2_16InferenceContextEEE18destroy_deallocateEv', symObjAddr: 0x31C64, symBinAddr: 0xC0BBBC, symSize: 0x4 }
  - { offsetInCU: 0x1416A8, offset: 0x68118E, size: 0x8, addend: 0x0, symName: '__ZNSt3__110__function6__funcIZN4onnx11GetOpSchemaINS2_36NegativeLogLikelihoodLoss_Onnx_ver12EEENS2_8OpSchemaEvE4$_12NS_9allocatorIS6_EEFvRNS2_16InferenceContextEEE18destroy_deallocateEv', symObjAddr: 0x31C64, symBinAddr: 0xC0BBBC, symSize: 0x4 }
  - { offsetInCU: 0x1417F2, offset: 0x6812D8, size: 0x8, addend: 0x0, symName: '__ZNSt3__110__function6__funcIZN4onnx11GetOpSchemaINS2_36NegativeLogLikelihoodLoss_Onnx_ver12EEENS2_8OpSchemaEvE4$_12NS_9allocatorIS6_EEFvRNS2_16InferenceContextEEEclESA_', symObjAddr: 0x31C68, symBinAddr: 0xC0BBC0, symSize: 0x940 }
  - { offsetInCU: 0x1436CE, offset: 0x6831B4, size: 0x8, addend: 0x0, symName: '__ZNKSt3__110__function6__funcIZN4onnx11GetOpSchemaINS2_36NegativeLogLikelihoodLoss_Onnx_ver12EEENS2_8OpSchemaEvE4$_12NS_9allocatorIS6_EEFvRNS2_16InferenceContextEEE6targetERKSt9type_info', symObjAddr: 0x325A8, symBinAddr: 0xC0C500, symSize: 0x60 }
  - { offsetInCU: 0x143753, offset: 0x683239, size: 0x8, addend: 0x0, symName: '__ZNKSt3__110__function6__funcIZN4onnx11GetOpSchemaINS2_36NegativeLogLikelihoodLoss_Onnx_ver12EEENS2_8OpSchemaEvE4$_12NS_9allocatorIS6_EEFvRNS2_16InferenceContextEEE11target_typeEv', symObjAddr: 0x32608, symBinAddr: 0xC0C560, symSize: 0xC }
  - { offsetInCU: 0x1437DC, offset: 0x6832C2, size: 0x8, addend: 0x0, symName: '__ZNSt3__110__function6__funcIZN4onnx11GetOpSchemaINS2_34SoftmaxCrossEntropyLoss_Onnx_ver12EEENS2_8OpSchemaEvE4$_13NS_9allocatorIS6_EEFvRNS2_16InferenceContextEEED1Ev', symObjAddr: 0x32E1C, symBinAddr: 0xC0C56C, symSize: 0x4 }
  - { offsetInCU: 0x143808, offset: 0x6832EE, size: 0x8, addend: 0x0, symName: '__ZNSt3__110__function6__funcIZN4onnx11GetOpSchemaINS2_34SoftmaxCrossEntropyLoss_Onnx_ver12EEENS2_8OpSchemaEvE4$_13NS_9allocatorIS6_EEFvRNS2_16InferenceContextEEED0Ev', symObjAddr: 0x32E20, symBinAddr: 0xC0C570, symSize: 0x4 }
  - { offsetInCU: 0x1438C2, offset: 0x6833A8, size: 0x8, addend: 0x0, symName: '__ZNKSt3__110__function6__funcIZN4onnx11GetOpSchemaINS2_34SoftmaxCrossEntropyLoss_Onnx_ver12EEENS2_8OpSchemaEvE4$_13NS_9allocatorIS6_EEFvRNS2_16InferenceContextEEE7__cloneEv', symObjAddr: 0x32E24, symBinAddr: 0xC0C574, symSize: 0x24 }
  - { offsetInCU: 0x143A0A, offset: 0x6834F0, size: 0x8, addend: 0x0, symName: '__ZNKSt3__110__function6__funcIZN4onnx11GetOpSchemaINS2_34SoftmaxCrossEntropyLoss_Onnx_ver12EEENS2_8OpSchemaEvE4$_13NS_9allocatorIS6_EEFvRNS2_16InferenceContextEEE7__cloneEPNS0_6__baseISB_EE', symObjAddr: 0x32E48, symBinAddr: 0xC0C598, symSize: 0x10 }
  - { offsetInCU: 0x143A40, offset: 0x683526, size: 0x8, addend: 0x0, symName: '__ZNKSt3__110__function6__funcIZN4onnx11GetOpSchemaINS2_34SoftmaxCrossEntropyLoss_Onnx_ver12EEENS2_8OpSchemaEvE4$_13NS_9allocatorIS6_EEFvRNS2_16InferenceContextEEE7__cloneEPNS0_6__baseISB_EE', symObjAddr: 0x32E48, symBinAddr: 0xC0C598, symSize: 0x10 }
  - { offsetInCU: 0x143A5C, offset: 0x683542, size: 0x8, addend: 0x0, symName: '__ZNKSt3__110__function6__funcIZN4onnx11GetOpSchemaINS2_34SoftmaxCrossEntropyLoss_Onnx_ver12EEENS2_8OpSchemaEvE4$_13NS_9allocatorIS6_EEFvRNS2_16InferenceContextEEE7__cloneEPNS0_6__baseISB_EE', symObjAddr: 0x32E48, symBinAddr: 0xC0C598, symSize: 0x10 }
  - { offsetInCU: 0x143A78, offset: 0x68355E, size: 0x8, addend: 0x0, symName: '__ZNSt3__110__function6__funcIZN4onnx11GetOpSchemaINS2_34SoftmaxCrossEntropyLoss_Onnx_ver12EEENS2_8OpSchemaEvE4$_13NS_9allocatorIS6_EEFvRNS2_16InferenceContextEEE7destroyEv', symObjAddr: 0x32E58, symBinAddr: 0xC0C5A8, symSize: 0x4 }
  - { offsetInCU: 0x143AC9, offset: 0x6835AF, size: 0x8, addend: 0x0, symName: '__ZNSt3__110__function6__funcIZN4onnx11GetOpSchemaINS2_34SoftmaxCrossEntropyLoss_Onnx_ver12EEENS2_8OpSchemaEvE4$_13NS_9allocatorIS6_EEFvRNS2_16InferenceContextEEE18destroy_deallocateEv', symObjAddr: 0x32E5C, symBinAddr: 0xC0C5AC, symSize: 0x4 }
  - { offsetInCU: 0x143AFE, offset: 0x6835E4, size: 0x8, addend: 0x0, symName: '__ZNSt3__110__function6__funcIZN4onnx11GetOpSchemaINS2_34SoftmaxCrossEntropyLoss_Onnx_ver12EEENS2_8OpSchemaEvE4$_13NS_9allocatorIS6_EEFvRNS2_16InferenceContextEEE18destroy_deallocateEv', symObjAddr: 0x32E5C, symBinAddr: 0xC0C5AC, symSize: 0x4 }
  - { offsetInCU: 0x143B20, offset: 0x683606, size: 0x8, addend: 0x0, symName: '__ZNSt3__110__function6__funcIZN4onnx11GetOpSchemaINS2_34SoftmaxCrossEntropyLoss_Onnx_ver12EEENS2_8OpSchemaEvE4$_13NS_9allocatorIS6_EEFvRNS2_16InferenceContextEEE18destroy_deallocateEv', symObjAddr: 0x32E5C, symBinAddr: 0xC0C5AC, symSize: 0x4 }
  - { offsetInCU: 0x143B4B, offset: 0x683631, size: 0x8, addend: 0x0, symName: '__ZNSt3__110__function6__funcIZN4onnx11GetOpSchemaINS2_34SoftmaxCrossEntropyLoss_Onnx_ver12EEENS2_8OpSchemaEvE4$_13NS_9allocatorIS6_EEFvRNS2_16InferenceContextEEE18destroy_deallocateEv', symObjAddr: 0x32E5C, symBinAddr: 0xC0C5AC, symSize: 0x4 }
  - { offsetInCU: 0x143B71, offset: 0x683657, size: 0x8, addend: 0x0, symName: '__ZNSt3__110__function6__funcIZN4onnx11GetOpSchemaINS2_34SoftmaxCrossEntropyLoss_Onnx_ver12EEENS2_8OpSchemaEvE4$_13NS_9allocatorIS6_EEFvRNS2_16InferenceContextEEE18destroy_deallocateEv', symObjAddr: 0x32E5C, symBinAddr: 0xC0C5AC, symSize: 0x4 }
  - { offsetInCU: 0x143CC0, offset: 0x6837A6, size: 0x8, addend: 0x0, symName: '__ZNSt3__110__function6__funcIZN4onnx11GetOpSchemaINS2_34SoftmaxCrossEntropyLoss_Onnx_ver12EEENS2_8OpSchemaEvE4$_13NS_9allocatorIS6_EEFvRNS2_16InferenceContextEEEclESA_', symObjAddr: 0x32E60, symBinAddr: 0xC0C5B0, symSize: 0x2DC }
  - { offsetInCU: 0x144ABD, offset: 0x6845A3, size: 0x8, addend: 0x0, symName: '__ZNKSt3__110__function6__funcIZN4onnx11GetOpSchemaINS2_34SoftmaxCrossEntropyLoss_Onnx_ver12EEENS2_8OpSchemaEvE4$_13NS_9allocatorIS6_EEFvRNS2_16InferenceContextEEE6targetERKSt9type_info', symObjAddr: 0x3313C, symBinAddr: 0xC0C88C, symSize: 0x60 }
  - { offsetInCU: 0x144B42, offset: 0x684628, size: 0x8, addend: 0x0, symName: '__ZNKSt3__110__function6__funcIZN4onnx11GetOpSchemaINS2_34SoftmaxCrossEntropyLoss_Onnx_ver12EEENS2_8OpSchemaEvE4$_13NS_9allocatorIS6_EEFvRNS2_16InferenceContextEEE11target_typeEv', symObjAddr: 0x3319C, symBinAddr: 0xC0C8EC, symSize: 0xC }
  - { offsetInCU: 0x144B67, offset: 0x68464D, size: 0x8, addend: 0x0, symName: '__ZNSt3__110__function6__funcIZN4onnx32SoftmaxFamilyDocGenerator_opset1EPKcS4_E4$_14NS_9allocatorIS5_EEFvRNS2_8OpSchemaEEED1Ev', symObjAddr: 0x331A8, symBinAddr: 0xC0C8F8, symSize: 0x4 }
  - { offsetInCU: 0x144B93, offset: 0x684679, size: 0x8, addend: 0x0, symName: '__ZNSt3__110__function6__funcIZN4onnx32SoftmaxFamilyDocGenerator_opset1EPKcS4_E4$_14NS_9allocatorIS5_EEFvRNS2_8OpSchemaEEED0Ev', symObjAddr: 0x331AC, symBinAddr: 0xC0C8FC, symSize: 0x4 }
  - { offsetInCU: 0x144D9C, offset: 0x684882, size: 0x8, addend: 0x0, symName: '__ZNKSt3__110__function6__funcIZN4onnx32SoftmaxFamilyDocGenerator_opset1EPKcS4_E4$_14NS_9allocatorIS5_EEFvRNS2_8OpSchemaEEE7__cloneEv', symObjAddr: 0x331B0, symBinAddr: 0xC0C900, symSize: 0x38 }
  - { offsetInCU: 0x1450C0, offset: 0x684BA6, size: 0x8, addend: 0x0, symName: '__ZNKSt3__110__function6__funcIZN4onnx32SoftmaxFamilyDocGenerator_opset1EPKcS4_E4$_14NS_9allocatorIS5_EEFvRNS2_8OpSchemaEEE7__cloneEPNS0_6__baseISA_EE', symObjAddr: 0x331E8, symBinAddr: 0xC0C938, symSize: 0x18 }
  - { offsetInCU: 0x1450F8, offset: 0x684BDE, size: 0x8, addend: 0x0, symName: '__ZNKSt3__110__function6__funcIZN4onnx32SoftmaxFamilyDocGenerator_opset1EPKcS4_E4$_14NS_9allocatorIS5_EEFvRNS2_8OpSchemaEEE7__cloneEPNS0_6__baseISA_EE', symObjAddr: 0x331E8, symBinAddr: 0xC0C938, symSize: 0x18 }
  - { offsetInCU: 0x14511D, offset: 0x684C03, size: 0x8, addend: 0x0, symName: '__ZNKSt3__110__function6__funcIZN4onnx32SoftmaxFamilyDocGenerator_opset1EPKcS4_E4$_14NS_9allocatorIS5_EEFvRNS2_8OpSchemaEEE7__cloneEPNS0_6__baseISA_EE', symObjAddr: 0x331E8, symBinAddr: 0xC0C938, symSize: 0x18 }
  - { offsetInCU: 0x145206, offset: 0x684CEC, size: 0x8, addend: 0x0, symName: '__ZNSt3__110__function6__funcIZN4onnx32SoftmaxFamilyDocGenerator_opset1EPKcS4_E4$_14NS_9allocatorIS5_EEFvRNS2_8OpSchemaEEE7destroyEv', symObjAddr: 0x33200, symBinAddr: 0xC0C950, symSize: 0x4 }
  - { offsetInCU: 0x145257, offset: 0x684D3D, size: 0x8, addend: 0x0, symName: '__ZNSt3__110__function6__funcIZN4onnx32SoftmaxFamilyDocGenerator_opset1EPKcS4_E4$_14NS_9allocatorIS5_EEFvRNS2_8OpSchemaEEE18destroy_deallocateEv', symObjAddr: 0x33204, symBinAddr: 0xC0C954, symSize: 0x4 }
  - { offsetInCU: 0x14528C, offset: 0x684D72, size: 0x8, addend: 0x0, symName: '__ZNSt3__110__function6__funcIZN4onnx32SoftmaxFamilyDocGenerator_opset1EPKcS4_E4$_14NS_9allocatorIS5_EEFvRNS2_8OpSchemaEEE18destroy_deallocateEv', symObjAddr: 0x33204, symBinAddr: 0xC0C954, symSize: 0x4 }
  - { offsetInCU: 0x1452AE, offset: 0x684D94, size: 0x8, addend: 0x0, symName: '__ZNSt3__110__function6__funcIZN4onnx32SoftmaxFamilyDocGenerator_opset1EPKcS4_E4$_14NS_9allocatorIS5_EEFvRNS2_8OpSchemaEEE18destroy_deallocateEv', symObjAddr: 0x33204, symBinAddr: 0xC0C954, symSize: 0x4 }
  - { offsetInCU: 0x1452D9, offset: 0x684DBF, size: 0x8, addend: 0x0, symName: '__ZNSt3__110__function6__funcIZN4onnx32SoftmaxFamilyDocGenerator_opset1EPKcS4_E4$_14NS_9allocatorIS5_EEFvRNS2_8OpSchemaEEE18destroy_deallocateEv', symObjAddr: 0x33204, symBinAddr: 0xC0C954, symSize: 0x4 }
  - { offsetInCU: 0x1452FF, offset: 0x684DE5, size: 0x8, addend: 0x0, symName: '__ZNSt3__110__function6__funcIZN4onnx32SoftmaxFamilyDocGenerator_opset1EPKcS4_E4$_14NS_9allocatorIS5_EEFvRNS2_8OpSchemaEEE18destroy_deallocateEv', symObjAddr: 0x33204, symBinAddr: 0xC0C954, symSize: 0x4 }
  - { offsetInCU: 0x1453B9, offset: 0x684E9F, size: 0x8, addend: 0x0, symName: '__ZNSt3__110__function6__funcIZN4onnx32SoftmaxFamilyDocGenerator_opset1EPKcS4_E4$_14NS_9allocatorIS5_EEFvRNS2_8OpSchemaEEEclES9_', symObjAddr: 0x33208, symBinAddr: 0xC0C958, symSize: 0x284 }
  - { offsetInCU: 0x145C7A, offset: 0x685760, size: 0x8, addend: 0x0, symName: '__ZNKSt3__110__function6__funcIZN4onnx32SoftmaxFamilyDocGenerator_opset1EPKcS4_E4$_14NS_9allocatorIS5_EEFvRNS2_8OpSchemaEEE6targetERKSt9type_info', symObjAddr: 0x3348C, symBinAddr: 0xC0CBDC, symSize: 0x60 }
  - { offsetInCU: 0x145CFF, offset: 0x6857E5, size: 0x8, addend: 0x0, symName: '__ZNKSt3__110__function6__funcIZN4onnx32SoftmaxFamilyDocGenerator_opset1EPKcS4_E4$_14NS_9allocatorIS5_EEFvRNS2_8OpSchemaEEE11target_typeEv', symObjAddr: 0x334EC, symBinAddr: 0xC0CC3C, symSize: 0xC }
  - { offsetInCU: 0x145D24, offset: 0x68580A, size: 0x8, addend: 0x0, symName: '__ZNSt3__110__function6__funcIZN4onnx20MathDocGenerator_oldEPKcE4$_15NS_9allocatorIS5_EEFvRNS2_8OpSchemaEEED1Ev', symObjAddr: 0x334F8, symBinAddr: 0xC0CC48, symSize: 0x4 }
  - { offsetInCU: 0x145D50, offset: 0x685836, size: 0x8, addend: 0x0, symName: '__ZNSt3__110__function6__funcIZN4onnx20MathDocGenerator_oldEPKcE4$_15NS_9allocatorIS5_EEFvRNS2_8OpSchemaEEED0Ev', symObjAddr: 0x334FC, symBinAddr: 0xC0CC4C, symSize: 0x4 }
  - { offsetInCU: 0x145E0A, offset: 0x6858F0, size: 0x8, addend: 0x0, symName: '__ZNKSt3__110__function6__funcIZN4onnx20MathDocGenerator_oldEPKcE4$_15NS_9allocatorIS5_EEFvRNS2_8OpSchemaEEE7__cloneEv', symObjAddr: 0x33500, symBinAddr: 0xC0CC50, symSize: 0x34 }
  - { offsetInCU: 0x145F56, offset: 0x685A3C, size: 0x8, addend: 0x0, symName: '__ZNKSt3__110__function6__funcIZN4onnx20MathDocGenerator_oldEPKcE4$_15NS_9allocatorIS5_EEFvRNS2_8OpSchemaEEE7__cloneEPNS0_6__baseISA_EE', symObjAddr: 0x33534, symBinAddr: 0xC0CC84, symSize: 0x14 }
